
binaries/output.elf:     file format elf32-littlearm


Disassembly of section .isr_vector:

08000000 <vectors>:
 8000000:	20018000 	andcs	r8, r1, r0
 8000004:	08000229 	stmdaeq	r0, {r0, r3, r5, r9}
 8000008:	080002ad 	stmdaeq	r0, {r0, r2, r3, r5, r7, r9}
 800000c:	080002ad 	stmdaeq	r0, {r0, r2, r3, r5, r7, r9}
 8000010:	080002ad 	stmdaeq	r0, {r0, r2, r3, r5, r7, r9}
 8000014:	080002ad 	stmdaeq	r0, {r0, r2, r3, r5, r7, r9}
 8000018:	080002ad 	stmdaeq	r0, {r0, r2, r3, r5, r7, r9}
	...
 800002c:	080002ad 	stmdaeq	r0, {r0, r2, r3, r5, r7, r9}
 8000030:	080002ad 	stmdaeq	r0, {r0, r2, r3, r5, r7, r9}
 8000034:	00000000 	andeq	r0, r0, r0
 8000038:	080002ad 	stmdaeq	r0, {r0, r2, r3, r5, r7, r9}
 800003c:	080002ad 	stmdaeq	r0, {r0, r2, r3, r5, r7, r9}
 8000040:	080002ad 	stmdaeq	r0, {r0, r2, r3, r5, r7, r9}
 8000044:	080002ad 	stmdaeq	r0, {r0, r2, r3, r5, r7, r9}
 8000048:	080002ad 	stmdaeq	r0, {r0, r2, r3, r5, r7, r9}
 800004c:	080002ad 	stmdaeq	r0, {r0, r2, r3, r5, r7, r9}
 8000050:	080002ad 	stmdaeq	r0, {r0, r2, r3, r5, r7, r9}
 8000054:	080002ad 	stmdaeq	r0, {r0, r2, r3, r5, r7, r9}
 8000058:	080002ad 	stmdaeq	r0, {r0, r2, r3, r5, r7, r9}
 800005c:	080002ad 	stmdaeq	r0, {r0, r2, r3, r5, r7, r9}
 8000060:	080002ad 	stmdaeq	r0, {r0, r2, r3, r5, r7, r9}
 8000064:	080002ad 	stmdaeq	r0, {r0, r2, r3, r5, r7, r9}
 8000068:	080002ad 	stmdaeq	r0, {r0, r2, r3, r5, r7, r9}
 800006c:	080002ad 	stmdaeq	r0, {r0, r2, r3, r5, r7, r9}
 8000070:	080002ad 	stmdaeq	r0, {r0, r2, r3, r5, r7, r9}
 8000074:	080002ad 	stmdaeq	r0, {r0, r2, r3, r5, r7, r9}
 8000078:	080002ad 	stmdaeq	r0, {r0, r2, r3, r5, r7, r9}
 800007c:	080002ad 	stmdaeq	r0, {r0, r2, r3, r5, r7, r9}
 8000080:	080002ad 	stmdaeq	r0, {r0, r2, r3, r5, r7, r9}
 8000084:	080002ad 	stmdaeq	r0, {r0, r2, r3, r5, r7, r9}
 8000088:	080002ad 	stmdaeq	r0, {r0, r2, r3, r5, r7, r9}
 800008c:	080002ad 	stmdaeq	r0, {r0, r2, r3, r5, r7, r9}
 8000090:	080002ad 	stmdaeq	r0, {r0, r2, r3, r5, r7, r9}
 8000094:	080002ad 	stmdaeq	r0, {r0, r2, r3, r5, r7, r9}
 8000098:	080002ad 	stmdaeq	r0, {r0, r2, r3, r5, r7, r9}
 800009c:	080002ad 	stmdaeq	r0, {r0, r2, r3, r5, r7, r9}
 80000a0:	080002ad 	stmdaeq	r0, {r0, r2, r3, r5, r7, r9}
 80000a4:	080002ad 	stmdaeq	r0, {r0, r2, r3, r5, r7, r9}
 80000a8:	080002ad 	stmdaeq	r0, {r0, r2, r3, r5, r7, r9}
 80000ac:	080002ad 	stmdaeq	r0, {r0, r2, r3, r5, r7, r9}
 80000b0:	080002ad 	stmdaeq	r0, {r0, r2, r3, r5, r7, r9}
 80000b4:	080002ad 	stmdaeq	r0, {r0, r2, r3, r5, r7, r9}
 80000b8:	080002ad 	stmdaeq	r0, {r0, r2, r3, r5, r7, r9}
 80000bc:	080002ad 	stmdaeq	r0, {r0, r2, r3, r5, r7, r9}
 80000c0:	080002ad 	stmdaeq	r0, {r0, r2, r3, r5, r7, r9}
 80000c4:	080002ad 	stmdaeq	r0, {r0, r2, r3, r5, r7, r9}
 80000c8:	080002ad 	stmdaeq	r0, {r0, r2, r3, r5, r7, r9}
 80000cc:	080002ad 	stmdaeq	r0, {r0, r2, r3, r5, r7, r9}
 80000d0:	080002ad 	stmdaeq	r0, {r0, r2, r3, r5, r7, r9}
 80000d4:	080002ad 	stmdaeq	r0, {r0, r2, r3, r5, r7, r9}
 80000d8:	080002ad 	stmdaeq	r0, {r0, r2, r3, r5, r7, r9}
 80000dc:	080002ad 	stmdaeq	r0, {r0, r2, r3, r5, r7, r9}
 80000e0:	080002ad 	stmdaeq	r0, {r0, r2, r3, r5, r7, r9}
 80000e4:	080002ad 	stmdaeq	r0, {r0, r2, r3, r5, r7, r9}
 80000e8:	080002ad 	stmdaeq	r0, {r0, r2, r3, r5, r7, r9}
 80000ec:	080002ad 	stmdaeq	r0, {r0, r2, r3, r5, r7, r9}
 80000f0:	080002ad 	stmdaeq	r0, {r0, r2, r3, r5, r7, r9}
 80000f4:	080002ad 	stmdaeq	r0, {r0, r2, r3, r5, r7, r9}
 80000f8:	080002ad 	stmdaeq	r0, {r0, r2, r3, r5, r7, r9}
 80000fc:	080002ad 	stmdaeq	r0, {r0, r2, r3, r5, r7, r9}
 8000100:	080002ad 	stmdaeq	r0, {r0, r2, r3, r5, r7, r9}
 8000104:	080002ad 	stmdaeq	r0, {r0, r2, r3, r5, r7, r9}
 8000108:	080002ad 	stmdaeq	r0, {r0, r2, r3, r5, r7, r9}
 800010c:	080002ad 	stmdaeq	r0, {r0, r2, r3, r5, r7, r9}
 8000110:	080002ad 	stmdaeq	r0, {r0, r2, r3, r5, r7, r9}
 8000114:	080002ad 	stmdaeq	r0, {r0, r2, r3, r5, r7, r9}
 8000118:	080002ad 	stmdaeq	r0, {r0, r2, r3, r5, r7, r9}
 800011c:	080002ad 	stmdaeq	r0, {r0, r2, r3, r5, r7, r9}
	...

Disassembly of section .text:

08000150 <_stack_init>:
 8000150:	f5a3 3a80 	sub.w	sl, r3, #65536	@ 0x10000
 8000154:	4770      	bx	lr
 8000156:	bf00      	nop

08000158 <_mainCRTStartup>:
 8000158:	4b17      	ldr	r3, [pc, #92]	@ (80001b8 <_mainCRTStartup+0x60>)
 800015a:	2b00      	cmp	r3, #0
 800015c:	bf08      	it	eq
 800015e:	4b13      	ldreq	r3, [pc, #76]	@ (80001ac <_mainCRTStartup+0x54>)
 8000160:	469d      	mov	sp, r3
 8000162:	f7ff fff5 	bl	8000150 <_stack_init>
 8000166:	2100      	movs	r1, #0
 8000168:	468b      	mov	fp, r1
 800016a:	460f      	mov	r7, r1
 800016c:	4813      	ldr	r0, [pc, #76]	@ (80001bc <_mainCRTStartup+0x64>)
 800016e:	4a14      	ldr	r2, [pc, #80]	@ (80001c0 <_mainCRTStartup+0x68>)
 8000170:	1a12      	subs	r2, r2, r0
 8000172:	f000 fb2f 	bl	80007d4 <memset>
 8000176:	4b0e      	ldr	r3, [pc, #56]	@ (80001b0 <_mainCRTStartup+0x58>)
 8000178:	2b00      	cmp	r3, #0
 800017a:	d000      	beq.n	800017e <_mainCRTStartup+0x26>
 800017c:	4798      	blx	r3
 800017e:	4b0d      	ldr	r3, [pc, #52]	@ (80001b4 <_mainCRTStartup+0x5c>)
 8000180:	2b00      	cmp	r3, #0
 8000182:	d000      	beq.n	8000186 <_mainCRTStartup+0x2e>
 8000184:	4798      	blx	r3
 8000186:	2000      	movs	r0, #0
 8000188:	2100      	movs	r1, #0
 800018a:	0004      	movs	r4, r0
 800018c:	000d      	movs	r5, r1
 800018e:	480d      	ldr	r0, [pc, #52]	@ (80001c4 <_mainCRTStartup+0x6c>)
 8000190:	2800      	cmp	r0, #0
 8000192:	d002      	beq.n	800019a <_mainCRTStartup+0x42>
 8000194:	480c      	ldr	r0, [pc, #48]	@ (80001c8 <_mainCRTStartup+0x70>)
 8000196:	f3af 8000 	nop.w
 800019a:	f000 fbc7 	bl	800092c <__libc_init_array>
 800019e:	0020      	movs	r0, r4
 80001a0:	0029      	movs	r1, r5
 80001a2:	f000 f813 	bl	80001cc <main>
 80001a6:	f000 f973 	bl	8000490 <exit>
 80001aa:	bf00      	nop
 80001ac:	00080000 	andeq	r0, r8, r0
	...
 80001bc:	2000006c 	andcs	r0, r0, ip, rrx
 80001c0:	200001d8 			@ <UNDEFINED> instruction: 0x200001d8
	...

080001cc <main>:
 80001cc:	b480      	push	{r7}
 80001ce:	b083      	sub	sp, #12
 80001d0:	af00      	add	r7, sp, #0
 80001d2:	4b11      	ldr	r3, [pc, #68]	@ (8000218 <main+0x4c>)
 80001d4:	681b      	ldr	r3, [r3, #0]
 80001d6:	4a10      	ldr	r2, [pc, #64]	@ (8000218 <main+0x4c>)
 80001d8:	f043 0301 	orr.w	r3, r3, #1
 80001dc:	6013      	str	r3, [r2, #0]
 80001de:	4b0f      	ldr	r3, [pc, #60]	@ (800021c <main+0x50>)
 80001e0:	681b      	ldr	r3, [r3, #0]
 80001e2:	4a0e      	ldr	r2, [pc, #56]	@ (800021c <main+0x50>)
 80001e4:	f443 6380 	orr.w	r3, r3, #1024	@ 0x400
 80001e8:	6013      	str	r3, [r2, #0]
 80001ea:	4b0c      	ldr	r3, [pc, #48]	@ (800021c <main+0x50>)
 80001ec:	681b      	ldr	r3, [r3, #0]
 80001ee:	4a0b      	ldr	r2, [pc, #44]	@ (800021c <main+0x50>)
 80001f0:	f423 6300 	bic.w	r3, r3, #2048	@ 0x800
 80001f4:	6013      	str	r3, [r2, #0]
 80001f6:	4b0a      	ldr	r3, [pc, #40]	@ (8000220 <main+0x54>)
 80001f8:	681b      	ldr	r3, [r3, #0]
 80001fa:	4a09      	ldr	r2, [pc, #36]	@ (8000220 <main+0x54>)
 80001fc:	f083 0320 	eor.w	r3, r3, #32
 8000200:	6013      	str	r3, [r2, #0]
 8000202:	2300      	movs	r3, #0
 8000204:	607b      	str	r3, [r7, #4]
 8000206:	e002      	b.n	800020e <main+0x42>
 8000208:	687b      	ldr	r3, [r7, #4]
 800020a:	3301      	adds	r3, #1
 800020c:	607b      	str	r3, [r7, #4]
 800020e:	687b      	ldr	r3, [r7, #4]
 8000210:	4a04      	ldr	r2, [pc, #16]	@ (8000224 <main+0x58>)
 8000212:	4293      	cmp	r3, r2
 8000214:	ddf8      	ble.n	8000208 <main+0x3c>
 8000216:	e7ee      	b.n	80001f6 <main+0x2a>
 8000218:	40023830 	andmi	r3, r2, r0, lsr r8
 800021c:	40020000 	andmi	r0, r2, r0
 8000220:	40020014 	andmi	r0, r2, r4, lsl r0
 8000224:	0001869f 	muleq	r1, pc, r6	@ <UNPREDICTABLE>

08000228 <reset_handler>:
 8000228:	b580      	push	{r7, lr}
 800022a:	b086      	sub	sp, #24
 800022c:	af00      	add	r7, sp, #0
 800022e:	4a1a      	ldr	r2, [pc, #104]	@ (8000298 <reset_handler+0x70>)
 8000230:	4b1a      	ldr	r3, [pc, #104]	@ (800029c <reset_handler+0x74>)
 8000232:	1ad3      	subs	r3, r2, r3
 8000234:	607b      	str	r3, [r7, #4]
 8000236:	4b19      	ldr	r3, [pc, #100]	@ (800029c <reset_handler+0x74>)
 8000238:	617b      	str	r3, [r7, #20]
 800023a:	4b19      	ldr	r3, [pc, #100]	@ (80002a0 <reset_handler+0x78>)
 800023c:	613b      	str	r3, [r7, #16]
 800023e:	2300      	movs	r3, #0
 8000240:	60fb      	str	r3, [r7, #12]
 8000242:	e00a      	b.n	800025a <reset_handler+0x32>
 8000244:	693a      	ldr	r2, [r7, #16]
 8000246:	1c53      	adds	r3, r2, #1
 8000248:	613b      	str	r3, [r7, #16]
 800024a:	697b      	ldr	r3, [r7, #20]
 800024c:	1c59      	adds	r1, r3, #1
 800024e:	6179      	str	r1, [r7, #20]
 8000250:	7812      	ldrb	r2, [r2, #0]
 8000252:	701a      	strb	r2, [r3, #0]
 8000254:	68fb      	ldr	r3, [r7, #12]
 8000256:	3301      	adds	r3, #1
 8000258:	60fb      	str	r3, [r7, #12]
 800025a:	68fa      	ldr	r2, [r7, #12]
 800025c:	687b      	ldr	r3, [r7, #4]
 800025e:	429a      	cmp	r2, r3
 8000260:	d3f0      	bcc.n	8000244 <reset_handler+0x1c>
 8000262:	4a10      	ldr	r2, [pc, #64]	@ (80002a4 <reset_handler+0x7c>)
 8000264:	4b10      	ldr	r3, [pc, #64]	@ (80002a8 <reset_handler+0x80>)
 8000266:	1ad3      	subs	r3, r2, r3
 8000268:	607b      	str	r3, [r7, #4]
 800026a:	4b0f      	ldr	r3, [pc, #60]	@ (80002a8 <reset_handler+0x80>)
 800026c:	617b      	str	r3, [r7, #20]
 800026e:	2300      	movs	r3, #0
 8000270:	60bb      	str	r3, [r7, #8]
 8000272:	e007      	b.n	8000284 <reset_handler+0x5c>
 8000274:	697b      	ldr	r3, [r7, #20]
 8000276:	1c5a      	adds	r2, r3, #1
 8000278:	617a      	str	r2, [r7, #20]
 800027a:	2200      	movs	r2, #0
 800027c:	701a      	strb	r2, [r3, #0]
 800027e:	68bb      	ldr	r3, [r7, #8]
 8000280:	3301      	adds	r3, #1
 8000282:	60bb      	str	r3, [r7, #8]
 8000284:	68ba      	ldr	r2, [r7, #8]
 8000286:	687b      	ldr	r3, [r7, #4]
 8000288:	429a      	cmp	r2, r3
 800028a:	d3f3      	bcc.n	8000274 <reset_handler+0x4c>
 800028c:	f000 fb4e 	bl	800092c <__libc_init_array>
 8000290:	f7ff ff9c 	bl	80001cc <main>
 8000294:	bf00      	nop
 8000296:	e7fd      	b.n	8000294 <reset_handler+0x6c>
 8000298:	20000064 	andcs	r0, r0, r4, rrx
 800029c:	20000000 	andcs	r0, r0, r0
 80002a0:	08000d84 	stmdaeq	r0, {r2, r7, r8, sl, fp}
 80002a4:	200001d8 			@ <UNDEFINED> instruction: 0x200001d8
 80002a8:	2000006c 	andcs	r0, r0, ip, rrx

080002ac <default_handler>:
 80002ac:	b480      	push	{r7}
 80002ae:	af00      	add	r7, sp, #0
 80002b0:	bf00      	nop
 80002b2:	e7fd      	b.n	80002b0 <default_handler+0x4>

080002b4 <_sbrk>:
 80002b4:	b480      	push	{r7}
 80002b6:	b085      	sub	sp, #20
 80002b8:	af00      	add	r7, sp, #0
 80002ba:	6078      	str	r0, [r7, #4]
 80002bc:	4b0d      	ldr	r3, [pc, #52]	@ (80002f4 <_sbrk+0x40>)
 80002be:	60fb      	str	r3, [r7, #12]
 80002c0:	4b0d      	ldr	r3, [pc, #52]	@ (80002f8 <_sbrk+0x44>)
 80002c2:	681a      	ldr	r2, [r3, #0]
 80002c4:	687b      	ldr	r3, [r7, #4]
 80002c6:	4413      	add	r3, r2
 80002c8:	68fa      	ldr	r2, [r7, #12]
 80002ca:	429a      	cmp	r2, r3
 80002cc:	d202      	bcs.n	80002d4 <_sbrk+0x20>
 80002ce:	f04f 33ff 	mov.w	r3, #4294967295	@ 0xffffffff
 80002d2:	e009      	b.n	80002e8 <_sbrk+0x34>
 80002d4:	4b08      	ldr	r3, [pc, #32]	@ (80002f8 <_sbrk+0x44>)
 80002d6:	681b      	ldr	r3, [r3, #0]
 80002d8:	60bb      	str	r3, [r7, #8]
 80002da:	4b07      	ldr	r3, [pc, #28]	@ (80002f8 <_sbrk+0x44>)
 80002dc:	681a      	ldr	r2, [r3, #0]
 80002de:	687b      	ldr	r3, [r7, #4]
 80002e0:	4413      	add	r3, r2
 80002e2:	4a05      	ldr	r2, [pc, #20]	@ (80002f8 <_sbrk+0x44>)
 80002e4:	6013      	str	r3, [r2, #0]
 80002e6:	68bb      	ldr	r3, [r7, #8]
 80002e8:	4618      	mov	r0, r3
 80002ea:	3714      	adds	r7, #20
 80002ec:	46bd      	mov	sp, r7
 80002ee:	f85d 7b04 	ldr.w	r7, [sp], #4
 80002f2:	4770      	bx	lr
 80002f4:	200007d8 			@ <UNDEFINED> instruction: 0x200007d8
 80002f8:	20000000 	andcs	r0, r0, r0

080002fc <_exit>:
 80002fc:	b480      	push	{r7}
 80002fe:	b083      	sub	sp, #12
 8000300:	af00      	add	r7, sp, #0
 8000302:	6078      	str	r0, [r7, #4]
 8000304:	bf00      	nop
 8000306:	e7fd      	b.n	8000304 <_exit+0x8>

08000308 <_read>:
 8000308:	b480      	push	{r7}
 800030a:	b085      	sub	sp, #20
 800030c:	af00      	add	r7, sp, #0
 800030e:	60f8      	str	r0, [r7, #12]
 8000310:	60b9      	str	r1, [r7, #8]
 8000312:	607a      	str	r2, [r7, #4]
 8000314:	2300      	movs	r3, #0
 8000316:	4618      	mov	r0, r3
 8000318:	3714      	adds	r7, #20
 800031a:	46bd      	mov	sp, r7
 800031c:	f85d 7b04 	ldr.w	r7, [sp], #4
 8000320:	4770      	bx	lr

08000322 <_write>:
 8000322:	b480      	push	{r7}
 8000324:	b085      	sub	sp, #20
 8000326:	af00      	add	r7, sp, #0
 8000328:	60f8      	str	r0, [r7, #12]
 800032a:	60b9      	str	r1, [r7, #8]
 800032c:	607a      	str	r2, [r7, #4]
 800032e:	687b      	ldr	r3, [r7, #4]
 8000330:	4618      	mov	r0, r3
 8000332:	3714      	adds	r7, #20
 8000334:	46bd      	mov	sp, r7
 8000336:	f85d 7b04 	ldr.w	r7, [sp], #4
 800033a:	4770      	bx	lr

0800033c <_close>:
 800033c:	b480      	push	{r7}
 800033e:	b083      	sub	sp, #12
 8000340:	af00      	add	r7, sp, #0
 8000342:	6078      	str	r0, [r7, #4]
 8000344:	2300      	movs	r3, #0
 8000346:	4618      	mov	r0, r3
 8000348:	370c      	adds	r7, #12
 800034a:	46bd      	mov	sp, r7
 800034c:	f85d 7b04 	ldr.w	r7, [sp], #4
 8000350:	4770      	bx	lr

08000352 <_lseek>:
 8000352:	b480      	push	{r7}
 8000354:	b085      	sub	sp, #20
 8000356:	af00      	add	r7, sp, #0
 8000358:	60f8      	str	r0, [r7, #12]
 800035a:	60b9      	str	r1, [r7, #8]
 800035c:	607a      	str	r2, [r7, #4]
 800035e:	2300      	movs	r3, #0
 8000360:	4618      	mov	r0, r3
 8000362:	3714      	adds	r7, #20
 8000364:	46bd      	mov	sp, r7
 8000366:	f85d 7b04 	ldr.w	r7, [sp], #4
 800036a:	4770      	bx	lr

0800036c <_fstat>:
 800036c:	b480      	push	{r7}
 800036e:	b083      	sub	sp, #12
 8000370:	af00      	add	r7, sp, #0
 8000372:	6078      	str	r0, [r7, #4]
 8000374:	6039      	str	r1, [r7, #0]
 8000376:	2300      	movs	r3, #0
 8000378:	4618      	mov	r0, r3
 800037a:	370c      	adds	r7, #12
 800037c:	46bd      	mov	sp, r7
 800037e:	f85d 7b04 	ldr.w	r7, [sp], #4
 8000382:	4770      	bx	lr

08000384 <_isatty>:
 8000384:	b480      	push	{r7}
 8000386:	b083      	sub	sp, #12
 8000388:	af00      	add	r7, sp, #0
 800038a:	6078      	str	r0, [r7, #4]
 800038c:	2300      	movs	r3, #0
 800038e:	4618      	mov	r0, r3
 8000390:	370c      	adds	r7, #12
 8000392:	46bd      	mov	sp, r7
 8000394:	f85d 7b04 	ldr.w	r7, [sp], #4
 8000398:	4770      	bx	lr

0800039a <_kill>:
 800039a:	b480      	push	{r7}
 800039c:	b083      	sub	sp, #12
 800039e:	af00      	add	r7, sp, #0
 80003a0:	6078      	str	r0, [r7, #4]
 80003a2:	6039      	str	r1, [r7, #0]
 80003a4:	f04f 33ff 	mov.w	r3, #4294967295	@ 0xffffffff
 80003a8:	4618      	mov	r0, r3
 80003aa:	370c      	adds	r7, #12
 80003ac:	46bd      	mov	sp, r7
 80003ae:	f85d 7b04 	ldr.w	r7, [sp], #4
 80003b2:	4770      	bx	lr

080003b4 <_fcntl>:
 80003b4:	b40e      	push	{r1, r2, r3}
 80003b6:	b480      	push	{r7}
 80003b8:	b082      	sub	sp, #8
 80003ba:	af00      	add	r7, sp, #0
 80003bc:	6078      	str	r0, [r7, #4]
 80003be:	f04f 33ff 	mov.w	r3, #4294967295	@ 0xffffffff
 80003c2:	4618      	mov	r0, r3
 80003c4:	3708      	adds	r7, #8
 80003c6:	46bd      	mov	sp, r7
 80003c8:	f85d 7b04 	ldr.w	r7, [sp], #4
 80003cc:	b003      	add	sp, #12
 80003ce:	4770      	bx	lr

080003d0 <_dup>:
 80003d0:	b480      	push	{r7}
 80003d2:	b083      	sub	sp, #12
 80003d4:	af00      	add	r7, sp, #0
 80003d6:	6078      	str	r0, [r7, #4]
 80003d8:	f04f 33ff 	mov.w	r3, #4294967295	@ 0xffffffff
 80003dc:	4618      	mov	r0, r3
 80003de:	370c      	adds	r7, #12
 80003e0:	46bd      	mov	sp, r7
 80003e2:	f85d 7b04 	ldr.w	r7, [sp], #4
 80003e6:	4770      	bx	lr

080003e8 <_dup2>:
 80003e8:	b480      	push	{r7}
 80003ea:	b083      	sub	sp, #12
 80003ec:	af00      	add	r7, sp, #0
 80003ee:	6078      	str	r0, [r7, #4]
 80003f0:	6039      	str	r1, [r7, #0]
 80003f2:	f04f 33ff 	mov.w	r3, #4294967295	@ 0xffffffff
 80003f6:	4618      	mov	r0, r3
 80003f8:	370c      	adds	r7, #12
 80003fa:	46bd      	mov	sp, r7
 80003fc:	f85d 7b04 	ldr.w	r7, [sp], #4
 8000400:	4770      	bx	lr
 8000402:	bf00      	nop

08000404 <deregister_tm_clones>:
 8000404:	4803      	ldr	r0, [pc, #12]	@ (8000414 <deregister_tm_clones+0x10>)
 8000406:	4b04      	ldr	r3, [pc, #16]	@ (8000418 <deregister_tm_clones+0x14>)
 8000408:	4283      	cmp	r3, r0
 800040a:	d002      	beq.n	8000412 <deregister_tm_clones+0xe>
 800040c:	4b03      	ldr	r3, [pc, #12]	@ (800041c <deregister_tm_clones+0x18>)
 800040e:	b103      	cbz	r3, 8000412 <deregister_tm_clones+0xe>
 8000410:	4718      	bx	r3
 8000412:	4770      	bx	lr
 8000414:	2000006c 	andcs	r0, r0, ip, rrx
 8000418:	2000006c 	andcs	r0, r0, ip, rrx
 800041c:	00000000 	andeq	r0, r0, r0

08000420 <register_tm_clones>:
 8000420:	4805      	ldr	r0, [pc, #20]	@ (8000438 <register_tm_clones+0x18>)
 8000422:	4b06      	ldr	r3, [pc, #24]	@ (800043c <register_tm_clones+0x1c>)
 8000424:	1a1b      	subs	r3, r3, r0
 8000426:	0fd9      	lsrs	r1, r3, #31
 8000428:	eb01 01a3 	add.w	r1, r1, r3, asr #2
 800042c:	1049      	asrs	r1, r1, #1
 800042e:	d002      	beq.n	8000436 <register_tm_clones+0x16>
 8000430:	4b03      	ldr	r3, [pc, #12]	@ (8000440 <register_tm_clones+0x20>)
 8000432:	b103      	cbz	r3, 8000436 <register_tm_clones+0x16>
 8000434:	4718      	bx	r3
 8000436:	4770      	bx	lr
 8000438:	2000006c 	andcs	r0, r0, ip, rrx
 800043c:	2000006c 	andcs	r0, r0, ip, rrx
 8000440:	00000000 	andeq	r0, r0, r0

08000444 <__do_global_dtors_aux>:
 8000444:	b510      	push	{r4, lr}
 8000446:	4c06      	ldr	r4, [pc, #24]	@ (8000460 <__do_global_dtors_aux+0x1c>)
 8000448:	7823      	ldrb	r3, [r4, #0]
 800044a:	b943      	cbnz	r3, 800045e <__do_global_dtors_aux+0x1a>
 800044c:	f7ff ffda 	bl	8000404 <deregister_tm_clones>
 8000450:	4b04      	ldr	r3, [pc, #16]	@ (8000464 <__do_global_dtors_aux+0x20>)
 8000452:	b113      	cbz	r3, 800045a <__do_global_dtors_aux+0x16>
 8000454:	4804      	ldr	r0, [pc, #16]	@ (8000468 <__do_global_dtors_aux+0x24>)
 8000456:	f3af 8000 	nop.w
 800045a:	2301      	movs	r3, #1
 800045c:	7023      	strb	r3, [r4, #0]
 800045e:	bd10      	pop	{r4, pc}
 8000460:	2000006c 	andcs	r0, r0, ip, rrx
 8000464:	00000000 	andeq	r0, r0, r0
 8000468:	08000d78 	stmdaeq	r0, {r3, r4, r5, r6, r8, sl, fp}

0800046c <frame_dummy>:
 800046c:	b508      	push	{r3, lr}
 800046e:	4b05      	ldr	r3, [pc, #20]	@ (8000484 <frame_dummy+0x18>)
 8000470:	b11b      	cbz	r3, 800047a <frame_dummy+0xe>
 8000472:	4905      	ldr	r1, [pc, #20]	@ (8000488 <frame_dummy+0x1c>)
 8000474:	4805      	ldr	r0, [pc, #20]	@ (800048c <frame_dummy+0x20>)
 8000476:	f3af 8000 	nop.w
 800047a:	e8bd 4008 	ldmia.w	sp!, {r3, lr}
 800047e:	f7ff bfcf 	b.w	8000420 <register_tm_clones>
 8000482:	bf00      	nop
 8000484:	00000000 	andeq	r0, r0, r0
 8000488:	20000070 	andcs	r0, r0, r0, ror r0
 800048c:	08000d78 	stmdaeq	r0, {r3, r4, r5, r6, r8, sl, fp}

08000490 <exit>:
 8000490:	b508      	push	{r3, lr}
 8000492:	4b06      	ldr	r3, [pc, #24]	@ (80004ac <exit+0x1c>)
 8000494:	4604      	mov	r4, r0
 8000496:	b113      	cbz	r3, 800049e <exit+0xe>
 8000498:	2100      	movs	r1, #0
 800049a:	f3af 8000 	nop.w
 800049e:	4b04      	ldr	r3, [pc, #16]	@ (80004b0 <exit+0x20>)
 80004a0:	681b      	ldr	r3, [r3, #0]
 80004a2:	b103      	cbz	r3, 80004a6 <exit+0x16>
 80004a4:	4798      	blx	r3
 80004a6:	4620      	mov	r0, r4
 80004a8:	f7ff ff28 	bl	80002fc <_exit>
 80004ac:	00000000 	andeq	r0, r0, r0
 80004b0:	200001c0 	andcs	r0, r0, r0, asr #3

080004b4 <std>:
 80004b4:	2300      	movs	r3, #0
 80004b6:	b510      	push	{r4, lr}
 80004b8:	4604      	mov	r4, r0
 80004ba:	e9c0 3300 	strd	r3, r3, [r0]
 80004be:	e9c0 3304 	strd	r3, r3, [r0, #16]
 80004c2:	6083      	str	r3, [r0, #8]
 80004c4:	8181      	strh	r1, [r0, #12]
 80004c6:	6643      	str	r3, [r0, #100]	@ 0x64
 80004c8:	81c2      	strh	r2, [r0, #14]
 80004ca:	6183      	str	r3, [r0, #24]
 80004cc:	4619      	mov	r1, r3
 80004ce:	2208      	movs	r2, #8
 80004d0:	305c      	adds	r0, #92	@ 0x5c
 80004d2:	f000 f97f 	bl	80007d4 <memset>
 80004d6:	4b0d      	ldr	r3, [pc, #52]	@ (800050c <std+0x58>)
 80004d8:	6263      	str	r3, [r4, #36]	@ 0x24
 80004da:	4b0d      	ldr	r3, [pc, #52]	@ (8000510 <std+0x5c>)
 80004dc:	62a3      	str	r3, [r4, #40]	@ 0x28
 80004de:	4b0d      	ldr	r3, [pc, #52]	@ (8000514 <std+0x60>)
 80004e0:	62e3      	str	r3, [r4, #44]	@ 0x2c
 80004e2:	4b0d      	ldr	r3, [pc, #52]	@ (8000518 <std+0x64>)
 80004e4:	6323      	str	r3, [r4, #48]	@ 0x30
 80004e6:	4b0d      	ldr	r3, [pc, #52]	@ (800051c <std+0x68>)
 80004e8:	6224      	str	r4, [r4, #32]
 80004ea:	429c      	cmp	r4, r3
 80004ec:	d006      	beq.n	80004fc <std+0x48>
 80004ee:	f103 0268 	add.w	r2, r3, #104	@ 0x68
 80004f2:	4294      	cmp	r4, r2
 80004f4:	d002      	beq.n	80004fc <std+0x48>
 80004f6:	33d0      	adds	r3, #208	@ 0xd0
 80004f8:	429c      	cmp	r4, r3
 80004fa:	d105      	bne.n	8000508 <std+0x54>
 80004fc:	f104 0058 	add.w	r0, r4, #88	@ 0x58
 8000500:	e8bd 4010 	ldmia.w	sp!, {r4, lr}
 8000504:	f000 ba37 	b.w	8000976 <__retarget_lock_init_recursive>
 8000508:	bd10      	pop	{r4, pc}
 800050a:	bf00      	nop
 800050c:	08000749 	stmdaeq	r0, {r0, r3, r6, r8, r9, sl}
 8000510:	0800076f 	stmdaeq	r0, {r0, r1, r2, r3, r5, r6, r8, r9, sl}
 8000514:	080007a7 	stmdaeq	r0, {r0, r1, r2, r5, r7, r8, r9, sl}
 8000518:	080007cd 	stmdaeq	r0, {r0, r2, r3, r6, r7, r8, r9, sl}
 800051c:	20000088 	andcs	r0, r0, r8, lsl #1

08000520 <stdio_exit_handler>:
 8000520:	4a02      	ldr	r2, [pc, #8]	@ (800052c <stdio_exit_handler+0xc>)
 8000522:	4903      	ldr	r1, [pc, #12]	@ (8000530 <stdio_exit_handler+0x10>)
 8000524:	4803      	ldr	r0, [pc, #12]	@ (8000534 <stdio_exit_handler+0x14>)
 8000526:	f000 b8f1 	b.w	800070c <_fwalk_sglue>
 800052a:	bf00      	nop
 800052c:	20000008 	andcs	r0, r0, r8
 8000530:	08000c81 	stmdaeq	r0, {r0, r7, sl, fp}
 8000534:	20000018 	andcs	r0, r0, r8, lsl r0

08000538 <cleanup_stdio>:
 8000538:	6841      	ldr	r1, [r0, #4]
 800053a:	4b0c      	ldr	r3, [pc, #48]	@ (800056c <cleanup_stdio+0x34>)
 800053c:	4299      	cmp	r1, r3
 800053e:	b510      	push	{r4, lr}
 8000540:	4604      	mov	r4, r0
 8000542:	d001      	beq.n	8000548 <cleanup_stdio+0x10>
 8000544:	f000 fb9c 	bl	8000c80 <_fflush_r>
 8000548:	68a1      	ldr	r1, [r4, #8]
 800054a:	4b09      	ldr	r3, [pc, #36]	@ (8000570 <cleanup_stdio+0x38>)
 800054c:	4299      	cmp	r1, r3
 800054e:	d002      	beq.n	8000556 <cleanup_stdio+0x1e>
 8000550:	4620      	mov	r0, r4
 8000552:	f000 fb95 	bl	8000c80 <_fflush_r>
 8000556:	68e1      	ldr	r1, [r4, #12]
 8000558:	4b06      	ldr	r3, [pc, #24]	@ (8000574 <cleanup_stdio+0x3c>)
 800055a:	4299      	cmp	r1, r3
 800055c:	d004      	beq.n	8000568 <cleanup_stdio+0x30>
 800055e:	4620      	mov	r0, r4
 8000560:	e8bd 4010 	ldmia.w	sp!, {r4, lr}
 8000564:	f000 bb8c 	b.w	8000c80 <_fflush_r>
 8000568:	bd10      	pop	{r4, pc}
 800056a:	bf00      	nop
 800056c:	20000088 	andcs	r0, r0, r8, lsl #1
 8000570:	200000f0 			@ <UNDEFINED> instruction: 0x200000f0
 8000574:	20000158 	andcs	r0, r0, r8, asr r1

08000578 <__fp_lock>:
 8000578:	b508      	push	{r3, lr}
 800057a:	6e4b      	ldr	r3, [r1, #100]	@ 0x64
 800057c:	07da      	lsls	r2, r3, #31
 800057e:	d405      	bmi.n	800058c <__fp_lock+0x14>
 8000580:	898b      	ldrh	r3, [r1, #12]
 8000582:	059b      	lsls	r3, r3, #22
 8000584:	d402      	bmi.n	800058c <__fp_lock+0x14>
 8000586:	6d88      	ldr	r0, [r1, #88]	@ 0x58
 8000588:	f000 f9f9 	bl	800097e <__retarget_lock_acquire_recursive>
 800058c:	2000      	movs	r0, #0
 800058e:	bd08      	pop	{r3, pc}

08000590 <__fp_unlock>:
 8000590:	b508      	push	{r3, lr}
 8000592:	6e4b      	ldr	r3, [r1, #100]	@ 0x64
 8000594:	07da      	lsls	r2, r3, #31
 8000596:	d405      	bmi.n	80005a4 <__fp_unlock+0x14>
 8000598:	898b      	ldrh	r3, [r1, #12]
 800059a:	059b      	lsls	r3, r3, #22
 800059c:	d402      	bmi.n	80005a4 <__fp_unlock+0x14>
 800059e:	6d88      	ldr	r0, [r1, #88]	@ 0x58
 80005a0:	f000 f9f3 	bl	800098a <__retarget_lock_release_recursive>
 80005a4:	2000      	movs	r0, #0
 80005a6:	bd08      	pop	{r3, pc}

080005a8 <global_stdio_init.part.0>:
 80005a8:	4b0c      	ldr	r3, [pc, #48]	@ (80005dc <global_stdio_init.part.0+0x34>)
 80005aa:	4a0d      	ldr	r2, [pc, #52]	@ (80005e0 <global_stdio_init.part.0+0x38>)
 80005ac:	480d      	ldr	r0, [pc, #52]	@ (80005e4 <global_stdio_init.part.0+0x3c>)
 80005ae:	b510      	push	{r4, lr}
 80005b0:	2104      	movs	r1, #4
 80005b2:	601a      	str	r2, [r3, #0]
 80005b4:	2200      	movs	r2, #0
 80005b6:	f7ff ff7d 	bl	80004b4 <std>
 80005ba:	4b0a      	ldr	r3, [pc, #40]	@ (80005e4 <global_stdio_init.part.0+0x3c>)
 80005bc:	2201      	movs	r2, #1
 80005be:	461c      	mov	r4, r3
 80005c0:	2109      	movs	r1, #9
 80005c2:	f103 0068 	add.w	r0, r3, #104	@ 0x68
 80005c6:	f7ff ff75 	bl	80004b4 <std>
 80005ca:	f104 00d0 	add.w	r0, r4, #208	@ 0xd0
 80005ce:	2202      	movs	r2, #2
 80005d0:	e8bd 4010 	ldmia.w	sp!, {r4, lr}
 80005d4:	2112      	movs	r1, #18
 80005d6:	f7ff bf6d 	b.w	80004b4 <std>
 80005da:	bf00      	nop
 80005dc:	200001c0 	andcs	r0, r0, r0, asr #3
 80005e0:	08000521 	stmdaeq	r0, {r0, r5, r8, sl}
 80005e4:	20000088 	andcs	r0, r0, r8, lsl #1

080005e8 <__sfp_lock_acquire>:
 80005e8:	4801      	ldr	r0, [pc, #4]	@ (80005f0 <__sfp_lock_acquire+0x8>)
 80005ea:	f000 b9c8 	b.w	800097e <__retarget_lock_acquire_recursive>
 80005ee:	bf00      	nop
 80005f0:	200001cf 	andcs	r0, r0, pc, asr #3

080005f4 <__sfp_lock_release>:
 80005f4:	4801      	ldr	r0, [pc, #4]	@ (80005fc <__sfp_lock_release+0x8>)
 80005f6:	f000 b9c8 	b.w	800098a <__retarget_lock_release_recursive>
 80005fa:	bf00      	nop
 80005fc:	200001cf 	andcs	r0, r0, pc, asr #3

08000600 <__sfp>:
 8000600:	b5f8      	push	{r3, r4, r5, r6, r7, lr}
 8000602:	4607      	mov	r7, r0
 8000604:	f7ff fff0 	bl	80005e8 <__sfp_lock_acquire>
 8000608:	4b23      	ldr	r3, [pc, #140]	@ (8000698 <__sfp+0x98>)
 800060a:	681b      	ldr	r3, [r3, #0]
 800060c:	b90b      	cbnz	r3, 8000612 <__sfp+0x12>
 800060e:	f7ff ffcb 	bl	80005a8 <global_stdio_init.part.0>
 8000612:	4e22      	ldr	r6, [pc, #136]	@ (800069c <__sfp+0x9c>)
 8000614:	e9d6 3401 	ldrd	r3, r4, [r6, #4]
 8000618:	3b01      	subs	r3, #1
 800061a:	d50f      	bpl.n	800063c <__sfp+0x3c>
 800061c:	6835      	ldr	r5, [r6, #0]
 800061e:	2d00      	cmp	r5, #0
 8000620:	d138      	bne.n	8000694 <__sfp+0x94>
 8000622:	f44f 71d6 	mov.w	r1, #428	@ 0x1ac
 8000626:	4638      	mov	r0, r7
 8000628:	f000 fa1c 	bl	8000a64 <_malloc_r>
 800062c:	4604      	mov	r4, r0
 800062e:	bb28      	cbnz	r0, 800067c <__sfp+0x7c>
 8000630:	6030      	str	r0, [r6, #0]
 8000632:	f7ff ffdf 	bl	80005f4 <__sfp_lock_release>
 8000636:	230c      	movs	r3, #12
 8000638:	603b      	str	r3, [r7, #0]
 800063a:	e01b      	b.n	8000674 <__sfp+0x74>
 800063c:	f9b4 500c 	ldrsh.w	r5, [r4, #12]
 8000640:	b9d5      	cbnz	r5, 8000678 <__sfp+0x78>
 8000642:	4b17      	ldr	r3, [pc, #92]	@ (80006a0 <__sfp+0xa0>)
 8000644:	60e3      	str	r3, [r4, #12]
 8000646:	f104 0058 	add.w	r0, r4, #88	@ 0x58
 800064a:	6665      	str	r5, [r4, #100]	@ 0x64
 800064c:	f000 f993 	bl	8000976 <__retarget_lock_init_recursive>
 8000650:	f7ff ffd0 	bl	80005f4 <__sfp_lock_release>
 8000654:	e9c4 5501 	strd	r5, r5, [r4, #4]
 8000658:	e9c4 5504 	strd	r5, r5, [r4, #16]
 800065c:	6025      	str	r5, [r4, #0]
 800065e:	61a5      	str	r5, [r4, #24]
 8000660:	2208      	movs	r2, #8
 8000662:	4629      	mov	r1, r5
 8000664:	f104 005c 	add.w	r0, r4, #92	@ 0x5c
 8000668:	f000 f8b4 	bl	80007d4 <memset>
 800066c:	e9c4 550d 	strd	r5, r5, [r4, #52]	@ 0x34
 8000670:	e9c4 5512 	strd	r5, r5, [r4, #72]	@ 0x48
 8000674:	4620      	mov	r0, r4
 8000676:	bdf8      	pop	{r3, r4, r5, r6, r7, pc}
 8000678:	3468      	adds	r4, #104	@ 0x68
 800067a:	e7cd      	b.n	8000618 <__sfp+0x18>
 800067c:	2304      	movs	r3, #4
 800067e:	6005      	str	r5, [r0, #0]
 8000680:	6043      	str	r3, [r0, #4]
 8000682:	300c      	adds	r0, #12
 8000684:	4629      	mov	r1, r5
 8000686:	60a0      	str	r0, [r4, #8]
 8000688:	f44f 72d0 	mov.w	r2, #416	@ 0x1a0
 800068c:	f000 f8a2 	bl	80007d4 <memset>
 8000690:	4625      	mov	r5, r4
 8000692:	6034      	str	r4, [r6, #0]
 8000694:	462e      	mov	r6, r5
 8000696:	e7bd      	b.n	8000614 <__sfp+0x14>
 8000698:	200001c0 	andcs	r0, r0, r0, asr #3
 800069c:	20000008 	andcs	r0, r0, r8
 80006a0:	ffff0001 			@ <UNDEFINED> instruction: 0xffff0001

080006a4 <__sinit>:
 80006a4:	b510      	push	{r4, lr}
 80006a6:	4604      	mov	r4, r0
 80006a8:	f7ff ff9e 	bl	80005e8 <__sfp_lock_acquire>
 80006ac:	6a23      	ldr	r3, [r4, #32]
 80006ae:	b11b      	cbz	r3, 80006b8 <__sinit+0x14>
 80006b0:	e8bd 4010 	ldmia.w	sp!, {r4, lr}
 80006b4:	f7ff bf9e 	b.w	80005f4 <__sfp_lock_release>
 80006b8:	4b04      	ldr	r3, [pc, #16]	@ (80006cc <__sinit+0x28>)
 80006ba:	6223      	str	r3, [r4, #32]
 80006bc:	4b04      	ldr	r3, [pc, #16]	@ (80006d0 <__sinit+0x2c>)
 80006be:	681b      	ldr	r3, [r3, #0]
 80006c0:	2b00      	cmp	r3, #0
 80006c2:	d1f5      	bne.n	80006b0 <__sinit+0xc>
 80006c4:	f7ff ff70 	bl	80005a8 <global_stdio_init.part.0>
 80006c8:	e7f2      	b.n	80006b0 <__sinit+0xc>
 80006ca:	bf00      	nop
 80006cc:	08000539 	stmdaeq	r0, {r0, r3, r4, r5, r8, sl}
 80006d0:	200001c0 	andcs	r0, r0, r0, asr #3

080006d4 <__fp_lock_all>:
 80006d4:	b508      	push	{r3, lr}
 80006d6:	f7ff ff87 	bl	80005e8 <__sfp_lock_acquire>
 80006da:	e8bd 4008 	ldmia.w	sp!, {r3, lr}
 80006de:	4a02      	ldr	r2, [pc, #8]	@ (80006e8 <__fp_lock_all+0x14>)
 80006e0:	4902      	ldr	r1, [pc, #8]	@ (80006ec <__fp_lock_all+0x18>)
 80006e2:	2000      	movs	r0, #0
 80006e4:	f000 b812 	b.w	800070c <_fwalk_sglue>
 80006e8:	20000008 	andcs	r0, r0, r8
 80006ec:	08000579 	stmdaeq	r0, {r0, r3, r4, r5, r6, r8, sl}

080006f0 <__fp_unlock_all>:
 80006f0:	b508      	push	{r3, lr}
 80006f2:	4a04      	ldr	r2, [pc, #16]	@ (8000704 <__fp_unlock_all+0x14>)
 80006f4:	4904      	ldr	r1, [pc, #16]	@ (8000708 <__fp_unlock_all+0x18>)
 80006f6:	2000      	movs	r0, #0
 80006f8:	f000 f808 	bl	800070c <_fwalk_sglue>
 80006fc:	e8bd 4008 	ldmia.w	sp!, {r3, lr}
 8000700:	f7ff bf78 	b.w	80005f4 <__sfp_lock_release>
 8000704:	20000008 	andcs	r0, r0, r8
 8000708:	08000591 	stmdaeq	r0, {r0, r4, r7, r8, sl}

0800070c <_fwalk_sglue>:
 800070c:	e92d 43f8 	stmdb	sp!, {r3, r4, r5, r6, r7, r8, r9, lr}
 8000710:	4607      	mov	r7, r0
 8000712:	4688      	mov	r8, r1
 8000714:	4614      	mov	r4, r2
 8000716:	2600      	movs	r6, #0
 8000718:	e9d4 9501 	ldrd	r9, r5, [r4, #4]
 800071c:	f1b9 0901 	subs.w	r9, r9, #1
 8000720:	d505      	bpl.n	800072e <_fwalk_sglue+0x22>
 8000722:	6824      	ldr	r4, [r4, #0]
 8000724:	2c00      	cmp	r4, #0
 8000726:	d1f7      	bne.n	8000718 <_fwalk_sglue+0xc>
 8000728:	4630      	mov	r0, r6
 800072a:	e8bd 83f8 	ldmia.w	sp!, {r3, r4, r5, r6, r7, r8, r9, pc}
 800072e:	89ab      	ldrh	r3, [r5, #12]
 8000730:	2b01      	cmp	r3, #1
 8000732:	d907      	bls.n	8000744 <_fwalk_sglue+0x38>
 8000734:	f9b5 300e 	ldrsh.w	r3, [r5, #14]
 8000738:	3301      	adds	r3, #1
 800073a:	d003      	beq.n	8000744 <_fwalk_sglue+0x38>
 800073c:	4629      	mov	r1, r5
 800073e:	4638      	mov	r0, r7
 8000740:	47c0      	blx	r8
 8000742:	4306      	orrs	r6, r0
 8000744:	3568      	adds	r5, #104	@ 0x68
 8000746:	e7e9      	b.n	800071c <_fwalk_sglue+0x10>

08000748 <__sread>:
 8000748:	b510      	push	{r4, lr}
 800074a:	460c      	mov	r4, r1
 800074c:	f9b1 100e 	ldrsh.w	r1, [r1, #14]
 8000750:	f000 f8c8 	bl	80008e4 <_read_r>
 8000754:	2800      	cmp	r0, #0
 8000756:	bfab      	itete	ge
 8000758:	6d63      	ldrge	r3, [r4, #84]	@ 0x54
 800075a:	89a3      	ldrhlt	r3, [r4, #12]
 800075c:	181b      	addge	r3, r3, r0
 800075e:	f423 5380 	biclt.w	r3, r3, #4096	@ 0x1000
 8000762:	bfac      	ite	ge
 8000764:	6563      	strge	r3, [r4, #84]	@ 0x54
 8000766:	81a3      	strhlt	r3, [r4, #12]
 8000768:	bd10      	pop	{r4, pc}

0800076a <__seofread>:
 800076a:	2000      	movs	r0, #0
 800076c:	4770      	bx	lr

0800076e <__swrite>:
 800076e:	e92d 41f0 	stmdb	sp!, {r4, r5, r6, r7, r8, lr}
 8000772:	461f      	mov	r7, r3
 8000774:	898b      	ldrh	r3, [r1, #12]
 8000776:	05db      	lsls	r3, r3, #23
 8000778:	4605      	mov	r5, r0
 800077a:	460c      	mov	r4, r1
 800077c:	4616      	mov	r6, r2
 800077e:	d505      	bpl.n	800078c <__swrite+0x1e>
 8000780:	f9b1 100e 	ldrsh.w	r1, [r1, #14]
 8000784:	2302      	movs	r3, #2
 8000786:	2200      	movs	r2, #0
 8000788:	f000 f89a 	bl	80008c0 <_lseek_r>
 800078c:	89a3      	ldrh	r3, [r4, #12]
 800078e:	f9b4 100e 	ldrsh.w	r1, [r4, #14]
 8000792:	f423 5380 	bic.w	r3, r3, #4096	@ 0x1000
 8000796:	81a3      	strh	r3, [r4, #12]
 8000798:	4632      	mov	r2, r6
 800079a:	463b      	mov	r3, r7
 800079c:	4628      	mov	r0, r5
 800079e:	e8bd 41f0 	ldmia.w	sp!, {r4, r5, r6, r7, r8, lr}
 80007a2:	f000 b8b1 	b.w	8000908 <_write_r>

080007a6 <__sseek>:
 80007a6:	b510      	push	{r4, lr}
 80007a8:	460c      	mov	r4, r1
 80007aa:	f9b1 100e 	ldrsh.w	r1, [r1, #14]
 80007ae:	f000 f887 	bl	80008c0 <_lseek_r>
 80007b2:	f9b4 300c 	ldrsh.w	r3, [r4, #12]
 80007b6:	1c42      	adds	r2, r0, #1
 80007b8:	bf0b      	itete	eq
 80007ba:	f423 5380 	biceq.w	r3, r3, #4096	@ 0x1000
 80007be:	f443 5380 	orrne.w	r3, r3, #4096	@ 0x1000
 80007c2:	81a3      	strheq	r3, [r4, #12]
 80007c4:	81a3      	strhne	r3, [r4, #12]
 80007c6:	bf18      	it	ne
 80007c8:	6560      	strne	r0, [r4, #84]	@ 0x54
 80007ca:	bd10      	pop	{r4, pc}

080007cc <__sclose>:
 80007cc:	f9b1 100e 	ldrsh.w	r1, [r1, #14]
 80007d0:	f000 b808 	b.w	80007e4 <_close_r>

080007d4 <memset>:
 80007d4:	4402      	add	r2, r0
 80007d6:	4603      	mov	r3, r0
 80007d8:	4293      	cmp	r3, r2
 80007da:	d100      	bne.n	80007de <memset+0xa>
 80007dc:	4770      	bx	lr
 80007de:	f803 1b01 	strb.w	r1, [r3], #1
 80007e2:	e7f9      	b.n	80007d8 <memset+0x4>

080007e4 <_close_r>:
 80007e4:	b538      	push	{r3, r4, r5, lr}
 80007e6:	4d06      	ldr	r5, [pc, #24]	@ (8000800 <_close_r+0x1c>)
 80007e8:	2300      	movs	r3, #0
 80007ea:	4604      	mov	r4, r0
 80007ec:	4608      	mov	r0, r1
 80007ee:	602b      	str	r3, [r5, #0]
 80007f0:	f7ff fda4 	bl	800033c <_close>
 80007f4:	1c43      	adds	r3, r0, #1
 80007f6:	d102      	bne.n	80007fe <_close_r+0x1a>
 80007f8:	682b      	ldr	r3, [r5, #0]
 80007fa:	b103      	cbz	r3, 80007fe <_close_r+0x1a>
 80007fc:	6023      	str	r3, [r4, #0]
 80007fe:	bd38      	pop	{r3, r4, r5, pc}
 8000800:	200001c4 	andcs	r0, r0, r4, asr #3

08000804 <_reclaim_reent>:
 8000804:	4b2d      	ldr	r3, [pc, #180]	@ (80008bc <_reclaim_reent+0xb8>)
 8000806:	681b      	ldr	r3, [r3, #0]
 8000808:	4283      	cmp	r3, r0
 800080a:	b570      	push	{r4, r5, r6, lr}
 800080c:	4604      	mov	r4, r0
 800080e:	d053      	beq.n	80008b8 <_reclaim_reent+0xb4>
 8000810:	69c3      	ldr	r3, [r0, #28]
 8000812:	b31b      	cbz	r3, 800085c <_reclaim_reent+0x58>
 8000814:	68db      	ldr	r3, [r3, #12]
 8000816:	b163      	cbz	r3, 8000832 <_reclaim_reent+0x2e>
 8000818:	2500      	movs	r5, #0
 800081a:	69e3      	ldr	r3, [r4, #28]
 800081c:	68db      	ldr	r3, [r3, #12]
 800081e:	5959      	ldr	r1, [r3, r5]
 8000820:	b9b1      	cbnz	r1, 8000850 <_reclaim_reent+0x4c>
 8000822:	3504      	adds	r5, #4
 8000824:	2d80      	cmp	r5, #128	@ 0x80
 8000826:	d1f8      	bne.n	800081a <_reclaim_reent+0x16>
 8000828:	69e3      	ldr	r3, [r4, #28]
 800082a:	4620      	mov	r0, r4
 800082c:	68d9      	ldr	r1, [r3, #12]
 800082e:	f000 f8ad 	bl	800098c <_free_r>
 8000832:	69e3      	ldr	r3, [r4, #28]
 8000834:	6819      	ldr	r1, [r3, #0]
 8000836:	b111      	cbz	r1, 800083e <_reclaim_reent+0x3a>
 8000838:	4620      	mov	r0, r4
 800083a:	f000 f8a7 	bl	800098c <_free_r>
 800083e:	69e3      	ldr	r3, [r4, #28]
 8000840:	689d      	ldr	r5, [r3, #8]
 8000842:	b15d      	cbz	r5, 800085c <_reclaim_reent+0x58>
 8000844:	4629      	mov	r1, r5
 8000846:	4620      	mov	r0, r4
 8000848:	682d      	ldr	r5, [r5, #0]
 800084a:	f000 f89f 	bl	800098c <_free_r>
 800084e:	e7f8      	b.n	8000842 <_reclaim_reent+0x3e>
 8000850:	680e      	ldr	r6, [r1, #0]
 8000852:	4620      	mov	r0, r4
 8000854:	f000 f89a 	bl	800098c <_free_r>
 8000858:	4631      	mov	r1, r6
 800085a:	e7e1      	b.n	8000820 <_reclaim_reent+0x1c>
 800085c:	6961      	ldr	r1, [r4, #20]
 800085e:	b111      	cbz	r1, 8000866 <_reclaim_reent+0x62>
 8000860:	4620      	mov	r0, r4
 8000862:	f000 f893 	bl	800098c <_free_r>
 8000866:	69e1      	ldr	r1, [r4, #28]
 8000868:	b111      	cbz	r1, 8000870 <_reclaim_reent+0x6c>
 800086a:	4620      	mov	r0, r4
 800086c:	f000 f88e 	bl	800098c <_free_r>
 8000870:	6b21      	ldr	r1, [r4, #48]	@ 0x30
 8000872:	b111      	cbz	r1, 800087a <_reclaim_reent+0x76>
 8000874:	4620      	mov	r0, r4
 8000876:	f000 f889 	bl	800098c <_free_r>
 800087a:	6b61      	ldr	r1, [r4, #52]	@ 0x34
 800087c:	b111      	cbz	r1, 8000884 <_reclaim_reent+0x80>
 800087e:	4620      	mov	r0, r4
 8000880:	f000 f884 	bl	800098c <_free_r>
 8000884:	6ba1      	ldr	r1, [r4, #56]	@ 0x38
 8000886:	b111      	cbz	r1, 800088e <_reclaim_reent+0x8a>
 8000888:	4620      	mov	r0, r4
 800088a:	f000 f87f 	bl	800098c <_free_r>
 800088e:	6ca1      	ldr	r1, [r4, #72]	@ 0x48
 8000890:	b111      	cbz	r1, 8000898 <_reclaim_reent+0x94>
 8000892:	4620      	mov	r0, r4
 8000894:	f000 f87a 	bl	800098c <_free_r>
 8000898:	6c61      	ldr	r1, [r4, #68]	@ 0x44
 800089a:	b111      	cbz	r1, 80008a2 <_reclaim_reent+0x9e>
 800089c:	4620      	mov	r0, r4
 800089e:	f000 f875 	bl	800098c <_free_r>
 80008a2:	6ae1      	ldr	r1, [r4, #44]	@ 0x2c
 80008a4:	b111      	cbz	r1, 80008ac <_reclaim_reent+0xa8>
 80008a6:	4620      	mov	r0, r4
 80008a8:	f000 f870 	bl	800098c <_free_r>
 80008ac:	6a23      	ldr	r3, [r4, #32]
 80008ae:	b11b      	cbz	r3, 80008b8 <_reclaim_reent+0xb4>
 80008b0:	4620      	mov	r0, r4
 80008b2:	e8bd 4070 	ldmia.w	sp!, {r4, r5, r6, lr}
 80008b6:	4718      	bx	r3
 80008b8:	bd70      	pop	{r4, r5, r6, pc}
 80008ba:	bf00      	nop
 80008bc:	20000014 	andcs	r0, r0, r4, lsl r0

080008c0 <_lseek_r>:
 80008c0:	b538      	push	{r3, r4, r5, lr}
 80008c2:	4d07      	ldr	r5, [pc, #28]	@ (80008e0 <_lseek_r+0x20>)
 80008c4:	4604      	mov	r4, r0
 80008c6:	4608      	mov	r0, r1
 80008c8:	4611      	mov	r1, r2
 80008ca:	2200      	movs	r2, #0
 80008cc:	602a      	str	r2, [r5, #0]
 80008ce:	461a      	mov	r2, r3
 80008d0:	f7ff fd3f 	bl	8000352 <_lseek>
 80008d4:	1c43      	adds	r3, r0, #1
 80008d6:	d102      	bne.n	80008de <_lseek_r+0x1e>
 80008d8:	682b      	ldr	r3, [r5, #0]
 80008da:	b103      	cbz	r3, 80008de <_lseek_r+0x1e>
 80008dc:	6023      	str	r3, [r4, #0]
 80008de:	bd38      	pop	{r3, r4, r5, pc}
 80008e0:	200001c4 	andcs	r0, r0, r4, asr #3

080008e4 <_read_r>:
 80008e4:	b538      	push	{r3, r4, r5, lr}
 80008e6:	4d07      	ldr	r5, [pc, #28]	@ (8000904 <_read_r+0x20>)
 80008e8:	4604      	mov	r4, r0
 80008ea:	4608      	mov	r0, r1
 80008ec:	4611      	mov	r1, r2
 80008ee:	2200      	movs	r2, #0
 80008f0:	602a      	str	r2, [r5, #0]
 80008f2:	461a      	mov	r2, r3
 80008f4:	f7ff fd08 	bl	8000308 <_read>
 80008f8:	1c43      	adds	r3, r0, #1
 80008fa:	d102      	bne.n	8000902 <_read_r+0x1e>
 80008fc:	682b      	ldr	r3, [r5, #0]
 80008fe:	b103      	cbz	r3, 8000902 <_read_r+0x1e>
 8000900:	6023      	str	r3, [r4, #0]
 8000902:	bd38      	pop	{r3, r4, r5, pc}
 8000904:	200001c4 	andcs	r0, r0, r4, asr #3

08000908 <_write_r>:
 8000908:	b538      	push	{r3, r4, r5, lr}
 800090a:	4d07      	ldr	r5, [pc, #28]	@ (8000928 <_write_r+0x20>)
 800090c:	4604      	mov	r4, r0
 800090e:	4608      	mov	r0, r1
 8000910:	4611      	mov	r1, r2
 8000912:	2200      	movs	r2, #0
 8000914:	602a      	str	r2, [r5, #0]
 8000916:	461a      	mov	r2, r3
 8000918:	f7ff fd03 	bl	8000322 <_write>
 800091c:	1c43      	adds	r3, r0, #1
 800091e:	d102      	bne.n	8000926 <_write_r+0x1e>
 8000920:	682b      	ldr	r3, [r5, #0]
 8000922:	b103      	cbz	r3, 8000926 <_write_r+0x1e>
 8000924:	6023      	str	r3, [r4, #0]
 8000926:	bd38      	pop	{r3, r4, r5, pc}
 8000928:	200001c4 	andcs	r0, r0, r4, asr #3

0800092c <__libc_init_array>:
 800092c:	b570      	push	{r4, r5, r6, lr}
 800092e:	4b0d      	ldr	r3, [pc, #52]	@ (8000964 <__libc_init_array+0x38>)
 8000930:	4d0d      	ldr	r5, [pc, #52]	@ (8000968 <__libc_init_array+0x3c>)
 8000932:	1b5b      	subs	r3, r3, r5
 8000934:	109c      	asrs	r4, r3, #2
 8000936:	2600      	movs	r6, #0
 8000938:	42a6      	cmp	r6, r4
 800093a:	d109      	bne.n	8000950 <__libc_init_array+0x24>
 800093c:	f000 fa10 	bl	8000d60 <_etext>
 8000940:	4d0a      	ldr	r5, [pc, #40]	@ (800096c <__libc_init_array+0x40>)
 8000942:	4b0b      	ldr	r3, [pc, #44]	@ (8000970 <__libc_init_array+0x44>)
 8000944:	1b5b      	subs	r3, r3, r5
 8000946:	109c      	asrs	r4, r3, #2
 8000948:	2600      	movs	r6, #0
 800094a:	42a6      	cmp	r6, r4
 800094c:	d105      	bne.n	800095a <__libc_init_array+0x2e>
 800094e:	bd70      	pop	{r4, r5, r6, pc}
 8000950:	f855 3b04 	ldr.w	r3, [r5], #4
 8000954:	4798      	blx	r3
 8000956:	3601      	adds	r6, #1
 8000958:	e7ee      	b.n	8000938 <__libc_init_array+0xc>
 800095a:	f855 3b04 	ldr.w	r3, [r5], #4
 800095e:	4798      	blx	r3
 8000960:	3601      	adds	r6, #1
 8000962:	e7f2      	b.n	800094a <__libc_init_array+0x1e>
	...

08000974 <__retarget_lock_init>:
 8000974:	4770      	bx	lr

08000976 <__retarget_lock_init_recursive>:
 8000976:	4770      	bx	lr

08000978 <__retarget_lock_close>:
 8000978:	4770      	bx	lr

0800097a <__retarget_lock_close_recursive>:
 800097a:	4770      	bx	lr

0800097c <__retarget_lock_acquire>:
 800097c:	4770      	bx	lr

0800097e <__retarget_lock_acquire_recursive>:
 800097e:	4770      	bx	lr

08000980 <__retarget_lock_try_acquire>:
 8000980:	2001      	movs	r0, #1
 8000982:	4770      	bx	lr

08000984 <__retarget_lock_try_acquire_recursive>:
 8000984:	2001      	movs	r0, #1
 8000986:	4770      	bx	lr

08000988 <__retarget_lock_release>:
 8000988:	4770      	bx	lr

0800098a <__retarget_lock_release_recursive>:
 800098a:	4770      	bx	lr

0800098c <_free_r>:
 800098c:	b538      	push	{r3, r4, r5, lr}
 800098e:	4605      	mov	r5, r0
 8000990:	2900      	cmp	r1, #0
 8000992:	d041      	beq.n	8000a18 <_free_r+0x8c>
 8000994:	f851 3c04 	ldr.w	r3, [r1, #-4]
 8000998:	1f0c      	subs	r4, r1, #4
 800099a:	2b00      	cmp	r3, #0
 800099c:	bfb8      	it	lt
 800099e:	18e4      	addlt	r4, r4, r3
 80009a0:	f000 f8e0 	bl	8000b64 <__malloc_lock>
 80009a4:	4a1d      	ldr	r2, [pc, #116]	@ (8000a1c <_free_r+0x90>)
 80009a6:	6813      	ldr	r3, [r2, #0]
 80009a8:	b933      	cbnz	r3, 80009b8 <_free_r+0x2c>
 80009aa:	6063      	str	r3, [r4, #4]
 80009ac:	6014      	str	r4, [r2, #0]
 80009ae:	4628      	mov	r0, r5
 80009b0:	e8bd 4038 	ldmia.w	sp!, {r3, r4, r5, lr}
 80009b4:	f000 b8dc 	b.w	8000b70 <__malloc_unlock>
 80009b8:	42a3      	cmp	r3, r4
 80009ba:	d908      	bls.n	80009ce <_free_r+0x42>
 80009bc:	6820      	ldr	r0, [r4, #0]
 80009be:	1821      	adds	r1, r4, r0
 80009c0:	428b      	cmp	r3, r1
 80009c2:	bf01      	itttt	eq
 80009c4:	6819      	ldreq	r1, [r3, #0]
 80009c6:	685b      	ldreq	r3, [r3, #4]
 80009c8:	1809      	addeq	r1, r1, r0
 80009ca:	6021      	streq	r1, [r4, #0]
 80009cc:	e7ed      	b.n	80009aa <_free_r+0x1e>
 80009ce:	461a      	mov	r2, r3
 80009d0:	685b      	ldr	r3, [r3, #4]
 80009d2:	b10b      	cbz	r3, 80009d8 <_free_r+0x4c>
 80009d4:	42a3      	cmp	r3, r4
 80009d6:	d9fa      	bls.n	80009ce <_free_r+0x42>
 80009d8:	6811      	ldr	r1, [r2, #0]
 80009da:	1850      	adds	r0, r2, r1
 80009dc:	42a0      	cmp	r0, r4
 80009de:	d10b      	bne.n	80009f8 <_free_r+0x6c>
 80009e0:	6820      	ldr	r0, [r4, #0]
 80009e2:	4401      	add	r1, r0
 80009e4:	1850      	adds	r0, r2, r1
 80009e6:	4283      	cmp	r3, r0
 80009e8:	6011      	str	r1, [r2, #0]
 80009ea:	d1e0      	bne.n	80009ae <_free_r+0x22>
 80009ec:	6818      	ldr	r0, [r3, #0]
 80009ee:	685b      	ldr	r3, [r3, #4]
 80009f0:	6053      	str	r3, [r2, #4]
 80009f2:	4408      	add	r0, r1
 80009f4:	6010      	str	r0, [r2, #0]
 80009f6:	e7da      	b.n	80009ae <_free_r+0x22>
 80009f8:	d902      	bls.n	8000a00 <_free_r+0x74>
 80009fa:	230c      	movs	r3, #12
 80009fc:	602b      	str	r3, [r5, #0]
 80009fe:	e7d6      	b.n	80009ae <_free_r+0x22>
 8000a00:	6820      	ldr	r0, [r4, #0]
 8000a02:	1821      	adds	r1, r4, r0
 8000a04:	428b      	cmp	r3, r1
 8000a06:	bf04      	itt	eq
 8000a08:	6819      	ldreq	r1, [r3, #0]
 8000a0a:	685b      	ldreq	r3, [r3, #4]
 8000a0c:	6063      	str	r3, [r4, #4]
 8000a0e:	bf04      	itt	eq
 8000a10:	1809      	addeq	r1, r1, r0
 8000a12:	6021      	streq	r1, [r4, #0]
 8000a14:	6054      	str	r4, [r2, #4]
 8000a16:	e7ca      	b.n	80009ae <_free_r+0x22>
 8000a18:	bd38      	pop	{r3, r4, r5, pc}
 8000a1a:	bf00      	nop
 8000a1c:	200001d4 			@ <UNDEFINED> instruction: 0x200001d4

08000a20 <sbrk_aligned>:
 8000a20:	b570      	push	{r4, r5, r6, lr}
 8000a22:	4e0f      	ldr	r6, [pc, #60]	@ (8000a60 <sbrk_aligned+0x40>)
 8000a24:	460c      	mov	r4, r1
 8000a26:	6831      	ldr	r1, [r6, #0]
 8000a28:	4605      	mov	r5, r0
 8000a2a:	b911      	cbnz	r1, 8000a32 <sbrk_aligned+0x12>
 8000a2c:	f000 f964 	bl	8000cf8 <_sbrk_r>
 8000a30:	6030      	str	r0, [r6, #0]
 8000a32:	4621      	mov	r1, r4
 8000a34:	4628      	mov	r0, r5
 8000a36:	f000 f95f 	bl	8000cf8 <_sbrk_r>
 8000a3a:	1c43      	adds	r3, r0, #1
 8000a3c:	d103      	bne.n	8000a46 <sbrk_aligned+0x26>
 8000a3e:	f04f 34ff 	mov.w	r4, #4294967295	@ 0xffffffff
 8000a42:	4620      	mov	r0, r4
 8000a44:	bd70      	pop	{r4, r5, r6, pc}
 8000a46:	1cc4      	adds	r4, r0, #3
 8000a48:	f024 0403 	bic.w	r4, r4, #3
 8000a4c:	42a0      	cmp	r0, r4
 8000a4e:	d0f8      	beq.n	8000a42 <sbrk_aligned+0x22>
 8000a50:	1a21      	subs	r1, r4, r0
 8000a52:	4628      	mov	r0, r5
 8000a54:	f000 f950 	bl	8000cf8 <_sbrk_r>
 8000a58:	3001      	adds	r0, #1
 8000a5a:	d1f2      	bne.n	8000a42 <sbrk_aligned+0x22>
 8000a5c:	e7ef      	b.n	8000a3e <sbrk_aligned+0x1e>
 8000a5e:	bf00      	nop
 8000a60:	200001d0 			@ <UNDEFINED> instruction: 0x200001d0

08000a64 <_malloc_r>:
 8000a64:	e92d 43f8 	stmdb	sp!, {r3, r4, r5, r6, r7, r8, r9, lr}
 8000a68:	1ccd      	adds	r5, r1, #3
 8000a6a:	f025 0503 	bic.w	r5, r5, #3
 8000a6e:	3508      	adds	r5, #8
 8000a70:	2d0c      	cmp	r5, #12
 8000a72:	bf38      	it	cc
 8000a74:	250c      	movcc	r5, #12
 8000a76:	2d00      	cmp	r5, #0
 8000a78:	4606      	mov	r6, r0
 8000a7a:	db01      	blt.n	8000a80 <_malloc_r+0x1c>
 8000a7c:	42a9      	cmp	r1, r5
 8000a7e:	d904      	bls.n	8000a8a <_malloc_r+0x26>
 8000a80:	230c      	movs	r3, #12
 8000a82:	6033      	str	r3, [r6, #0]
 8000a84:	2000      	movs	r0, #0
 8000a86:	e8bd 83f8 	ldmia.w	sp!, {r3, r4, r5, r6, r7, r8, r9, pc}
 8000a8a:	f8df 80d4 	ldr.w	r8, [pc, #212]	@ 8000b60 <_malloc_r+0xfc>
 8000a8e:	f000 f869 	bl	8000b64 <__malloc_lock>
 8000a92:	f8d8 3000 	ldr.w	r3, [r8]
 8000a96:	461c      	mov	r4, r3
 8000a98:	bb44      	cbnz	r4, 8000aec <_malloc_r+0x88>
 8000a9a:	4629      	mov	r1, r5
 8000a9c:	4630      	mov	r0, r6
 8000a9e:	f7ff ffbf 	bl	8000a20 <sbrk_aligned>
 8000aa2:	1c43      	adds	r3, r0, #1
 8000aa4:	4604      	mov	r4, r0
 8000aa6:	d158      	bne.n	8000b5a <_malloc_r+0xf6>
 8000aa8:	f8d8 4000 	ldr.w	r4, [r8]
 8000aac:	4627      	mov	r7, r4
 8000aae:	2f00      	cmp	r7, #0
 8000ab0:	d143      	bne.n	8000b3a <_malloc_r+0xd6>
 8000ab2:	2c00      	cmp	r4, #0
 8000ab4:	d04b      	beq.n	8000b4e <_malloc_r+0xea>
 8000ab6:	6823      	ldr	r3, [r4, #0]
 8000ab8:	4639      	mov	r1, r7
 8000aba:	4630      	mov	r0, r6
 8000abc:	eb04 0903 	add.w	r9, r4, r3
 8000ac0:	f000 f91a 	bl	8000cf8 <_sbrk_r>
 8000ac4:	4581      	cmp	r9, r0
 8000ac6:	d142      	bne.n	8000b4e <_malloc_r+0xea>
 8000ac8:	6821      	ldr	r1, [r4, #0]
 8000aca:	1a6d      	subs	r5, r5, r1
 8000acc:	4629      	mov	r1, r5
 8000ace:	4630      	mov	r0, r6
 8000ad0:	f7ff ffa6 	bl	8000a20 <sbrk_aligned>
 8000ad4:	3001      	adds	r0, #1
 8000ad6:	d03a      	beq.n	8000b4e <_malloc_r+0xea>
 8000ad8:	6823      	ldr	r3, [r4, #0]
 8000ada:	442b      	add	r3, r5
 8000adc:	6023      	str	r3, [r4, #0]
 8000ade:	f8d8 3000 	ldr.w	r3, [r8]
 8000ae2:	685a      	ldr	r2, [r3, #4]
 8000ae4:	bb62      	cbnz	r2, 8000b40 <_malloc_r+0xdc>
 8000ae6:	f8c8 7000 	str.w	r7, [r8]
 8000aea:	e00f      	b.n	8000b0c <_malloc_r+0xa8>
 8000aec:	6822      	ldr	r2, [r4, #0]
 8000aee:	1b52      	subs	r2, r2, r5
 8000af0:	d420      	bmi.n	8000b34 <_malloc_r+0xd0>
 8000af2:	2a0b      	cmp	r2, #11
 8000af4:	d917      	bls.n	8000b26 <_malloc_r+0xc2>
 8000af6:	1961      	adds	r1, r4, r5
 8000af8:	42a3      	cmp	r3, r4
 8000afa:	6025      	str	r5, [r4, #0]
 8000afc:	bf18      	it	ne
 8000afe:	6059      	strne	r1, [r3, #4]
 8000b00:	6863      	ldr	r3, [r4, #4]
 8000b02:	bf08      	it	eq
 8000b04:	f8c8 1000 	streq.w	r1, [r8]
 8000b08:	5162      	str	r2, [r4, r5]
 8000b0a:	604b      	str	r3, [r1, #4]
 8000b0c:	4630      	mov	r0, r6
 8000b0e:	f000 f82f 	bl	8000b70 <__malloc_unlock>
 8000b12:	f104 000b 	add.w	r0, r4, #11
 8000b16:	1d23      	adds	r3, r4, #4
 8000b18:	f020 0007 	bic.w	r0, r0, #7
 8000b1c:	1ac2      	subs	r2, r0, r3
 8000b1e:	bf1c      	itt	ne
 8000b20:	1a1b      	subne	r3, r3, r0
 8000b22:	50a3      	strne	r3, [r4, r2]
 8000b24:	e7af      	b.n	8000a86 <_malloc_r+0x22>
 8000b26:	6862      	ldr	r2, [r4, #4]
 8000b28:	42a3      	cmp	r3, r4
 8000b2a:	bf0c      	ite	eq
 8000b2c:	f8c8 2000 	streq.w	r2, [r8]
 8000b30:	605a      	strne	r2, [r3, #4]
 8000b32:	e7eb      	b.n	8000b0c <_malloc_r+0xa8>
 8000b34:	4623      	mov	r3, r4
 8000b36:	6864      	ldr	r4, [r4, #4]
 8000b38:	e7ae      	b.n	8000a98 <_malloc_r+0x34>
 8000b3a:	463c      	mov	r4, r7
 8000b3c:	687f      	ldr	r7, [r7, #4]
 8000b3e:	e7b6      	b.n	8000aae <_malloc_r+0x4a>
 8000b40:	461a      	mov	r2, r3
 8000b42:	685b      	ldr	r3, [r3, #4]
 8000b44:	42a3      	cmp	r3, r4
 8000b46:	d1fb      	bne.n	8000b40 <_malloc_r+0xdc>
 8000b48:	2300      	movs	r3, #0
 8000b4a:	6053      	str	r3, [r2, #4]
 8000b4c:	e7de      	b.n	8000b0c <_malloc_r+0xa8>
 8000b4e:	230c      	movs	r3, #12
 8000b50:	6033      	str	r3, [r6, #0]
 8000b52:	4630      	mov	r0, r6
 8000b54:	f000 f80c 	bl	8000b70 <__malloc_unlock>
 8000b58:	e794      	b.n	8000a84 <_malloc_r+0x20>
 8000b5a:	6005      	str	r5, [r0, #0]
 8000b5c:	e7d6      	b.n	8000b0c <_malloc_r+0xa8>
 8000b5e:	bf00      	nop
 8000b60:	200001d4 			@ <UNDEFINED> instruction: 0x200001d4

08000b64 <__malloc_lock>:
 8000b64:	4801      	ldr	r0, [pc, #4]	@ (8000b6c <__malloc_lock+0x8>)
 8000b66:	f7ff bf0a 	b.w	800097e <__retarget_lock_acquire_recursive>
 8000b6a:	bf00      	nop
 8000b6c:	200001cc 	andcs	r0, r0, ip, asr #3

08000b70 <__malloc_unlock>:
 8000b70:	4801      	ldr	r0, [pc, #4]	@ (8000b78 <__malloc_unlock+0x8>)
 8000b72:	f7ff bf0a 	b.w	800098a <__retarget_lock_release_recursive>
 8000b76:	bf00      	nop
 8000b78:	200001cc 	andcs	r0, r0, ip, asr #3

08000b7c <__sflush_r>:
 8000b7c:	f9b1 200c 	ldrsh.w	r2, [r1, #12]
 8000b80:	e92d 41f0 	stmdb	sp!, {r4, r5, r6, r7, r8, lr}
 8000b84:	0716      	lsls	r6, r2, #28
 8000b86:	4605      	mov	r5, r0
 8000b88:	460c      	mov	r4, r1
 8000b8a:	d451      	bmi.n	8000c30 <__sflush_r+0xb4>
 8000b8c:	684b      	ldr	r3, [r1, #4]
 8000b8e:	2b00      	cmp	r3, #0
 8000b90:	dc02      	bgt.n	8000b98 <__sflush_r+0x1c>
 8000b92:	6c0b      	ldr	r3, [r1, #64]	@ 0x40
 8000b94:	2b00      	cmp	r3, #0
 8000b96:	dd49      	ble.n	8000c2c <__sflush_r+0xb0>
 8000b98:	6ae6      	ldr	r6, [r4, #44]	@ 0x2c
 8000b9a:	2e00      	cmp	r6, #0
 8000b9c:	d046      	beq.n	8000c2c <__sflush_r+0xb0>
 8000b9e:	2300      	movs	r3, #0
 8000ba0:	f412 5280 	ands.w	r2, r2, #4096	@ 0x1000
 8000ba4:	682f      	ldr	r7, [r5, #0]
 8000ba6:	602b      	str	r3, [r5, #0]
 8000ba8:	d031      	beq.n	8000c0e <__sflush_r+0x92>
 8000baa:	6d62      	ldr	r2, [r4, #84]	@ 0x54
 8000bac:	89a3      	ldrh	r3, [r4, #12]
 8000bae:	0759      	lsls	r1, r3, #29
 8000bb0:	d505      	bpl.n	8000bbe <__sflush_r+0x42>
 8000bb2:	6863      	ldr	r3, [r4, #4]
 8000bb4:	1ad2      	subs	r2, r2, r3
 8000bb6:	6b63      	ldr	r3, [r4, #52]	@ 0x34
 8000bb8:	b10b      	cbz	r3, 8000bbe <__sflush_r+0x42>
 8000bba:	6c23      	ldr	r3, [r4, #64]	@ 0x40
 8000bbc:	1ad2      	subs	r2, r2, r3
 8000bbe:	2300      	movs	r3, #0
 8000bc0:	6ae6      	ldr	r6, [r4, #44]	@ 0x2c
 8000bc2:	6a21      	ldr	r1, [r4, #32]
 8000bc4:	4628      	mov	r0, r5
 8000bc6:	47b0      	blx	r6
 8000bc8:	1c42      	adds	r2, r0, #1
 8000bca:	f9b4 300c 	ldrsh.w	r3, [r4, #12]
 8000bce:	d106      	bne.n	8000bde <__sflush_r+0x62>
 8000bd0:	6829      	ldr	r1, [r5, #0]
 8000bd2:	291d      	cmp	r1, #29
 8000bd4:	d846      	bhi.n	8000c64 <__sflush_r+0xe8>
 8000bd6:	4a29      	ldr	r2, [pc, #164]	@ (8000c7c <__sflush_r+0x100>)
 8000bd8:	40ca      	lsrs	r2, r1
 8000bda:	07d6      	lsls	r6, r2, #31
 8000bdc:	d542      	bpl.n	8000c64 <__sflush_r+0xe8>
 8000bde:	2200      	movs	r2, #0
 8000be0:	6062      	str	r2, [r4, #4]
 8000be2:	04d9      	lsls	r1, r3, #19
 8000be4:	6922      	ldr	r2, [r4, #16]
 8000be6:	6022      	str	r2, [r4, #0]
 8000be8:	d504      	bpl.n	8000bf4 <__sflush_r+0x78>
 8000bea:	1c42      	adds	r2, r0, #1
 8000bec:	d101      	bne.n	8000bf2 <__sflush_r+0x76>
 8000bee:	682b      	ldr	r3, [r5, #0]
 8000bf0:	b903      	cbnz	r3, 8000bf4 <__sflush_r+0x78>
 8000bf2:	6560      	str	r0, [r4, #84]	@ 0x54
 8000bf4:	6b61      	ldr	r1, [r4, #52]	@ 0x34
 8000bf6:	602f      	str	r7, [r5, #0]
 8000bf8:	b1c1      	cbz	r1, 8000c2c <__sflush_r+0xb0>
 8000bfa:	f104 0344 	add.w	r3, r4, #68	@ 0x44
 8000bfe:	4299      	cmp	r1, r3
 8000c00:	d002      	beq.n	8000c08 <__sflush_r+0x8c>
 8000c02:	4628      	mov	r0, r5
 8000c04:	f7ff fec2 	bl	800098c <_free_r>
 8000c08:	2300      	movs	r3, #0
 8000c0a:	6363      	str	r3, [r4, #52]	@ 0x34
 8000c0c:	e00e      	b.n	8000c2c <__sflush_r+0xb0>
 8000c0e:	6a21      	ldr	r1, [r4, #32]
 8000c10:	2301      	movs	r3, #1
 8000c12:	4628      	mov	r0, r5
 8000c14:	47b0      	blx	r6
 8000c16:	4602      	mov	r2, r0
 8000c18:	1c50      	adds	r0, r2, #1
 8000c1a:	d1c7      	bne.n	8000bac <__sflush_r+0x30>
 8000c1c:	682b      	ldr	r3, [r5, #0]
 8000c1e:	2b00      	cmp	r3, #0
 8000c20:	d0c4      	beq.n	8000bac <__sflush_r+0x30>
 8000c22:	2b1d      	cmp	r3, #29
 8000c24:	d001      	beq.n	8000c2a <__sflush_r+0xae>
 8000c26:	2b16      	cmp	r3, #22
 8000c28:	d11a      	bne.n	8000c60 <__sflush_r+0xe4>
 8000c2a:	602f      	str	r7, [r5, #0]
 8000c2c:	2000      	movs	r0, #0
 8000c2e:	e01e      	b.n	8000c6e <__sflush_r+0xf2>
 8000c30:	690f      	ldr	r7, [r1, #16]
 8000c32:	2f00      	cmp	r7, #0
 8000c34:	d0fa      	beq.n	8000c2c <__sflush_r+0xb0>
 8000c36:	0793      	lsls	r3, r2, #30
 8000c38:	680e      	ldr	r6, [r1, #0]
 8000c3a:	bf08      	it	eq
 8000c3c:	694b      	ldreq	r3, [r1, #20]
 8000c3e:	600f      	str	r7, [r1, #0]
 8000c40:	bf18      	it	ne
 8000c42:	2300      	movne	r3, #0
 8000c44:	eba6 0807 	sub.w	r8, r6, r7
 8000c48:	608b      	str	r3, [r1, #8]
 8000c4a:	f1b8 0f00 	cmp.w	r8, #0
 8000c4e:	dded      	ble.n	8000c2c <__sflush_r+0xb0>
 8000c50:	6a21      	ldr	r1, [r4, #32]
 8000c52:	6aa6      	ldr	r6, [r4, #40]	@ 0x28
 8000c54:	4643      	mov	r3, r8
 8000c56:	463a      	mov	r2, r7
 8000c58:	4628      	mov	r0, r5
 8000c5a:	47b0      	blx	r6
 8000c5c:	2800      	cmp	r0, #0
 8000c5e:	dc08      	bgt.n	8000c72 <__sflush_r+0xf6>
 8000c60:	f9b4 300c 	ldrsh.w	r3, [r4, #12]
 8000c64:	f043 0340 	orr.w	r3, r3, #64	@ 0x40
 8000c68:	81a3      	strh	r3, [r4, #12]
 8000c6a:	f04f 30ff 	mov.w	r0, #4294967295	@ 0xffffffff
 8000c6e:	e8bd 81f0 	ldmia.w	sp!, {r4, r5, r6, r7, r8, pc}
 8000c72:	4407      	add	r7, r0
 8000c74:	eba8 0800 	sub.w	r8, r8, r0
 8000c78:	e7e7      	b.n	8000c4a <__sflush_r+0xce>
 8000c7a:	bf00      	nop
 8000c7c:	20400001 	subcs	r0, r0, r1

08000c80 <_fflush_r>:
 8000c80:	b538      	push	{r3, r4, r5, lr}
 8000c82:	690b      	ldr	r3, [r1, #16]
 8000c84:	4605      	mov	r5, r0
 8000c86:	460c      	mov	r4, r1
 8000c88:	b913      	cbnz	r3, 8000c90 <_fflush_r+0x10>
 8000c8a:	2500      	movs	r5, #0
 8000c8c:	4628      	mov	r0, r5
 8000c8e:	bd38      	pop	{r3, r4, r5, pc}
 8000c90:	b118      	cbz	r0, 8000c9a <_fflush_r+0x1a>
 8000c92:	6a03      	ldr	r3, [r0, #32]
 8000c94:	b90b      	cbnz	r3, 8000c9a <_fflush_r+0x1a>
 8000c96:	f7ff fd05 	bl	80006a4 <__sinit>
 8000c9a:	f9b4 300c 	ldrsh.w	r3, [r4, #12]
 8000c9e:	2b00      	cmp	r3, #0
 8000ca0:	d0f3      	beq.n	8000c8a <_fflush_r+0xa>
 8000ca2:	6e62      	ldr	r2, [r4, #100]	@ 0x64
 8000ca4:	07d0      	lsls	r0, r2, #31
 8000ca6:	d404      	bmi.n	8000cb2 <_fflush_r+0x32>
 8000ca8:	0599      	lsls	r1, r3, #22
 8000caa:	d402      	bmi.n	8000cb2 <_fflush_r+0x32>
 8000cac:	6da0      	ldr	r0, [r4, #88]	@ 0x58
 8000cae:	f7ff fe66 	bl	800097e <__retarget_lock_acquire_recursive>
 8000cb2:	4628      	mov	r0, r5
 8000cb4:	4621      	mov	r1, r4
 8000cb6:	f7ff ff61 	bl	8000b7c <__sflush_r>
 8000cba:	6e63      	ldr	r3, [r4, #100]	@ 0x64
 8000cbc:	07da      	lsls	r2, r3, #31
 8000cbe:	4605      	mov	r5, r0
 8000cc0:	d4e4      	bmi.n	8000c8c <_fflush_r+0xc>
 8000cc2:	89a3      	ldrh	r3, [r4, #12]
 8000cc4:	059b      	lsls	r3, r3, #22
 8000cc6:	d4e1      	bmi.n	8000c8c <_fflush_r+0xc>
 8000cc8:	6da0      	ldr	r0, [r4, #88]	@ 0x58
 8000cca:	f7ff fe5e 	bl	800098a <__retarget_lock_release_recursive>
 8000cce:	e7dd      	b.n	8000c8c <_fflush_r+0xc>

08000cd0 <fflush>:
 8000cd0:	4601      	mov	r1, r0
 8000cd2:	b920      	cbnz	r0, 8000cde <fflush+0xe>
 8000cd4:	4a04      	ldr	r2, [pc, #16]	@ (8000ce8 <fflush+0x18>)
 8000cd6:	4905      	ldr	r1, [pc, #20]	@ (8000cec <fflush+0x1c>)
 8000cd8:	4805      	ldr	r0, [pc, #20]	@ (8000cf0 <fflush+0x20>)
 8000cda:	f7ff bd17 	b.w	800070c <_fwalk_sglue>
 8000cde:	4b05      	ldr	r3, [pc, #20]	@ (8000cf4 <fflush+0x24>)
 8000ce0:	6818      	ldr	r0, [r3, #0]
 8000ce2:	f7ff bfcd 	b.w	8000c80 <_fflush_r>
 8000ce6:	bf00      	nop
 8000ce8:	20000008 	andcs	r0, r0, r8
 8000cec:	08000c81 	stmdaeq	r0, {r0, r7, sl, fp}
 8000cf0:	20000018 	andcs	r0, r0, r8, lsl r0
 8000cf4:	20000014 	andcs	r0, r0, r4, lsl r0

08000cf8 <_sbrk_r>:
 8000cf8:	b538      	push	{r3, r4, r5, lr}
 8000cfa:	4d06      	ldr	r5, [pc, #24]	@ (8000d14 <_sbrk_r+0x1c>)
 8000cfc:	2300      	movs	r3, #0
 8000cfe:	4604      	mov	r4, r0
 8000d00:	4608      	mov	r0, r1
 8000d02:	602b      	str	r3, [r5, #0]
 8000d04:	f7ff fad6 	bl	80002b4 <_sbrk>
 8000d08:	1c43      	adds	r3, r0, #1
 8000d0a:	d102      	bne.n	8000d12 <_sbrk_r+0x1a>
 8000d0c:	682b      	ldr	r3, [r5, #0]
 8000d0e:	b103      	cbz	r3, 8000d12 <_sbrk_r+0x1a>
 8000d10:	6023      	str	r3, [r4, #0]
 8000d12:	bd38      	pop	{r3, r4, r5, pc}
 8000d14:	200001c4 	andcs	r0, r0, r4, asr #3

08000d18 <all_implied_fbits>:
 8000d18:	410c413e 	tstmi	ip, lr, lsr r1
 8000d1c:	41274111 			@ <UNDEFINED> instruction: 0x41274111
 8000d20:	41034136 	tstmi	r3, r6, lsr r1
 8000d24:	41154106 	tstmi	r5, r6, lsl #2
 8000d28:	410e410f 	tstmi	lr, pc, lsl #2
 8000d2c:	41134126 	tstmi	r3, r6, lsr #2
 8000d30:	41024129 	tstmi	r2, r9, lsr #2
 8000d34:	410a4119 	tstmi	sl, r9, lsl r1
 8000d38:	0000410b 	andeq	r4, r0, fp, lsl #2

08000d3c <all_implied_fbits>:
 8000d3c:	410c413e 	tstmi	ip, lr, lsr r1
 8000d40:	41274111 			@ <UNDEFINED> instruction: 0x41274111
 8000d44:	41034136 	tstmi	r3, r6, lsr r1
 8000d48:	41154106 	tstmi	r5, r6, lsl #2
 8000d4c:	410e410f 	tstmi	lr, pc, lsl #2
 8000d50:	41134126 	tstmi	r3, r6, lsr #2
 8000d54:	41024129 	tstmi	r2, r9, lsr #2
 8000d58:	410a4119 	tstmi	sl, r9, lsl r1
 8000d5c:	0000410b 	andeq	r4, r0, fp, lsl #2

Disassembly of section .init:

08000d60 <_init>:
 8000d60:	b5f8      	push	{r3, r4, r5, r6, r7, lr}
 8000d62:	bf00      	nop
 8000d64:	bcf8      	pop	{r3, r4, r5, r6, r7}
 8000d66:	bc08      	pop	{r3}
 8000d68:	469e      	mov	lr, r3
 8000d6a:	4770      	bx	lr

Disassembly of section .fini:

08000d6c <_fini>:
 8000d6c:	b5f8      	push	{r3, r4, r5, r6, r7, lr}
 8000d6e:	bf00      	nop
 8000d70:	bcf8      	pop	{r3, r4, r5, r6, r7}
 8000d72:	bc08      	pop	{r3}
 8000d74:	469e      	mov	lr, r3
 8000d76:	4770      	bx	lr

Disassembly of section .eh_frame:

08000d78 <__EH_FRAME_BEGIN__>:
 8000d78:	00000000 	andeq	r0, r0, r0

Disassembly of section .ARM.exidx:

08000d7c <.ARM.exidx>:
 8000d7c:	7ffff3d4 	svcvc	0x00fff3d4
 8000d80:	00000001 	andeq	r0, r0, r1

Disassembly of section .data:

20000000 <curr_heap_end>:
20000000:	200003d8 			@ <UNDEFINED> instruction: 0x200003d8

20000004 <__dso_handle>:
20000004:	00000000 	andeq	r0, r0, r0

20000008 <__sglue>:
20000008:	00000000 	andeq	r0, r0, r0
2000000c:	00000003 	andeq	r0, r0, r3
20000010:	20000088 	andcs	r0, r0, r8, lsl #1

20000014 <_impure_ptr>:
20000014:	20000018 	andcs	r0, r0, r8, lsl r0

20000018 <_impure_data>:
20000018:	00000000 	andeq	r0, r0, r0
2000001c:	20000088 	andcs	r0, r0, r8, lsl #1
20000020:	200000f0 			@ <UNDEFINED> instruction: 0x200000f0
20000024:	20000158 	andcs	r0, r0, r8, asr r1
	...

Disassembly of section .init_array:

20000064 <__frame_dummy_init_array_entry>:
20000064:	0800046d 	stmdaeq	r0, {r0, r2, r3, r5, r6, sl}

Disassembly of section .fini_array:

20000068 <__do_global_dtors_aux_fini_array_entry>:
20000068:	08000445 	stmdaeq	r0, {r0, r2, r6, sl}

Disassembly of section .debug_line_str:

00000000 <.debug_line_str>:
   0:	7461642f 	strbtvc	r6, [r1], #-1071	@ 0xfffffbd1
   4:	656a2f61 	strbvs	r2, [sl, #-3937]!	@ 0xfffff09f
   8:	6e696b6e 	vnmulvs.f64	d22, d9, d30
   c:	6f772f73 	svcvs	0x00772f73
  10:	70736b72 	rsbsvc	r6, r3, r2, ror fp
  14:	2f656361 	svccs	0x00656361
  18:	2d554e47 	ldclcs	14, cr4, [r5, #-284]	@ 0xfffffee4
  1c:	6c6f6f74 	stclvs	15, cr6, [pc], #-464	@ fffffe54 <_estack+0xdffe7e54>
  20:	69616863 	stmdbvs	r1!, {r0, r1, r5, r6, fp, sp, lr}^
  24:	72612f6e 	rsbvc	r2, r1, #440	@ 0x1b8
  28:	34312d6d 	ldrtcc	r2, [r1], #-3437	@ 0xfffff293
  2c:	6975622f 	ldmdbvs	r5!, {r0, r1, r2, r3, r5, r9, sp, lr}^
  30:	612d646c 			@ <UNDEFINED> instruction: 0x612d646c
  34:	6e2d6d72 	mcrvs	13, 1, r6, cr13, cr2, {3}
  38:	2d656e6f 	stclcs	14, cr6, [r5, #-444]!	@ 0xfffffe44
  3c:	69626165 	stmdbvs	r2!, {r0, r2, r5, r6, r8, sp, lr}^
  40:	6a626f2f 	bvs	189bd04 <__max_heap_size+0x189b904>
  44:	77656e2f 	strbvc	r6, [r5, -pc, lsr #28]!
  48:	2d62696c 			@ <UNDEFINED> instruction: 0x2d62696c
  4c:	6f6e616e 	svcvs	0x006e616e
  50:	6d72612f 	ldclvs	1, cr6, [r2, #-188]!	@ 0xffffff44
  54:	6e6f6e2d 	cdpvs	14, 6, cr6, cr15, cr13, {1}
  58:	61652d65 	cmnvs	r5, r5, ror #26
  5c:	742f6962 	strtvc	r6, [pc], #-2402	@ 64 <__max_stack_size-0x19c>
  60:	626d7568 	rsbvs	r7, sp, #104, 10	@ 0x1a000000
  64:	6537762f 	ldrvs	r7, [r7, #-1583]!	@ 0xfffff9d1
  68:	662b6d2d 	strtvs	r6, [fp], -sp, lsr #26
  6c:	61682f70 	cmnvs	r8, r0, ror pc
  70:	6c2f6472 	stcvs	4, cr6, [pc], #-456	@ fffffeb0 <_estack+0xdffe7eb0>
  74:	6c676269 	stclvs	2, cr6, [r7], #-420	@ 0xfffffe5c
  78:	0073736f 	rsbseq	r7, r3, pc, ror #6
  7c:	7461642f 	strbtvc	r6, [r1], #-1071	@ 0xfffffbd1
  80:	656a2f61 	strbvs	r2, [sl, #-3937]!	@ 0xfffff09f
  84:	6e696b6e 	vnmulvs.f64	d22, d9, d30
  88:	6f772f73 	svcvs	0x00772f73
  8c:	70736b72 	rsbsvc	r6, r3, r2, ror fp
  90:	2f656361 	svccs	0x00656361
  94:	2d554e47 	ldclcs	14, cr4, [r5, #-284]	@ 0xfffffee4
  98:	6c6f6f74 	stclvs	15, cr6, [pc], #-464	@ fffffed0 <_estack+0xdffe7ed0>
  9c:	69616863 	stmdbvs	r1!, {r0, r1, r5, r6, fp, sp, lr}^
  a0:	72612f6e 	rsbvc	r2, r1, #440	@ 0x1b8
  a4:	34312d6d 	ldrtcc	r2, [r1], #-3437	@ 0xfffff293
  a8:	6372732f 	cmnvs	r2, #-1140850688	@ 0xbc000000
  ac:	77656e2f 	strbvc	r6, [r5, -pc, lsr #28]!
  b0:	2d62696c 			@ <UNDEFINED> instruction: 0x2d62696c
  b4:	77677963 	strbvc	r7, [r7, -r3, ror #18]!
  b8:	6c2f6e69 	stcvs	14, cr6, [pc], #-420	@ ffffff1c <_estack+0xdffe7f1c>
  bc:	6c676269 	stclvs	2, cr6, [r7], #-420	@ 0xfffffe5c
  c0:	2f73736f 	svccs	0x0073736f
  c4:	006d7261 	rsbeq	r7, sp, r1, ror #4
  c8:	30747263 	rsbscc	r7, r4, r3, ror #4
  cc:	Address 0xcc is out of bounds.


Disassembly of section .debug_info:

00000000 <.debug_info>:
   0:	000000b8 	strheq	r0, [r0], -r8
   4:	04010005 	streq	r0, [r1], #-5
   8:	00000000 	andeq	r0, r0, r0
   c:	0031e803 	eorseq	lr, r1, r3, lsl #16
  10:	27f61d00 	ldrbcs	r1, [r6, r0, lsl #26]!
  14:	0dfe0000 	ldcleq	0, cr0, [lr]
  18:	01cc0000 	biceq	r0, ip, r0
  1c:	005c0800 	subseq	r0, ip, r0, lsl #16
	...
  28:	01010000 	mrseq	r0, (UNDEF: 1)
  2c:	002ab306 	eoreq	fp, sl, r6, lsl #6
  30:	08010100 	stmdaeq	r1, {r8}
  34:	00002cce 	andeq	r2, r0, lr, asr #25
  38:	0d050201 	stceq	2, cr0, [r5, #-4]
  3c:	01000007 	tsteq	r0, r7
  40:	057b0702 	ldrbeq	r0, [fp, #-1794]!	@ 0xfffff8fe
  44:	04010000 	streq	r0, [r1], #-0
  48:	00292505 	eoreq	r2, r9, r5, lsl #10
  4c:	329f0200 	addscc	r0, pc, #0, 4
  50:	4f020000 	svcmi	0x00020000
  54:	00005919 	andeq	r5, r0, r9, lsl r9
  58:	07040100 	streq	r0, [r4, -r0, lsl #2]
  5c:	0000261f 	andeq	r2, r0, pc, lsl r6
  60:	23050801 	tstcs	r5, #65536	@ 0x10000
  64:	01000023 	tsteq	r0, r3, lsr #32
  68:	373d0708 	ldrcc	r0, [sp, -r8, lsl #14]!
  6c:	04040000 	streq	r0, [r4], #-0
  70:	746e6905 	strbtvc	r6, [lr], #-2309	@ 0xfffff6fb
  74:	006e0500 	rsbeq	r0, lr, r0, lsl #10
  78:	04010000 	streq	r0, [r1], #-0
  7c:	00342507 	eorseq	r2, r4, r7, lsl #10
  80:	32a10200 	adccc	r0, r1, #0, 4
  84:	30030000 	andcc	r0, r3, r0
  88:	00004d14 	andeq	r4, r0, r4, lsl sp
  8c:	2f820600 	svccs	0x00820600
  90:	14010000 	strne	r0, [r1], #-0
  94:	00006e05 	andeq	r6, r0, r5, lsl #28
  98:	0001cc00 	andeq	ip, r1, r0, lsl #24
  9c:	00005c08 	andeq	r5, r0, r8, lsl #24
  a0:	079c0100 	ldreq	r0, [ip, r0, lsl #2]
  a4:	08000202 	stmdaeq	r0, {r1, r9}
  a8:	00000014 	andeq	r0, r0, r4, lsl r0
  ac:	01006908 	tsteq	r0, r8, lsl #18
  b0:	00751b1f 	rsbseq	r1, r5, pc, lsl fp
  b4:	91020000 	mrsls	r0, (UNDEF: 2)
  b8:	00000074 	andeq	r0, r0, r4, ror r0
  bc:	0000019c 	muleq	r0, ip, r1
  c0:	04010005 	streq	r0, [r1], #-5
  c4:	00000075 	andeq	r0, r0, r5, ror r0
  c8:	0031e806 	eorseq	lr, r1, r6, lsl #16
  cc:	3cc81d00 	stclcc	13, cr1, [r8], {0}
  d0:	0dfe0000 	ldcleq	0, cr0, [lr]
  d4:	02280000 	eoreq	r0, r8, #0
  d8:	008c0800 	addeq	r0, ip, r0, lsl #16
  dc:	02430000 	subeq	r0, r3, #0
  e0:	0fab0000 	svceq	0x00ab0000
  e4:	01010000 	mrseq	r0, (UNDEF: 1)
  e8:	002ab306 	eoreq	fp, sl, r6, lsl #6
  ec:	3d7d0400 	ldclcc	4, cr0, [sp, #-0]
  f0:	2b020000 	blcs	800f8 <__max_heap_size+0x7fcf8>
  f4:	00003d18 	andeq	r3, r0, r8, lsl sp
  f8:	08010100 	stmdaeq	r1, {r8}
  fc:	00002cce 	andeq	r2, r0, lr, asr #25
 100:	0d050201 	stceq	2, cr0, [r5, #-4]
 104:	01000007 	tsteq	r0, r7
 108:	057b0702 	ldrbeq	r0, [fp, #-1794]!	@ 0xfffff8fe
 10c:	04010000 	streq	r0, [r1], #-0
 110:	00292505 	eoreq	r2, r9, r5, lsl #10
 114:	329f0400 	addscc	r0, pc, #0, 8
 118:	4f020000 	svcmi	0x00020000
 11c:	00006519 	andeq	r6, r0, r9, lsl r5
 120:	07040100 	streq	r0, [r4, -r0, lsl #2]
 124:	0000261f 	andeq	r2, r0, pc, lsl r6
 128:	23050801 	tstcs	r5, #65536	@ 0x10000
 12c:	01000023 	tsteq	r0, r3, lsr #32
 130:	373d0708 	ldrcc	r0, [sp, -r8, lsl #14]!
 134:	04070000 	streq	r0, [r7], #-0
 138:	746e6905 	strbtvc	r6, [lr], #-2309	@ 0xfffff6fb
 13c:	07040100 	streq	r0, [r4, -r0, lsl #2]
 140:	00003425 	andeq	r3, r0, r5, lsr #8
 144:	003d7f04 	eorseq	r7, sp, r4, lsl #30
 148:	13180300 	tstne	r8, #0, 6
 14c:	00000031 	andeq	r0, r0, r1, lsr r0
 150:	0032a104 	eorseq	sl, r2, r4, lsl #2
 154:	14300300 	ldrtne	r0, [r0], #-768	@ 0xfffffd00
 158:	00000059 	andeq	r0, r0, r9, asr r0
 15c:	00009405 	andeq	r9, r0, r5, lsl #8
 160:	3d870200 	stccc	2, cr0, [r7]
 164:	94190000 	ldrls	r0, [r9], #-0
 168:	02000000 	andeq	r0, r0, #0
 16c:	00003d76 	andeq	r3, r0, r6, ror sp
 170:	00009421 	andeq	r9, r0, r1, lsr #8
 174:	3cae0200 	stccc	2, cr0, [lr]
 178:	94290000 	strtls	r0, [r9], #-0
 17c:	02000000 	andeq	r0, r0, #0
 180:	00003cbc 			@ <UNDEFINED> instruction: 0x00003cbc
 184:	00009438 	andeq	r9, r0, r8, lsr r4
 188:	3d040200 	stccc	2, cr0, [r4, #-0]
 18c:	94450000 	strbls	r0, [r5], #-0
 190:	08000000 	stmdaeq	r0, {}	@ <UNPREDICTABLE>
 194:	000000a0 	andeq	r0, r0, r0, lsr #1
 198:	000000e7 	andeq	r0, r0, r7, ror #1
 19c:	00008109 	andeq	r8, r0, r9, lsl #2
 1a0:	05005300 	streq	r5, [r0, #-768]	@ 0xfffffd00
 1a4:	000000d7 			@ <UNDEFINED> instruction: 0x000000d7
 1a8:	003d240a 	eorseq	r2, sp, sl, lsl #8
 1ac:	13560100 	cmpne	r6, #0, 2
 1b0:	000000e7 	andeq	r0, r0, r7, ror #1
 1b4:	00000305 	andeq	r0, r0, r5, lsl #6
 1b8:	820b0800 	andhi	r0, fp, #0, 16
 1bc:	0100002f 	tsteq	r0, pc, lsr #32
 1c0:	007a0c0c 	rsbseq	r0, sl, ip, lsl #24
 1c4:	a50c0000 	strge	r0, [ip, #-0]
 1c8:	0100003d 	tsteq	r0, sp, lsr r0
 1cc:	140d0d0d 	strne	r0, [sp], #-3341	@ 0xfffff2f3
 1d0:	0100003d 	tsteq	r0, sp, lsr r0
 1d4:	02ac1cc3 	adceq	r1, ip, #49920	@ 0xc300
 1d8:	00080800 	andeq	r0, r8, r0, lsl #16
 1dc:	9c010000 	stcls	0, cr0, [r1], {-0}
 1e0:	003d520e 	eorseq	r5, sp, lr, lsl #4
 1e4:	1ca10100 	stcne	1, cr0, [r1]
 1e8:	08000228 	stmdaeq	r0, {r3, r5, r9}
 1ec:	00000084 	andeq	r0, r0, r4, lsl #1
 1f0:	01999c01 	orrseq	r9, r9, r1, lsl #24
 1f4:	2f030000 	svccs	0x00030000
 1f8:	a4000046 	strge	r0, [r0], #-70	@ 0xffffffba
 1fc:	0000940e 	andeq	r9, r0, lr, lsl #8
 200:	64910200 	ldrvs	r0, [r1], #512	@ 0x200
 204:	003d0c03 	eorseq	r0, sp, r3, lsl #24
 208:	990ea700 	stmdbls	lr, {r8, r9, sl, sp, pc}
 20c:	02000001 	andeq	r0, r0, #1
 210:	a6037491 			@ <UNDEFINED> instruction: 0xa6037491
 214:	a800003c 	stmdage	r0, {r2, r3, r4, r5}
 218:	0001990e 	andeq	r9, r1, lr, lsl #18
 21c:	70910200 	addsvc	r0, r1, r0, lsl #4
 220:	00023e0f 	andeq	r3, r2, pc, lsl #28
 224:	00002408 	andeq	r2, r0, r8, lsl #8
 228:	00018000 	andeq	r8, r1, r0
 22c:	3cfc0300 	ldclcc	3, cr0, [ip]
 230:	13aa0000 			@ <UNDEFINED> instruction: 0x13aa0000
 234:	00000094 	muleq	r0, r4, r0
 238:	006c9102 	rsbeq	r9, ip, r2, lsl #2
 23c:	00026e10 	andeq	r6, r2, r0, lsl lr
 240:	00001e08 	andeq	r1, r0, r8, lsl #28
 244:	3cfc0300 	ldclcc	3, cr0, [ip]
 248:	13b40000 			@ <UNDEFINED> instruction: 0x13b40000
 24c:	00000094 	muleq	r0, r4, r0
 250:	00689102 	rsbeq	r9, r8, r2, lsl #2
 254:	88041100 	stmdahi	r4, {r8, ip}
 258:	00000000 	andeq	r0, r0, r0
 25c:	0000059c 	muleq	r0, ip, r5
 260:	04010005 	streq	r0, [r1], #-5
 264:	0000017c 	andeq	r0, r0, ip, ror r1
 268:	0031e80b 	eorseq	lr, r1, fp, lsl #16
 26c:	754f1d00 	strbvc	r1, [pc, #-3328]	@ fffff574 <_estack+0xdffe7574>
 270:	0dfe0000 	ldcleq	0, cr0, [lr]
 274:	02b40000 	adcseq	r0, r4, #0
 278:	014e0800 	cmpeq	lr, r0, lsl #16
 27c:	04b80000 	ldrteq	r0, [r8], #0
 280:	102c0000 	eorne	r0, ip, r0
 284:	040c0000 	streq	r0, [ip], #-0
 288:	746e6905 	strbtvc	r6, [lr], #-2309	@ 0xfffff6fb
 28c:	6de60100 	stclvs	1, cr0, [r6]
 290:	d6020000 	strle	r0, [r2], -r0
 294:	00003d17 	andeq	r3, r0, r7, lsl sp
 298:	07040400 	streq	r0, [r4, -r0, lsl #8]
 29c:	00003425 	andeq	r3, r0, r5, lsr #8
 2a0:	23050804 	tstcs	r5, #4, 16	@ 0x40000
 2a4:	04000023 	streq	r0, [r0], #-35	@ 0xffffffdd
 2a8:	3ee20408 	cdpcc	4, 14, cr0, cr2, cr8, {0}
 2ac:	01040000 	mrseq	r0, (UNDEF: 4)
 2b0:	002ab306 	eoreq	fp, sl, r6, lsl #6
 2b4:	3d7d0100 	ldclcc	1, cr0, [sp, #-0]
 2b8:	2b030000 	blcs	c02c0 <__max_heap_size+0xbfec0>
 2bc:	00006518 	andeq	r6, r0, r8, lsl r5
 2c0:	08010400 	stmdaeq	r1, {sl}
 2c4:	00002cce 	andeq	r2, r0, lr, asr #25
 2c8:	0d050204 	stceq	2, cr0, [r5, #-16]
 2cc:	04000007 	streq	r0, [r0], #-7
 2d0:	057b0702 	ldrbeq	r0, [fp, #-1794]!	@ 0xfffff8fe
 2d4:	04040000 	streq	r0, [r4], #-0
 2d8:	00292505 	eoreq	r2, r9, r5, lsl #10
 2dc:	329f0100 	addscc	r0, pc, #0, 2
 2e0:	4f030000 	svcmi	0x00030000
 2e4:	00008d19 	andeq	r8, r0, r9, lsl sp
 2e8:	07040400 	streq	r0, [r4, -r0, lsl #8]
 2ec:	0000261f 	andeq	r2, r0, pc, lsl r6
 2f0:	3d070804 	stccc	8, cr0, [r7, #-16]
 2f4:	01000037 	tsteq	r0, r7, lsr r0
 2f8:	0000486e 	andeq	r4, r0, lr, ror #16
 2fc:	441ec803 	ldrmi	ip, [lr], #-2051	@ 0xfffff7fd
 300:	01000000 	mrseq	r0, (UNDEF: 0)
 304:	00005c72 	andeq	r5, r0, r2, ror ip
 308:	2a19e603 	bcs	679b1c <__max_heap_size+0x67971c>
 30c:	01000000 	mrseq	r0, (UNDEF: 0)
 310:	00003d7f 	andeq	r3, r0, pc, ror sp
 314:	59131804 	ldmdbpl	r3, {r2, fp, ip}
 318:	01000000 	mrseq	r0, (UNDEF: 0)
 31c:	00005c74 	andeq	r5, r0, r4, ror ip
 320:	a7144d04 	ldrge	r4, [r4, -r4, lsl #26]
 324:	01000000 	mrseq	r0, (UNDEF: 0)
 328:	00005ffb 			@ <UNDEFINED> instruction: 0x00005ffb
 32c:	7a0e1e05 	bvc	387b48 <__max_heap_size+0x387748>
 330:	01000000 	mrseq	r0, (UNDEF: 0)
 334:	0000496a 	andeq	r4, r0, sl, ror #18
 338:	7a0e2205 	bvc	388b54 <__max_heap_size+0x388754>
 33c:	01000000 	mrseq	r0, (UNDEF: 0)
 340:	0000559f 	muleq	r0, pc, r5	@ <UNPREDICTABLE>
 344:	7a0e2e05 	bvc	38bb60 <__max_heap_size+0x38b760>
 348:	01000000 	mrseq	r0, (UNDEF: 0)
 34c:	00006c4f 	andeq	r6, r0, pc, asr #24
 350:	2a0d3405 	bcs	34d36c <__max_heap_size+0x34cf6c>
 354:	01000000 	mrseq	r0, (UNDEF: 0)
 358:	000044b1 			@ <UNDEFINED> instruction: 0x000044b1
 35c:	6c0f3805 	stcvs	8, cr3, [pc], {5}
 360:	01000000 	mrseq	r0, (UNDEF: 0)
 364:	00007be7 	andeq	r7, r0, r7, ror #23
 368:	73183c05 	tstvc	r8, #1280	@ 0x500
 36c:	01000000 	mrseq	r0, (UNDEF: 0)
 370:	00007b71 	andeq	r7, r0, r1, ror fp
 374:	73183f05 	tstvc	r8, #5, 30
 378:	01000000 	mrseq	r0, (UNDEF: 0)
 37c:	00005d0b 	andeq	r5, r0, fp, lsl #26
 380:	73184b05 	tstvc	r8, #5120	@ 0x1400
 384:	01000000 	mrseq	r0, (UNDEF: 0)
 388:	000050fb 			@ <UNDEFINED> instruction: 0x000050fb
 38c:	81145a05 	tsthi	r4, r5, lsl #20
 390:	01000000 	mrseq	r0, (UNDEF: 0)
 394:	0000559e 	muleq	r0, lr, r5
 398:	e3106605 	tst	r0, #5242880	@ 0x500000
 39c:	01000000 	mrseq	r0, (UNDEF: 0)
 3a0:	00003e3f 	andeq	r3, r0, pc, lsr lr
 3a4:	2a179305 	bcs	5e4fc0 <__max_heap_size+0x5e4bc0>
 3a8:	0d000000 	stceq	0, cr0, [r0, #-0]
 3ac:	815f0104 	cmphi	pc, r4, lsl #2
 3b0:	d5050000 	strle	r0, [r5, #-0]
 3b4:	00007318 	andeq	r7, r0, r8, lsl r3
 3b8:	08010400 	stmdaeq	r1, {sl}
 3bc:	00002aba 			@ <UNDEFINED> instruction: 0x00002aba
 3c0:	005ffd01 	subseq	pc, pc, r1, lsl #26
 3c4:	14610600 	strbtne	r0, [r1], #-1536	@ 0xfffffa00
 3c8:	000000cb 	andeq	r0, r0, fp, asr #1
 3cc:	00496c01 	subeq	r6, r9, r1, lsl #24
 3d0:	15660600 	strbne	r0, [r6, #-1536]!	@ 0xfffffa00
 3d4:	000000d7 			@ <UNDEFINED> instruction: 0x000000d7
 3d8:	00411401 	subeq	r1, r1, r1, lsl #8
 3dc:	12710600 	rsbsne	r0, r1, #0, 12
 3e0:	0000009b 	muleq	r0, fp, r0
 3e4:	005d0d01 	subseq	r0, sp, r1, lsl #26
 3e8:	12890600 	addne	r0, r9, #0, 12
 3ec:	0000011f 	andeq	r0, r0, pc, lsl r1
 3f0:	0055a001 	subseq	sl, r5, r1
 3f4:	129b0600 	addsne	r0, fp, #0, 12
 3f8:	00000137 	andeq	r0, r0, r7, lsr r1
 3fc:	0044b301 	subeq	fp, r4, r1, lsl #6
 400:	129f0600 	addsne	r0, pc, #0, 12
 404:	000000fb 			@ <UNDEFINED> instruction: 0x000000fb
 408:	007be901 	rsbseq	lr, fp, r1, lsl #18
 40c:	12a30600 	adcne	r0, r3, #0, 12
 410:	00000107 	andeq	r0, r0, r7, lsl #2
 414:	007b7301 	rsbseq	r7, fp, r1, lsl #6
 418:	12a70600 	adcne	r0, r7, #0, 12
 41c:	00000113 	andeq	r0, r0, r3, lsl r1
 420:	006c5101 	rsbeq	r5, ip, r1, lsl #2
 424:	12ac0600 	adcne	r0, ip, #0, 12
 428:	000000ef 	andeq	r0, r0, pc, ror #1
 42c:	003e4001 	eorseq	r4, lr, r1
 430:	12b60600 	adcsne	r0, r6, #0, 12
 434:	00000143 	andeq	r0, r0, r3, asr #2
 438:	0050fd01 	subseq	pc, r0, r1, lsl #26
 43c:	12bb0600 	adcsne	r0, fp, #0, 12
 440:	0000012b 	andeq	r0, r0, fp, lsr #2
 444:	00816101 	addeq	r6, r1, r1, lsl #2
 448:	13c00600 	bicne	r0, r0, #0, 12
 44c:	00000151 	andeq	r0, r0, r1, asr r1
 450:	006d0109 	rsbeq	r0, sp, r9, lsl #2
 454:	2f071000 	svccs	0x00071000
 458:	0000021b 	andeq	r0, r0, fp, lsl r2
 45c:	00402102 	subeq	r2, r0, r2, lsl #2
 460:	09300700 	ldmdbeq	r0!, {r8, r9, sl}
 464:	0000017c 	andeq	r0, r0, ip, ror r1
 468:	60190200 	andsvs	r0, r9, r0, lsl #4
 46c:	31070000 	mrscc	r0, (UNDEF: 7)
 470:	00007a07 	andeq	r7, r0, r7, lsl #20
 474:	09000800 	stmdbeq	r0, {fp}
 478:	0000739a 	muleq	r0, sl, r3
 47c:	de1b0858 	mrcle	8, 0, r0, cr11, cr8, {2}
 480:	02000002 	andeq	r0, r0, #2
 484:	00006c99 	muleq	r0, r9, ip
 488:	a00a1d08 	andge	r1, sl, r8, lsl #26
 48c:	00000001 	andeq	r0, r0, r1
 490:	00811802 	addeq	r1, r1, r2, lsl #16
 494:	0a1e0800 	beq	78249c <__max_heap_size+0x78209c>
 498:	00000188 	andeq	r0, r0, r8, lsl #3
 49c:	7bdf0202 	blvc	ff7c0cac <_estack+0xdf7a8cac>
 4a0:	1f080000 	svcne	0x00080000
 4a4:	0001dc0a 	andeq	sp, r1, sl, lsl #24
 4a8:	ad020400 	stcge	4, cr0, [r2, #-0]
 4ac:	08000053 	stmdaeq	r0, {r0, r1, r4, r6}
 4b0:	01e80b20 	mvneq	r0, r0, lsr #22
 4b4:	02080000 	andeq	r0, r8, #0
 4b8:	000049ec 	andeq	r4, r0, ip, ror #19
 4bc:	ac0a2108 	stcge	1, cr2, [sl], {8}
 4c0:	0a000001 	beq	4cc <__max_heap_size+0xcc>
 4c4:	00570d02 	subseq	r0, r7, r2, lsl #26
 4c8:	0a220800 	beq	8824d0 <__max_heap_size+0x8820d0>
 4cc:	000001b8 			@ <UNDEFINED> instruction: 0x000001b8
 4d0:	4b94020c 	blmi	fe500d08 <_estack+0xde4e8d08>
 4d4:	23080000 	tstcs	r8, #0
 4d8:	0001a00a 	andeq	sl, r1, sl
 4dc:	2c020e00 	stccs	14, cr0, [r2], {-0}
 4e0:	08000046 	stmdaeq	r0, {r1, r2, r6}
 4e4:	01940a24 	orrseq	r0, r4, r4, lsr #20
 4e8:	02100000 	andseq	r0, r0, #0
 4ec:	000083df 			@ <UNDEFINED> instruction: 0x000083df
 4f0:	f4132a08 			@ <UNDEFINED> instruction: 0xf4132a08
 4f4:	18000001 	stmdane	r0, {r0}
 4f8:	00410c02 	subeq	r0, r1, r2, lsl #24
 4fc:	132b0800 			@ <UNDEFINED> instruction: 0x132b0800
 500:	000001f4 			@ <UNDEFINED> instruction: 0x000001f4
 504:	3ebe0228 	cdpcc	2, 11, cr0, cr14, cr8, {1}
 508:	2c080000 	stccs	0, cr0, [r8], {-0}
 50c:	0001f413 	andeq	pc, r1, r3, lsl r4	@ <UNPREDICTABLE>
 510:	fa023800 			@ <UNDEFINED> instruction: 0xfa023800
 514:	0800005c 	stmdaeq	r0, {r2, r3, r4, r6}
 518:	0170112d 	cmneq	r0, sp, lsr #2
 51c:	02480000 	subeq	r0, r8, #0
 520:	00003ef4 			@ <UNDEFINED> instruction: 0x00003ef4
 524:	640c2e08 	strvs	r2, [ip], #-3592	@ 0xfffff1f8
 528:	4c000001 	stcmi	0, cr0, [r0], {1}
 52c:	0049f302 	subeq	pc, r9, r2, lsl #6
 530:	09300800 	ldmdbeq	r0!, {fp}
 534:	000002de 			@ <UNDEFINED> instruction: 0x000002de
 538:	7a0e0050 	bvc	380680 <__max_heap_size+0x380280>
 53c:	ee000000 	cdp	0, 0, cr0, cr0, cr0, {0}
 540:	0f000002 	svceq	0x00000002
 544:	0000003d 	andeq	r0, r0, sp, lsr r0
 548:	300a0001 	andcc	r0, sl, r1
 54c:	08000078 	stmdaeq	r0, {r3, r4, r5, r6}
 550:	000000b3 	strheq	r0, [r0], -r3
 554:	00794d0a 	rsbseq	r4, r9, sl, lsl #26
 558:	00b30900 	adcseq	r0, r3, r0, lsl #18
 55c:	49070000 	stmdbmi	r7, {}	@ <UNPREDICTABLE>
 560:	0b000079 	bleq	74c <__max_heap_size+0x34c>
 564:	00031311 	andeq	r1, r3, r1, lsl r3
 568:	00030500 	andeq	r0, r3, r0, lsl #10
 56c:	08200000 	stmdaeq	r0!, {}	@ <UNPREDICTABLE>
 570:	000000b3 	strheq	r0, [r0], -r3
 574:	006b5605 	rsbeq	r5, fp, r5, lsl #12
 578:	2a056500 	bcs	159980 <__max_heap_size+0x159580>
 57c:	e8000000 	stmda	r0, {}	@ <UNPREDICTABLE>
 580:	1a080003 	bne	200594 <__max_heap_size+0x200194>
 584:	01000000 	mrseq	r0, (UNDEF: 0)
 588:	00034e9c 	muleq	r3, ip, lr
 58c:	5c0f0600 	stcpl	6, cr0, [pc], {-0}
 590:	0f650000 	svceq	0x00650000
 594:	0000002a 	andeq	r0, r0, sl, lsr #32
 598:	06749102 	ldrbteq	r9, [r4], -r2, lsl #2
 59c:	00007dfb 			@ <UNDEFINED> instruction: 0x00007dfb
 5a0:	002a1a65 	eoreq	r1, sl, r5, ror #20
 5a4:	91020000 	mrsls	r0, (UNDEF: 2)
 5a8:	09050070 	stmdbeq	r5, {r4, r5, r6}
 5ac:	5f00006f 	svcpl	0x0000006f
 5b0:	00002a05 	andeq	r2, r0, r5, lsl #20
 5b4:	0003d000 	andeq	sp, r3, r0
 5b8:	00001808 	andeq	r1, r0, r8, lsl #16
 5bc:	769c0100 	ldrvc	r0, [ip], r0, lsl #2
 5c0:	06000003 	streq	r0, [r0], -r3
 5c4:	00005c0f 	andeq	r5, r0, pc, lsl #24
 5c8:	002a0e5f 	eoreq	r0, sl, pc, asr lr
 5cc:	91020000 	mrsls	r0, (UNDEF: 2)
 5d0:	85050074 	strhi	r0, [r5, #-116]	@ 0xffffff8c
 5d4:	58000043 	stmdapl	r0, {r0, r1, r6}
 5d8:	00002a05 	andeq	r2, r0, r5, lsl #20
 5dc:	0003b400 	andeq	fp, r3, r0, lsl #8
 5e0:	00001c08 	andeq	r1, r0, r8, lsl #24
 5e4:	ac9c0100 	ldcge	1, cr0, [ip], {0}
 5e8:	03000003 	tsteq	r0, #3
 5ec:	58006466 	stmdapl	r0, {r1, r2, r5, r6, sl, sp, lr}
 5f0:	00002a10 	andeq	r2, r0, r0, lsl sl
 5f4:	6c910200 	ldcvs	2, cr0, [r1], {0}
 5f8:	646d6303 	strbtvs	r6, [sp], #-771	@ 0xfffffcfd
 5fc:	2a185800 	bcs	616604 <__max_heap_size+0x616204>
 600:	02000000 	andeq	r0, r0, #0
 604:	00107491 	mulseq	r0, r1, r4
 608:	006c5705 	rsbeq	r5, ip, r5, lsl #14
 60c:	2a055100 	bcs	154a14 <__max_heap_size+0x154614>
 610:	9a000000 	bls	618 <__max_heap_size+0x218>
 614:	1a080003 	bne	200628 <__max_heap_size+0x200228>
 618:	01000000 	mrseq	r0, (UNDEF: 0)
 61c:	0003e29c 	muleq	r3, ip, r2
 620:	69700300 	ldmdbvs	r0!, {r8, r9}^
 624:	11510064 	cmpne	r1, r4, rrx
 628:	000001c4 	andeq	r0, r0, r4, asr #3
 62c:	03749102 	cmneq	r4, #-2147483648	@ 0x80000000
 630:	00676973 	rsbeq	r6, r7, r3, ror r9
 634:	002a1a51 	eoreq	r1, sl, r1, asr sl
 638:	91020000 	mrsls	r0, (UNDEF: 2)
 63c:	f1050070 			@ <UNDEFINED> instruction: 0xf1050070
 640:	4b000048 	blmi	768 <__max_heap_size+0x368>
 644:	00002a05 	andeq	r2, r0, r5, lsl #20
 648:	00038400 	andeq	r8, r3, r0, lsl #8
 64c:	00001608 	andeq	r1, r0, r8, lsl #12
 650:	099c0100 	ldmibeq	ip, {r8}
 654:	03000004 	tsteq	r0, #4
 658:	4b006466 	blmi	197f8 <__max_heap_size+0x193f8>
 65c:	00002a11 	andeq	r2, r0, r1, lsl sl
 660:	74910200 	ldrvc	r0, [r1], #512	@ 0x200
 664:	73980500 	orrsvc	r0, r8, #0, 10
 668:	05440000 	strbeq	r0, [r4, #-0]
 66c:	0000002a 	andeq	r0, r0, sl, lsr #32
 670:	0800036c 	stmdaeq	r0, {r2, r3, r5, r6, r8, r9}
 674:	00000018 	andeq	r0, r0, r8, lsl r0
 678:	043e9c01 	ldrteq	r9, [lr], #-3073	@ 0xfffff3ff
 67c:	66030000 	strvs	r0, [r3], -r0
 680:	10440064 	subne	r0, r4, r4, rrx
 684:	0000002a 	andeq	r0, r0, sl, lsr #32
 688:	03749102 	cmneq	r4, #-2147483648	@ 0x80000000
 68c:	00667562 	rsbeq	r7, r6, r2, ror #10
 690:	043e2144 	ldrteq	r2, [lr], #-324	@ 0xfffffebc
 694:	91020000 	mrsls	r0, (UNDEF: 2)
 698:	1b080070 	blne	200860 <__max_heap_size+0x200460>
 69c:	05000002 	streq	r0, [r0, #-2]
 6a0:	0000801c 	andeq	r8, r0, ip, lsl r0
 6a4:	0194073c 	orrseq	r0, r4, ip, lsr r7
 6a8:	03520000 	cmpeq	r2, #0
 6ac:	001a0800 	andseq	r0, sl, r0, lsl #16
 6b0:	9c010000 	stcls	0, cr0, [r1], {-0}
 6b4:	00000486 	andeq	r0, r0, r6, lsl #9
 6b8:	00646603 	rsbeq	r6, r4, r3, lsl #12
 6bc:	002a123c 	eoreq	r1, sl, ip, lsr r2
 6c0:	91020000 	mrsls	r0, (UNDEF: 2)
 6c4:	66be0674 			@ <UNDEFINED> instruction: 0x66be0674
 6c8:	1c3c0000 	ldcne	0, cr0, [ip], #-0
 6cc:	00000194 	muleq	r0, r4, r1
 6d0:	06709102 	ldrbteq	r9, [r0], -r2, lsl #2
 6d4:	00004f65 	andeq	r4, r0, r5, ror #30
 6d8:	002a283c 	eoreq	r2, sl, ip, lsr r8
 6dc:	91020000 	mrsls	r0, (UNDEF: 2)
 6e0:	7205006c 	andvc	r0, r5, #108	@ 0x6c
 6e4:	3600006b 	strcc	r0, [r0], -fp, rrx
 6e8:	00002a05 	andeq	r2, r0, r5, lsl #20
 6ec:	00033c00 	andeq	r3, r3, r0, lsl #24
 6f0:	00001608 	andeq	r1, r0, r8, lsl #12
 6f4:	ad9c0100 	ldcge	1, cr0, [ip]
 6f8:	03000004 	tsteq	r0, #4
 6fc:	36006466 	strcc	r6, [r0], -r6, ror #8
 700:	00002a10 	andeq	r2, r0, r0, lsl sl
 704:	74910200 	ldrvc	r0, [r1], #512	@ 0x200
 708:	3f870500 	svccc	0x00870500
 70c:	092e0000 	stmdbeq	lr!, {}	@ <UNPREDICTABLE>
 710:	000001d0 			@ <UNDEFINED> instruction: 0x000001d0
 714:	08000322 	stmdaeq	r0, {r1, r5, r8, r9}
 718:	0000001a 	andeq	r0, r0, sl, lsl r0
 71c:	04f09c01 	ldrbteq	r9, [r0], #3073	@ 0xc01
 720:	66030000 	strvs	r0, [r3], -r0
 724:	142e0064 	strtne	r0, [lr], #-100	@ 0xffffff9c
 728:	0000002a 	andeq	r0, r0, sl, lsr #32
 72c:	03749102 	cmneq	r4, #-2147483648	@ 0x80000000
 730:	00667562 	rsbeq	r7, r6, r2, ror #10
 734:	04f0242e 	ldrbteq	r2, [r0], #1070	@ 0x42e
 738:	91020000 	mrsls	r0, (UNDEF: 2)
 73c:	63f00670 	mvnsvs	r0, #112, 12	@ 0x7000000
 740:	302e0000 	eorcc	r0, lr, r0
 744:	00000031 	andeq	r0, r0, r1, lsr r0
 748:	006c9102 	rsbeq	r9, ip, r2, lsl #2
 74c:	0004f508 	andeq	pc, r4, r8, lsl #10
 750:	ee051100 	cdp	1, 0, cr1, cr5, cr0, {0}
 754:	2600003e 			@ <UNDEFINED> instruction: 0x2600003e
 758:	0001d009 	andeq	sp, r1, r9
 75c:	00030800 	andeq	r0, r3, r0, lsl #16
 760:	00001a08 	andeq	r1, r0, r8, lsl #20
 764:	399c0100 	ldmibcc	ip, {r8}
 768:	03000005 	tsteq	r0, #5
 76c:	26006466 	strcs	r6, [r0], -r6, ror #8
 770:	00002a13 	andeq	r2, r0, r3, lsl sl
 774:	74910200 	ldrvc	r0, [r1], #512	@ 0x200
 778:	66756203 	ldrbtvs	r6, [r5], -r3, lsl #4
 77c:	4f1d2600 	svcmi	0x001d2600
 780:	02000001 	andeq	r0, r0, #1
 784:	f0067091 			@ <UNDEFINED> instruction: 0xf0067091
 788:	26000063 	strcs	r0, [r0], -r3, rrx
 78c:	00003129 	andeq	r3, r0, r9, lsr #2
 790:	6c910200 	ldcvs	2, cr0, [r1], {0}
 794:	641f1200 	ldrvs	r1, [pc], #-512	@ 79c <__max_heap_size+0x39c>
 798:	12090000 	andne	r0, r9, #0
 79c:	0002fc06 	andeq	pc, r2, r6, lsl #24
 7a0:	00000c08 	andeq	r0, r0, r8, lsl #24
 7a4:	5e9c0100 	cdppl	1, 9, cr0, cr12, cr0, {0}
 7a8:	06000005 	streq	r0, [r0], -r5
 7ac:	00005924 	andeq	r5, r0, r4, lsr #18
 7b0:	002a101e 	eoreq	r1, sl, lr, lsl r0
 7b4:	91020000 	mrsls	r0, (UNDEF: 2)
 7b8:	05130074 	ldreq	r0, [r3, #-116]	@ 0xffffff8c
 7bc:	0100005d 	tsteq	r0, sp, asr r0
 7c0:	014f070d 	cmpeq	pc, sp, lsl #14
 7c4:	02b40000 	adcseq	r0, r4, #0
 7c8:	00480800 	subeq	r0, r8, r0, lsl #16
 7cc:	9c010000 	stcls	0, cr0, [r1], {-0}
 7d0:	0064c406 	rsbeq	ip, r4, r6, lsl #8
 7d4:	bf160d00 	svclt	0x00160d00
 7d8:	02000000 	andeq	r0, r0, #0
 7dc:	4e076c91 	mcrmi	12, 0, r6, cr7, cr1, {4}
 7e0:	0f000079 	svceq	0x00000079
 7e4:	0003130e 	andeq	r1, r3, lr, lsl #6
 7e8:	74910200 	ldrvc	r0, [r1], #512	@ 0x200
 7ec:	00795707 	rsbseq	r5, r9, r7, lsl #14
 7f0:	130e1000 	tstne	lr, #0
 7f4:	02000003 	andeq	r0, r0, #3
 7f8:	00007091 	muleq	r0, r1, r0

Disassembly of section .debug_abbrev:

00000000 <.debug_abbrev>:
   0:	0b002401 	bleq	900c <__max_heap_size+0x8c0c>
   4:	030b3e0b 	tsteq	fp, #11, 28	@ 0xb0
   8:	0200000e 	andeq	r0, r0, #14
   c:	0e030016 	mcreq	0, 0, r0, cr3, cr6, {0}
  10:	0b3b0b3a 	bleq	ec2d00 <__max_heap_size+0xec2900>
  14:	13490b39 	cmpne	r9, #58368	@ 0xe400
  18:	11030000 	mrsne	r0, (UNDEF: 3)
  1c:	130e2501 	tstne	lr, #4194304	@ 0x400000
  20:	1b0e030b 	blne	380c54 <__max_heap_size+0x380854>
  24:	1201110e 	andne	r1, r1, #-2147483645	@ 0x80000003
  28:	79171006 	ldmdbvc	r7, {r1, r2, ip}
  2c:	04000017 	streq	r0, [r0], #-23	@ 0xffffffe9
  30:	0b0b0024 	bleq	2c00c8 <__max_heap_size+0x2bfcc8>
  34:	08030b3e 	stmdaeq	r3, {r1, r2, r3, r4, r5, r8, r9, fp}
  38:	35050000 	strcc	r0, [r5, #-0]
  3c:	00134900 	andseq	r4, r3, r0, lsl #18
  40:	012e0600 			@ <UNDEFINED> instruction: 0x012e0600
  44:	0e03193f 			@ <UNDEFINED> instruction: 0x0e03193f
  48:	0b3b0b3a 	bleq	ec2d38 <__max_heap_size+0xec2938>
  4c:	13490b39 	cmpne	r9, #58368	@ 0xe400
  50:	06120111 			@ <UNDEFINED> instruction: 0x06120111
  54:	197a1840 	ldmdbne	sl!, {r6, fp, ip}^
  58:	0b070000 	bleq	1c0060 <__max_heap_size+0x1bfc60>
  5c:	12011101 	andne	r1, r1, #1073741824	@ 0x40000000
  60:	08000006 	stmdaeq	r0, {r1, r2}
  64:	08030034 	stmdaeq	r3, {r2, r4, r5}
  68:	0b3b0b3a 	bleq	ec2d58 <__max_heap_size+0xec2958>
  6c:	13490b39 	cmpne	r9, #58368	@ 0xe400
  70:	00001802 	andeq	r1, r0, r2, lsl #16
  74:	00240100 	eoreq	r0, r4, r0, lsl #2
  78:	0b3e0b0b 	bleq	f82cac <__max_heap_size+0xf828ac>
  7c:	00000e03 	andeq	r0, r0, r3, lsl #28
  80:	03003402 	tsteq	r0, #33554432	@ 0x2000000
  84:	01213a0e 			@ <UNDEFINED> instruction: 0x01213a0e
  88:	390b213b 	stmdbcc	fp, {r0, r1, r3, r4, r5, r8, sp}
  8c:	3f13490b 	svccc	0x0013490b
  90:	00193c19 	andseq	r3, r9, r9, lsl ip
  94:	00340300 	eorseq	r0, r4, r0, lsl #6
  98:	213a0e03 	teqcs	sl, r3, lsl #28
  9c:	390b3b01 	stmdbcc	fp, {r0, r8, r9, fp, ip, sp}
  a0:	0213490b 	andseq	r4, r3, #180224	@ 0x2c000
  a4:	04000018 	streq	r0, [r0], #-24	@ 0xffffffe8
  a8:	0e030016 	mcreq	0, 0, r0, cr3, cr6, {0}
  ac:	0b3b0b3a 	bleq	ec2d9c <__max_heap_size+0xec299c>
  b0:	13490b39 	cmpne	r9, #58368	@ 0xe400
  b4:	35050000 	strcc	r0, [r5, #-0]
  b8:	00134900 	andseq	r4, r3, r0, lsl #18
  bc:	01110600 	tsteq	r1, r0, lsl #12
  c0:	0b130e25 	bleq	4c395c <__max_heap_size+0x4c355c>
  c4:	0e1b0e03 	cdpeq	14, 1, cr0, cr11, cr3, {0}
  c8:	06120111 			@ <UNDEFINED> instruction: 0x06120111
  cc:	17791710 			@ <UNDEFINED> instruction: 0x17791710
  d0:	24070000 	strcs	r0, [r7], #-0
  d4:	3e0b0b00 	vmlacc.f64	d0, d11, d0
  d8:	0008030b 	andeq	r0, r8, fp, lsl #6
  dc:	01010800 	tsteq	r1, r0, lsl #16
  e0:	13011349 	tstne	r1, #603979777	@ 0x24000001
  e4:	21090000 	mrscs	r0, (UNDEF: 9)
  e8:	2f134900 	svccs	0x00134900
  ec:	0a00000b 	beq	120 <__max_stack_size-0xe0>
  f0:	0e030034 	mcreq	0, 0, r0, cr3, cr4, {1}
  f4:	0b3b0b3a 	bleq	ec2de4 <__max_heap_size+0xec29e4>
  f8:	13490b39 	cmpne	r9, #58368	@ 0xe400
  fc:	1802193f 	stmdane	r2, {r0, r1, r2, r3, r4, r5, r8, fp, ip}
 100:	2e0b0000 	cdpcs	0, 0, cr0, cr11, cr0, {0}
 104:	03193f00 	tsteq	r9, #0, 30
 108:	3b0b3a0e 	blcc	2ce948 <__max_heap_size+0x2ce548>
 10c:	270b390b 	strcs	r3, [fp, -fp, lsl #18]
 110:	3c134919 			@ <UNDEFINED> instruction: 0x3c134919
 114:	0c000019 	stceq	0, cr0, [r0], {25}
 118:	193f002e 	ldmdbne	pc!, {r1, r2, r3, r5}	@ <UNPREDICTABLE>
 11c:	0b3a0e03 	bleq	e83930 <__max_heap_size+0xe83530>
 120:	0b390b3b 	bleq	e42e14 <__max_heap_size+0xe42a14>
 124:	193c1927 	ldmdbne	ip!, {r0, r1, r2, r5, r8, fp, ip}
 128:	2e0d0000 	cdpcs	0, 0, cr0, cr13, cr0, {0}
 12c:	03193f00 	tsteq	r9, #0, 30
 130:	3b0b3a0e 	blcc	2ce970 <__max_heap_size+0x2ce570>
 134:	270b390b 	strcs	r3, [fp, -fp, lsl #18]
 138:	12011119 	andne	r1, r1, #1073741830	@ 0x40000006
 13c:	7a184006 	bvc	61015c <__max_heap_size+0x60fd5c>
 140:	0e000019 	mcreq	0, 0, r0, cr0, cr9, {0}
 144:	193f012e 	ldmdbne	pc!, {r1, r2, r3, r5, r8}	@ <UNPREDICTABLE>
 148:	0b3a0e03 	bleq	e8395c <__max_heap_size+0xe8355c>
 14c:	0b390b3b 	bleq	e42e40 <__max_heap_size+0xe42a40>
 150:	01111927 	tsteq	r1, r7, lsr #18
 154:	18400612 	stmdane	r0, {r1, r4, r9, sl}^
 158:	1301197c 	tstne	r1, #124, 18	@ 0x1f0000
 15c:	0b0f0000 	bleq	3c0164 <__max_heap_size+0x3bfd64>
 160:	12011101 	andne	r1, r1, #1073741824	@ 0x40000000
 164:	00130106 	andseq	r0, r3, r6, lsl #2
 168:	010b1000 	mrseq	r1, (UNDEF: 11)
 16c:	06120111 			@ <UNDEFINED> instruction: 0x06120111
 170:	0f110000 	svceq	0x00110000
 174:	490b0b00 	stmdbmi	fp, {r8, r9, fp}
 178:	00000013 	andeq	r0, r0, r3, lsl r0
 17c:	03001601 	tsteq	r0, #1048576	@ 0x100000
 180:	3b0b3a0e 	blcc	2ce9c0 <__max_heap_size+0x2ce5c0>
 184:	490b390b 	stmdbmi	fp, {r0, r1, r3, r8, fp, ip, sp}
 188:	02000013 	andeq	r0, r0, #19
 18c:	0e03000d 	cdpeq	0, 0, cr0, cr3, cr13, {0}
 190:	0b3b0b3a 	bleq	ec2e80 <__max_heap_size+0xec2a80>
 194:	13490b39 	cmpne	r9, #58368	@ 0xe400
 198:	00000b38 	andeq	r0, r0, r8, lsr fp
 19c:	03000503 	tsteq	r0, #12582912	@ 0xc00000
 1a0:	01213a08 			@ <UNDEFINED> instruction: 0x01213a08
 1a4:	0b390b3b 	bleq	e42e98 <__max_heap_size+0xe42a98>
 1a8:	18021349 	stmdane	r2, {r0, r3, r6, r8, r9, ip}
 1ac:	24040000 	strcs	r0, [r4], #-0
 1b0:	3e0b0b00 	vmlacc.f64	d0, d11, d0
 1b4:	000e030b 	andeq	r0, lr, fp, lsl #6
 1b8:	012e0500 			@ <UNDEFINED> instruction: 0x012e0500
 1bc:	0e03193f 			@ <UNDEFINED> instruction: 0x0e03193f
 1c0:	3b01213a 	blcc	486b0 <__max_heap_size+0x482b0>
 1c4:	270b390b 	strcs	r3, [fp, -fp, lsl #18]
 1c8:	11134919 	tstne	r3, r9, lsl r9
 1cc:	40061201 	andmi	r1, r6, r1, lsl #4
 1d0:	01197a18 	tsteq	r9, r8, lsl sl
 1d4:	06000013 			@ <UNDEFINED> instruction: 0x06000013
 1d8:	0e030005 	cdpeq	0, 0, cr0, cr3, cr5, {0}
 1dc:	3b01213a 	blcc	486cc <__max_heap_size+0x482cc>
 1e0:	490b390b 	stmdbmi	fp, {r0, r1, r3, r8, fp, ip, sp}
 1e4:	00180213 	andseq	r0, r8, r3, lsl r2
 1e8:	00340700 	eorseq	r0, r4, r0, lsl #14
 1ec:	213a0e03 	teqcs	sl, r3, lsl #28
 1f0:	390b3b01 	stmdbcc	fp, {r0, r8, r9, fp, ip, sp}
 1f4:	0213490b 	andseq	r4, r3, #180224	@ 0x2c000
 1f8:	08000018 	stmdaeq	r0, {r3, r4}
 1fc:	210b000f 	tstcs	fp, pc
 200:	00134904 	andseq	r4, r3, r4, lsl #18
 204:	01130900 	tsteq	r3, r0, lsl #18
 208:	0b0b0e03 	bleq	2c3a1c <__max_heap_size+0x2c361c>
 20c:	0b3b0b3a 	bleq	ec2efc <__max_heap_size+0xec2afc>
 210:	01082139 	tsteq	r8, r9, lsr r1
 214:	0a000013 	beq	268 <__max_stack_size+0x68>
 218:	0e030034 	mcreq	0, 0, r0, cr3, cr4, {1}
 21c:	3b01213a 	blcc	4870c <__max_heap_size+0x4830c>
 220:	1021390b 	eorne	r3, r1, fp, lsl #18
 224:	193f1349 	ldmdbne	pc!, {r0, r3, r6, r8, r9, ip}	@ <UNPREDICTABLE>
 228:	0000193c 	andeq	r1, r0, ip, lsr r9
 22c:	2501110b 	strcs	r1, [r1, #-267]	@ 0xfffffef5
 230:	030b130e 	tsteq	fp, #939524096	@ 0x38000000
 234:	110e1b0e 	tstne	lr, lr, lsl #22
 238:	10061201 	andne	r1, r6, r1, lsl #4
 23c:	00177917 	andseq	r7, r7, r7, lsl r9
 240:	00240c00 	eoreq	r0, r4, r0, lsl #24
 244:	0b3e0b0b 	bleq	f82e78 <__max_heap_size+0xf82a78>
 248:	00000803 	andeq	r0, r0, r3, lsl #16
 24c:	0b000f0d 	bleq	3e88 <__max_heap_size+0x3a88>
 250:	0e00000b 	cdpeq	0, 0, cr0, cr0, cr11, {0}
 254:	13490101 	cmpne	r9, #1073741824	@ 0x40000000
 258:	00001301 	andeq	r1, r0, r1, lsl #6
 25c:	4900210f 	stmdbmi	r0, {r0, r1, r2, r3, r8, sp}
 260:	000b2f13 	andeq	r2, fp, r3, lsl pc
 264:	00181000 	andseq	r1, r8, r0
 268:	26110000 	ldrcs	r0, [r1], -r0
 26c:	12000000 	andne	r0, r0, #0
 270:	193f012e 	ldmdbne	pc!, {r1, r2, r3, r5, r8}	@ <UNPREDICTABLE>
 274:	0b3a0e03 	bleq	e83a88 <__max_heap_size+0xe83688>
 278:	0b390b3b 	bleq	e42f6c <__max_heap_size+0xe42b6c>
 27c:	01871927 	orreq	r1, r7, r7, lsr #18
 280:	12011119 	andne	r1, r1, #1073741830	@ 0x40000006
 284:	7a184006 	bvc	6102a4 <__max_heap_size+0x60fea4>
 288:	00130119 	andseq	r0, r3, r9, lsl r1
 28c:	012e1300 			@ <UNDEFINED> instruction: 0x012e1300
 290:	0e03193f 			@ <UNDEFINED> instruction: 0x0e03193f
 294:	0b3b0b3a 	bleq	ec2f84 <__max_heap_size+0xec2b84>
 298:	19270b39 	stmdbne	r7!, {r0, r3, r4, r5, r8, r9, fp}
 29c:	01111349 	tsteq	r1, r9, asr #6
 2a0:	18400612 	stmdane	r0, {r1, r4, r9, sl}^
 2a4:	0000197a 	andeq	r1, r0, sl, ror r9
	...

Disassembly of section .debug_aranges:

00000000 <.debug_aranges>:
   0:	0000001c 	andeq	r0, r0, ip, lsl r0
   4:	00000002 	andeq	r0, r0, r2
   8:	00040000 	andeq	r0, r4, r0
   c:	00000000 	andeq	r0, r0, r0
  10:	080001cc 	stmdaeq	r0, {r2, r3, r6, r7, r8}
  14:	0000005c 	andeq	r0, r0, ip, asr r0
	...
  20:	0000001c 	andeq	r0, r0, ip, lsl r0
  24:	00bc0002 	adcseq	r0, ip, r2
  28:	00040000 	andeq	r0, r4, r0
  2c:	00000000 	andeq	r0, r0, r0
  30:	08000228 	stmdaeq	r0, {r3, r5, r9}
  34:	0000008c 	andeq	r0, r0, ip, lsl #1
	...
  40:	0000001c 	andeq	r0, r0, ip, lsl r0
  44:	025c0002 	subseq	r0, ip, #2
  48:	00040000 	andeq	r0, r4, r0
  4c:	00000000 	andeq	r0, r0, r0
  50:	080002b4 	stmdaeq	r0, {r2, r4, r5, r7, r9}
  54:	0000014e 	andeq	r0, r0, lr, asr #2
	...

Disassembly of section .debug_macro:

00000000 <.debug_macro>:
       0:	00020005 	andeq	r0, r2, r5
       4:	07000000 	streq	r0, [r0, -r0]
       8:	000000a8 	andeq	r0, r0, r8, lsr #1
       c:	03010003 	tsteq	r1, #3
      10:	09030401 	stmdbeq	r3, {r0, sl}
      14:	0c0a0505 	stceq	5, cr0, [sl], {5}
      18:	0300000c 	tsteq	r0, #12
      1c:	0605020c 	streq	r0, [r5], -ip, lsl #4
      20:	000028e2 	andeq	r2, r0, r2, ror #17
      24:	05060803 	streq	r0, [r6, #-2051]	@ 0xfffff7fd
      28:	000fbb16 	andeq	fp, pc, r6, lsl fp	@ <UNPREDICTABLE>
      2c:	071c0300 	ldreq	r0, [ip, -r0, lsl #6]
      30:	000b7407 	andeq	r7, fp, r7, lsl #8
      34:	96070400 	strls	r0, [r7], -r0, lsl #8
      38:	0400000b 	streq	r0, [r0], #-11
      3c:	000bec07 	andeq	lr, fp, r7, lsl #24
      40:	0d030400 	stceq	4, cr0, [r3, #-0]
      44:	0c3d0708 	ldceq	7, cr0, [sp], #-32	@ 0xffffffe0
      48:	03040000 	tsteq	r4, #0
      4c:	4007030e 	andmi	r0, r7, lr, lsl #6
      50:	0400000d 	streq	r0, [r0], #-13
      54:	000daa07 	andeq	sl, sp, r7, lsl #20
      58:	0d050400 	stceq	4, cr0, [r5, #-0]
      5c:	00000c03 	andeq	r0, r0, r3, lsl #24
      60:	09020304 	stmdbeq	r2, {r2, r8, r9}
      64:	000f8907 	andeq	r8, pc, r7, lsl #18
      68:	04050400 	streq	r0, [r5], #-1024	@ 0xfffffc00
      6c:	0000158a 	andeq	r1, r0, sl, lsl #11
      70:	286a0505 	stmdacs	sl!, {r0, r2, r8, sl}^
      74:	07050000 	streq	r0, [r5, -r0]
      78:	00002e77 	andeq	r2, r0, r7, ror lr
      7c:	24ca0805 	strbcs	r0, [sl], #2053	@ 0x805
      80:	0a050000 	beq	140088 <__max_heap_size+0x13fc88>
      84:	00000857 	andeq	r0, r0, r7, asr r8
      88:	10e60c05 	rscne	r0, r6, r5, lsl #24
      8c:	0e050000 	cdpeq	0, 0, cr0, cr5, cr0, {0}
      90:	00002b9c 	muleq	r0, ip, fp
      94:	39620f05 	stmdbcc	r2!, {r0, r2, r8, r9, sl, fp}^
      98:	11050000 	mrsne	r0, (UNDEF: 5)
      9c:	00000303 	andeq	r0, r0, r3, lsl #6
      a0:	0e771205 	cdpeq	2, 7, cr1, cr7, cr5, {0}
      a4:	00040000 	andeq	r0, r4, r0
      a8:	05000005 	streq	r0, [r0, #-5]
      ac:	00212400 	eoreq	r2, r1, r0, lsl #8
      b0:	18000500 	stmdane	r0, {r8, sl}
      b4:	0500001c 	streq	r0, [r0, #-28]	@ 0xffffffe4
      b8:	0023c400 	eoreq	ip, r3, r0, lsl #8
      bc:	f1000500 			@ <UNDEFINED> instruction: 0xf1000500
      c0:	05000008 	streq	r0, [r0, #-8]
      c4:	0030ad00 	eorseq	sl, r0, r0, lsl #26
      c8:	af000500 	svcge	0x00000500
      cc:	0500000f 	streq	r0, [r0, #-15]
      d0:	00046d00 	andeq	r6, r4, r0, lsl #26
      d4:	a4000500 	strge	r0, [r0], #-1280	@ 0xfffffb00
      d8:	05000022 	streq	r0, [r0, #-34]	@ 0xffffffde
      dc:	001d3200 	andseq	r3, sp, r0, lsl #4
      e0:	ef000500 	svc	0x00000500
      e4:	05000009 	streq	r0, [r0, #-9]
      e8:	00078900 	andeq	r8, r7, r0, lsl #18
      ec:	c6000500 	strgt	r0, [r0], -r0, lsl #10
      f0:	05000020 	streq	r0, [r0, #-32]	@ 0xffffffe0
      f4:	0006c200 	andeq	ip, r6, r0, lsl #4
      f8:	d5000500 	strle	r0, [r0, #-1280]	@ 0xfffffb00
      fc:	05000031 	streq	r0, [r0, #-49]	@ 0xffffffcf
     100:	00218e00 	eoreq	r8, r1, r0, lsl #28
     104:	18000500 	stmdane	r0, {r8, sl}
     108:	0500001f 	streq	r0, [r0, #-31]	@ 0xffffffe1
     10c:	00365500 	eorseq	r5, r6, r0, lsl #10
     110:	3b000500 	blcc	1518 <__max_heap_size+0x1118>
     114:	05000007 	streq	r0, [r0, #-7]
     118:	002c8f00 	eoreq	r8, ip, r0, lsl #30
     11c:	b4000500 	strlt	r0, [r0], #-1280	@ 0xfffffb00
     120:	05000007 	streq	r0, [r0, #-7]
     124:	0037eb00 	eorseq	lr, r7, r0, lsl #22
     128:	90000500 	andls	r0, r0, r0, lsl #10
     12c:	05000022 	streq	r0, [r0, #-34]	@ 0xffffffde
     130:	00058e00 	andeq	r8, r5, r0, lsl #28
     134:	57000500 	strpl	r0, [r0, -r0, lsl #10]
     138:	05000005 	streq	r0, [r0, #-5]
     13c:	001e7200 	andseq	r7, lr, r0, lsl #4
     140:	f8000500 			@ <UNDEFINED> instruction: 0xf8000500
     144:	05000014 	streq	r0, [r0, #-20]	@ 0xffffffec
     148:	00156d00 	andseq	r6, r5, r0, lsl #26
     14c:	dc000500 	stcle	5, cr0, [r0], {-0}
     150:	05000005 	streq	r0, [r0, #-5]
     154:	00334e00 	eorseq	r4, r3, r0, lsl #28
     158:	80000500 	andhi	r0, r0, r0, lsl #10
     15c:	05000008 	streq	r0, [r0, #-8]
     160:	00252000 	eoreq	r2, r5, r0
     164:	13000500 	tstne	r0, #0, 10
     168:	0500002e 	streq	r0, [r0, #-46]	@ 0xffffffd2
     16c:	0039f300 	eorseq	pc, r9, r0, lsl #6
     170:	e2000500 	and	r0, r0, #0, 10
     174:	05000033 	streq	r0, [r0, #-51]	@ 0xffffffcd
     178:	00349a00 	eorseq	r9, r4, r0, lsl #20
     17c:	d5000500 	strle	r0, [r0, #-1280]	@ 0xfffffb00
     180:	05000006 	streq	r0, [r0, #-6]
     184:	0011eb00 	andseq	lr, r1, r0, lsl #22
     188:	00000500 	andeq	r0, r0, r0, lsl #10
     18c:	05000022 	streq	r0, [r0, #-34]	@ 0xffffffde
     190:	00366600 	eorseq	r6, r6, r0, lsl #12
     194:	77000500 	strvc	r0, [r0, -r0, lsl #10]
     198:	05000032 	streq	r0, [r0, #-50]	@ 0xffffffce
     19c:	00056b00 	andeq	r6, r5, r0, lsl #22
     1a0:	0f000500 	svceq	0x00000500
     1a4:	05000026 	streq	r0, [r0, #-38]	@ 0xffffffda
     1a8:	003b6300 	eorseq	r6, fp, r0, lsl #6
     1ac:	a5000500 	strge	r0, [r0, #-1280]	@ 0xfffffb00
     1b0:	0500002a 	streq	r0, [r0, #-42]	@ 0xffffffd6
     1b4:	0006fe00 	andeq	pc, r6, r0, lsl #28
     1b8:	16000500 	strne	r0, [r0], -r0, lsl #10
     1bc:	05000029 	streq	r0, [r0, #-41]	@ 0xffffffd7
     1c0:	00231400 	eoreq	r1, r3, r0, lsl #8
     1c4:	bf000500 	svclt	0x00000500
     1c8:	0500002c 	streq	r0, [r0, #-44]	@ 0xffffffd4
     1cc:	0016c200 	andseq	ip, r6, r0, lsl #4
     1d0:	be000500 	cdplt	5, 0, cr0, cr0, cr0, {0}
     1d4:	0500002d 	streq	r0, [r0, #-45]	@ 0xffffffd3
     1d8:	00372d00 	eorseq	r2, r7, r0, lsl #26
     1dc:	9b000500 	blls	15e4 <__max_heap_size+0x11e4>
     1e0:	0500001e 	streq	r0, [r0, #-30]	@ 0xffffffe2
     1e4:	001c6a00 	andseq	r6, ip, r0, lsl #20
     1e8:	20000500 	andcs	r0, r0, r0, lsl #10
     1ec:	05000010 	streq	r0, [r0, #-16]
     1f0:	002d7f00 	eoreq	r7, sp, r0, lsl #30
     1f4:	cf000500 	svcgt	0x00000500
     1f8:	0500001e 	streq	r0, [r0, #-30]	@ 0xffffffe2
     1fc:	00177a00 	andseq	r7, r7, r0, lsl #20
     200:	ac000500 	stcge	5, cr0, [r0], {-0}
     204:	05000026 	streq	r0, [r0, #-38]	@ 0xffffffda
     208:	00067e00 	andeq	r7, r6, r0, lsl #28
     20c:	0c000500 	stceq	5, cr0, [r0], {-0}
     210:	05000011 	streq	r0, [r0, #-17]	@ 0xffffffef
     214:	00168200 	andseq	r8, r6, r0, lsl #4
     218:	25000500 	strcs	r0, [r0, #-1280]	@ 0xfffffb00
     21c:	05000036 	streq	r0, [r0, #-54]	@ 0xffffffca
     220:	000b2f00 	andeq	r2, fp, r0, lsl #30
     224:	7d000500 	stcvc	5, cr0, [r0, #-0]
     228:	05000000 	streq	r0, [r0, #-0]
     22c:	00193e00 	andseq	r3, r9, r0, lsl #28
     230:	10000500 	andne	r0, r0, r0, lsl #10
     234:	05000034 	streq	r0, [r0, #-52]	@ 0xffffffcc
     238:	000f8300 	andeq	r8, pc, r0, lsl #6
     23c:	14000500 	strne	r0, [r0], #-1280	@ 0xfffffb00
     240:	05000033 	streq	r0, [r0, #-51]	@ 0xffffffcd
     244:	000c6900 	andeq	r6, ip, r0, lsl #18
     248:	e3000500 	tst	r0, #0, 10
     24c:	05000019 	streq	r0, [r0, #-25]	@ 0xffffffe7
     250:	00096200 	andeq	r6, r9, r0, lsl #4
     254:	a7000500 	strge	r0, [r0, -r0, lsl #10]
     258:	05000027 	streq	r0, [r0, #-39]	@ 0xffffffd9
     25c:	0006ab00 	andeq	sl, r6, r0, lsl #22
     260:	1b000500 	blne	1668 <__max_heap_size+0x1268>
     264:	05000022 	streq	r0, [r0, #-34]	@ 0xffffffde
     268:	00174500 	andseq	r4, r7, r0, lsl #10
     26c:	75000500 	strvc	r0, [r0, #-1280]	@ 0xfffffb00
     270:	0500002c 	streq	r0, [r0, #-44]	@ 0xffffffd4
     274:	0029fe00 	eoreq	pc, r9, r0, lsl #28
     278:	bf000500 	svclt	0x00000500
     27c:	0500002a 	streq	r0, [r0, #-42]	@ 0xffffffd6
     280:	00045d00 	andeq	r5, r4, r0, lsl #26
     284:	d3000500 	tstle	r0, #0, 10
     288:	0500000e 	streq	r0, [r0, #-14]
     28c:	000a1900 	andeq	r1, sl, r0, lsl #18
     290:	5d000500 	stcpl	5, cr0, [r0, #-0]
     294:	05000022 	streq	r0, [r0, #-34]	@ 0xffffffde
     298:	002cdc00 	eoreq	sp, ip, r0, lsl #24
     29c:	1c000500 	stcne	5, cr0, [r0], {-0}
     2a0:	0500002f 	streq	r0, [r0, #-47]	@ 0xffffffd1
     2a4:	0025eb00 	eoreq	lr, r5, r0, lsl #22
     2a8:	b1000500 	tstlt	r0, r0, lsl #10
     2ac:	05000002 	streq	r0, [r0, #-2]
     2b0:	0016e500 	andseq	lr, r6, r0, lsl #10
     2b4:	9e000500 	cdpls	5, 0, cr0, cr0, cr0, {0}
     2b8:	05000028 	streq	r0, [r0, #-40]	@ 0xffffffd8
     2bc:	002ea100 	eoreq	sl, lr, r0, lsl #2
     2c0:	6b000500 	blvs	16c8 <__max_heap_size+0x12c8>
     2c4:	05000025 	streq	r0, [r0, #-37]	@ 0xffffffdb
     2c8:	00129700 	andseq	r9, r2, r0, lsl #14
     2cc:	94000500 	strls	r0, [r0], #-1280	@ 0xfffffb00
     2d0:	05000036 	streq	r0, [r0, #-54]	@ 0xffffffca
     2d4:	003b3d00 	eorseq	r3, fp, r0, lsl #26
     2d8:	20000500 	andcs	r0, r0, r0, lsl #10
     2dc:	05000008 	streq	r0, [r0, #-8]
     2e0:	001c3100 	andseq	r3, ip, r0, lsl #2
     2e4:	25000500 	strcs	r0, [r0, #-1280]	@ 0xfffffb00
     2e8:	05000000 	streq	r0, [r0, #-0]
     2ec:	00259f00 	eoreq	r9, r5, r0, lsl #30
     2f0:	34000500 	strcc	r0, [r0], #-1280	@ 0xfffffb00
     2f4:	05000027 	streq	r0, [r0, #-39]	@ 0xffffffd9
     2f8:	000fef00 	andeq	lr, pc, r0, lsl #30
     2fc:	34000500 	strcc	r0, [r0], #-1280	@ 0xfffffb00
     300:	05000022 	streq	r0, [r0, #-34]	@ 0xffffffde
     304:	00288400 	eoreq	r8, r8, r0, lsl #8
     308:	cc000500 	stcgt	5, cr0, [r0], {-0}
     30c:	0500000f 	streq	r0, [r0, #-15]
     310:	001b7900 	andseq	r7, fp, r0, lsl #18
     314:	8c000500 	stchi	5, cr0, [r0], {-0}
     318:	0500001b 	streq	r0, [r0, #-27]	@ 0xffffffe5
     31c:	00247d00 	eoreq	r7, r4, r0, lsl #26
     320:	3d000500 	stccc	5, cr0, [r0, #-0]
     324:	05000020 	streq	r0, [r0, #-32]	@ 0xffffffe0
     328:	0007dd00 	andeq	sp, r7, r0, lsl #26
     32c:	51000500 	tstpl	r0, r0, lsl #10
     330:	0500000b 	streq	r0, [r0, #-11]
     334:	001b5200 	andseq	r5, fp, r0, lsl #4
     338:	2b000500 	blcs	1740 <__max_heap_size+0x1340>
     33c:	05000009 	streq	r0, [r0, #-9]
     340:	00201200 	eoreq	r1, r0, r0, lsl #4
     344:	90000500 	andls	r0, r0, r0, lsl #10
     348:	0500000b 	streq	r0, [r0, #-11]
     34c:	003aef00 	eorseq	lr, sl, r0, lsl #30
     350:	0e000500 	cdpeq	5, 0, cr0, cr0, cr0, {0}
     354:	05000039 	streq	r0, [r0, #-57]	@ 0xffffffc7
     358:	0033a100 	eorseq	sl, r3, r0, lsl #2
     35c:	6a000500 	bvs	1764 <__max_heap_size+0x1364>
     360:	0500001a 	streq	r0, [r0, #-26]	@ 0xffffffe6
     364:	002c3a00 	eoreq	r3, ip, r0, lsl #20
     368:	fd000500 			@ <UNDEFINED> instruction: 0xfd000500
     36c:	05000028 	streq	r0, [r0, #-40]	@ 0xffffffd8
     370:	00047e00 	andeq	r7, r4, r0, lsl #28
     374:	d6000500 	strle	r0, [r0], -r0, lsl #10
     378:	05000001 	streq	r0, [r0, #-1]
     37c:	003be700 	eorseq	lr, fp, r0, lsl #14
     380:	3d000500 	stccc	5, cr0, [r0, #-0]
     384:	05000005 	streq	r0, [r0, #-5]
     388:	002a4400 	eoreq	r4, sl, r0, lsl #8
     38c:	5a000500 	bpl	1794 <__max_heap_size+0x1394>
     390:	05000014 	streq	r0, [r0, #-20]	@ 0xffffffec
     394:	00106500 	andseq	r6, r0, r0, lsl #10
     398:	4e000500 	cdpmi	5, 0, cr0, cr0, cr0, {0}
     39c:	0500002f 	streq	r0, [r0, #-47]	@ 0xffffffd1
     3a0:	0005bf00 	andeq	fp, r5, r0, lsl #30
     3a4:	82000500 	andhi	r0, r0, #0, 10
     3a8:	05000038 	streq	r0, [r0, #-56]	@ 0xffffffc8
     3ac:	001de900 	andseq	lr, sp, r0, lsl #18
     3b0:	0e000500 	cdpeq	5, 0, cr0, cr0, cr0, {0}
     3b4:	05000001 	streq	r0, [r0, #-1]
     3b8:	00208a00 	eoreq	r8, r0, r0, lsl #20
     3bc:	a1000500 	tstge	r0, r0, lsl #10
     3c0:	05000021 	streq	r0, [r0, #-33]	@ 0xffffffdf
     3c4:	000d2c00 	andeq	r2, sp, r0, lsl #24
     3c8:	77000500 	strvc	r0, [r0, -r0, lsl #10]
     3cc:	0500003c 	streq	r0, [r0, #-60]	@ 0xffffffc4
     3d0:	00154e00 	andseq	r4, r5, r0, lsl #28
     3d4:	1e000500 	cdpne	5, 0, cr0, cr0, cr0, {0}
     3d8:	05000019 	streq	r0, [r0, #-25]	@ 0xffffffe7
     3dc:	002bfb00 	eoreq	pc, fp, r0, lsl #22
     3e0:	d1000500 	tstle	r0, r0, lsl #10
     3e4:	0500002b 	streq	r0, [r0, #-43]	@ 0xffffffd5
     3e8:	0030f800 	eorseq	pc, r0, r0, lsl #16
     3ec:	bb000500 	bllt	17f4 <__max_heap_size+0x13f4>
     3f0:	0500001e 	streq	r0, [r0, #-30]	@ 0xffffffe2
     3f4:	0039c200 	eorseq	ip, r9, r0, lsl #4
     3f8:	67000500 	strvs	r0, [r0, -r0, lsl #10]
     3fc:	0500000e 	streq	r0, [r0, #-14]
     400:	00246500 	eoreq	r6, r4, r0, lsl #10
     404:	2c000500 	stccs	5, cr0, [r0], {-0}
     408:	0500001a 	streq	r0, [r0, #-26]	@ 0xffffffe6
     40c:	0035d800 	eorseq	sp, r5, r0, lsl #16
     410:	38000500 	stmdacc	r0, {r8, sl}
     414:	05000033 	streq	r0, [r0, #-51]	@ 0xffffffcd
     418:	00109000 	andseq	r9, r0, r0
     41c:	95000500 	strls	r0, [r0, #-1280]	@ 0xfffffb00
     420:	05000018 	streq	r0, [r0, #-24]	@ 0xffffffe8
     424:	000d7b00 	andeq	r7, sp, r0, lsl #22
     428:	b8000500 	stmdalt	r0, {r8, sl}
     42c:	05000038 	streq	r0, [r0, #-56]	@ 0xffffffc8
     430:	00357a00 	eorseq	r7, r5, r0, lsl #20
     434:	c1000500 	tstgt	r0, r0, lsl #10
     438:	05000031 	streq	r0, [r0, #-49]	@ 0xffffffcf
     43c:	0017a300 	andseq	sl, r7, r0, lsl #6
     440:	54000500 	strpl	r0, [r0], #-1280	@ 0xfffffb00
     444:	05000028 	streq	r0, [r0, #-40]	@ 0xffffffd8
     448:	00344e00 	eorseq	r4, r4, r0, lsl #28
     44c:	45000500 	strmi	r0, [r0, #-1280]	@ 0xfffffb00
     450:	05000023 	streq	r0, [r0, #-35]	@ 0xffffffdd
     454:	001d5000 	andseq	r5, sp, r0
     458:	40000500 	andmi	r0, r0, r0, lsl #10
     45c:	0500002d 	streq	r0, [r0, #-45]	@ 0xffffffd3
     460:	00268100 	eoreq	r8, r6, r0, lsl #2
     464:	62000500 	andvs	r0, r0, #0, 10
     468:	0500003c 	streq	r0, [r0, #-60]	@ 0xffffffc4
     46c:	000ab800 	andeq	fp, sl, r0, lsl #16
     470:	3d000500 	stccc	5, cr0, [r0, #-0]
     474:	05000036 	streq	r0, [r0, #-54]	@ 0xffffffca
     478:	000d6a00 	andeq	r6, sp, r0, lsl #20
     47c:	93000500 	tstls	r0, #0, 10
     480:	05000035 	streq	r0, [r0, #-53]	@ 0xffffffcb
     484:	00066a00 	andeq	r6, r6, r0, lsl #20
     488:	d4000500 	strle	r0, [r0], #-1280	@ 0xfffffb00
     48c:	0500001c 	streq	r0, [r0, #-28]	@ 0xffffffe4
     490:	00029900 	andeq	r9, r2, r0, lsl #18
     494:	76000500 	strvc	r0, [r0], -r0, lsl #10
     498:	05000019 	streq	r0, [r0, #-25]	@ 0xffffffe7
     49c:	00214d00 	eoreq	r4, r1, r0, lsl #26
     4a0:	8b000500 	blhi	18a8 <__max_heap_size+0x14a8>
     4a4:	05000037 	streq	r0, [r0, #-55]	@ 0xffffffc9
     4a8:	003c8f00 	eorseq	r8, ip, r0, lsl #30
     4ac:	ee000500 	cdp	5, 0, cr0, cr0, cr0, {0}
     4b0:	05000003 	streq	r0, [r0, #-3]
     4b4:	0004f000 	andeq	pc, r4, r0
     4b8:	07000500 	streq	r0, [r0, -r0, lsl #10]
     4bc:	05000012 	streq	r0, [r0, #-18]	@ 0xffffffee
     4c0:	000d8900 	andeq	r8, sp, r0, lsl #18
     4c4:	f7000500 			@ <UNDEFINED> instruction: 0xf7000500
     4c8:	05000036 	streq	r0, [r0, #-54]	@ 0xffffffca
     4cc:	0039de00 	eorseq	sp, r9, r0, lsl #28
     4d0:	f9000500 			@ <UNDEFINED> instruction: 0xf9000500
     4d4:	05000035 	streq	r0, [r0, #-53]	@ 0xffffffcb
     4d8:	0010b900 	andseq	fp, r0, r0, lsl #18
     4dc:	f6000500 			@ <UNDEFINED> instruction: 0xf6000500
     4e0:	05000034 	streq	r0, [r0, #-52]	@ 0xffffffcc
     4e4:	001f6c00 	andseq	r6, pc, r0, lsl #24
     4e8:	2b000500 	blcs	18f0 <__max_heap_size+0x14f0>
     4ec:	05000007 	streq	r0, [r0, #-7]
     4f0:	0024b100 	eoreq	fp, r4, r0, lsl #2
     4f4:	e0000500 	and	r0, r0, r0, lsl #10
     4f8:	0500002d 	streq	r0, [r0, #-45]	@ 0xffffffd3
     4fc:	0029a600 	eoreq	sl, r9, r0, lsl #12
     500:	90000500 	andls	r0, r0, r0, lsl #10
     504:	05000039 	streq	r0, [r0, #-57]	@ 0xffffffc7
     508:	0038fb00 	eorseq	pc, r8, r0, lsl #22
     50c:	17000500 	strne	r0, [r0, -r0, lsl #10]
     510:	0500002b 	streq	r0, [r0, #-43]	@ 0xffffffd5
     514:	001ef200 	andseq	pc, lr, r0, lsl #4
     518:	03000500 	tsteq	r0, #0, 10
     51c:	0500003c 	streq	r0, [r0, #-60]	@ 0xffffffc4
     520:	00242700 	eoreq	r2, r4, r0, lsl #14
     524:	eb000500 	bl	192c <__max_heap_size+0x152c>
     528:	05000032 	streq	r0, [r0, #-50]	@ 0xffffffce
     52c:	00131c00 	andseq	r1, r3, r0, lsl #24
     530:	d1000500 	tstle	r0, r0, lsl #10
     534:	0500003b 	streq	r0, [r0, #-59]	@ 0xffffffc5
     538:	00244d00 	eoreq	r4, r4, r0, lsl #26
     53c:	8c000500 	stchi	5, cr0, [r0], {-0}
     540:	0500002a 	streq	r0, [r0, #-42]	@ 0xffffffd6
     544:	0005a700 	andeq	sl, r5, r0, lsl #14
     548:	86000500 	strhi	r0, [r0], -r0, lsl #10
     54c:	05000001 	streq	r0, [r0, #-1]
     550:	001e3700 	andseq	r3, lr, r0, lsl #14
     554:	f2000500 	vrshl.s8	d0, d0, d0
     558:	05000018 	streq	r0, [r0, #-24]	@ 0xffffffe8
     55c:	0008a700 	andeq	sl, r8, r0, lsl #14
     560:	60000500 	andvs	r0, r0, r0, lsl #10
     564:	05000019 	streq	r0, [r0, #-25]	@ 0xffffffe7
     568:	003a5b00 	eorseq	r5, sl, r0, lsl #22
     56c:	aa000500 	bge	1974 <__max_heap_size+0x1574>
     570:	05000016 	streq	r0, [r0, #-22]	@ 0xffffffea
     574:	00074d00 	andeq	r4, r7, r0, lsl #26
     578:	12000500 	andne	r0, r0, #0, 10
     57c:	05000028 	streq	r0, [r0, #-40]	@ 0xffffffd8
     580:	00347200 	eorseq	r7, r4, r0, lsl #4
     584:	e2000500 	and	r0, r0, #0, 10
     588:	0500000a 	streq	r0, [r0, #-10]
     58c:	002eb600 	eoreq	fp, lr, r0, lsl #12
     590:	87000500 	strhi	r0, [r0, -r0, lsl #10]
     594:	0500000c 	streq	r0, [r0, #-12]
     598:	00006400 	andeq	r6, r0, r0, lsl #8
     59c:	ee000500 	cdp	5, 0, cr0, cr0, cr0, {0}
     5a0:	0500000e 	streq	r0, [r0, #-14]
     5a4:	000b5f00 	andeq	r5, fp, r0, lsl #30
     5a8:	24000500 	strcs	r0, [r0], #-1280	@ 0xfffffb00
     5ac:	05000005 	streq	r0, [r0, #-5]
     5b0:	00080a00 	andeq	r0, r8, r0, lsl #20
     5b4:	d4000500 	strle	r0, [r0], #-1280	@ 0xfffffb00
     5b8:	05000009 	streq	r0, [r0, #-9]
     5bc:	0034d600 	eorseq	sp, r4, r0, lsl #12
     5c0:	06000500 	streq	r0, [r0], -r0, lsl #10
     5c4:	05000016 	streq	r0, [r0, #-22]	@ 0xffffffea
     5c8:	00009e00 	andeq	r9, r0, r0, lsl #28
     5cc:	49000500 	stmdbmi	r0, {r8, sl}
     5d0:	05000013 	streq	r0, [r0, #-19]	@ 0xffffffed
     5d4:	0018b400 	andseq	fp, r8, r0, lsl #8
     5d8:	0f000500 	svceq	0x00000500
     5dc:	0500002a 	streq	r0, [r0, #-42]	@ 0xffffffd6
     5e0:	00097500 	andeq	r7, r9, r0, lsl #10
     5e4:	36000500 	strcc	r0, [r0], -r0, lsl #10
     5e8:	05000012 	streq	r0, [r0, #-18]	@ 0xffffffee
     5ec:	00314a00 	eorseq	r4, r1, r0, lsl #20
     5f0:	9e000500 	cdpls	5, 0, cr0, cr0, cr0, {0}
     5f4:	0500000c 	streq	r0, [r0, #-12]
     5f8:	0019fa00 	andseq	pc, r9, r0, lsl #20
     5fc:	49000500 	stmdbmi	r0, {r8, sl}
     600:	05000011 	streq	r0, [r0, #-17]	@ 0xffffffef
     604:	001c8900 	andseq	r8, ip, r0, lsl #18
     608:	a6000500 	strge	r0, [r0], -r0, lsl #10
     60c:	0500002c 	streq	r0, [r0, #-44]	@ 0xffffffd4
     610:	00184200 	andseq	r4, r8, r0, lsl #4
     614:	92000500 	andls	r0, r0, #0, 10
     618:	0500001d 	streq	r0, [r0, #-29]	@ 0xffffffe3
     61c:	001b3700 	andseq	r3, fp, r0, lsl #14
     620:	2e000500 	cdpcs	5, 0, cr0, cr0, cr0, {0}
     624:	05000029 	streq	r0, [r0, #-41]	@ 0xffffffd7
     628:	0000f600 	andeq	pc, r0, r0, lsl #12
     62c:	a8000500 	stmdage	r0, {r8, sl}
     630:	05000039 	streq	r0, [r0, #-57]	@ 0xffffffc7
     634:	00026f00 	andeq	r6, r2, r0, lsl #30
     638:	b2000500 	andlt	r0, r0, #0, 10
     63c:	0500002f 	streq	r0, [r0, #-47]	@ 0xffffffd1
     640:	0032bb00 	eorseq	fp, r2, r0, lsl #22
     644:	a2000500 	andge	r0, r0, #0, 10
     648:	05000037 	streq	r0, [r0, #-55]	@ 0xffffffc9
     64c:	0035aa00 	eorseq	sl, r5, r0, lsl #20
     650:	62000500 	andvs	r0, r0, #0, 10
     654:	05000011 	streq	r0, [r0, #-17]	@ 0xffffffef
     658:	001a4200 	andseq	r4, sl, r0, lsl #4
     65c:	17000500 	strne	r0, [r0, -r0, lsl #10]
     660:	05000038 	streq	r0, [r0, #-56]	@ 0xffffffc8
     664:	00377000 	eorseq	r7, r7, r0
     668:	81000500 	tsthi	r0, r0, lsl #10
     66c:	0500001e 	streq	r0, [r0, #-30]	@ 0xffffffe2
     670:	0025fd00 	eoreq	pc, r5, r0, lsl #26
     674:	31000500 	tstcc	r0, r0, lsl #10
     678:	05000026 	streq	r0, [r0, #-38]	@ 0xffffffda
     67c:	00138b00 	andseq	r8, r3, r0, lsl #22
     680:	6a000500 	bvs	1a88 <__max_heap_size+0x1688>
     684:	0500000f 	streq	r0, [r0, #-15]
     688:	002f8700 	eoreq	r8, pc, r0, lsl #14
     68c:	27000500 	strcs	r0, [r0, -r0, lsl #10]
     690:	0500002c 	streq	r0, [r0, #-44]	@ 0xffffffd4
     694:	00338e00 	eorseq	r8, r3, r0, lsl #28
     698:	1d000500 	stcne	5, cr0, [r0, #-0]
     69c:	05000004 	streq	r0, [r0, #-4]
     6a0:	00153300 	andseq	r3, r5, r0, lsl #6
     6a4:	a8000500 	stmdage	r0, {r8, sl}
     6a8:	05000020 	streq	r0, [r0, #-32]	@ 0xffffffe0
     6ac:	0019d100 	andseq	sp, r9, r0, lsl #2
     6b0:	05000500 	streq	r0, [r0, #-1280]	@ 0xfffffb00
     6b4:	05000024 	streq	r0, [r0, #-36]	@ 0xffffffdc
     6b8:	00125f00 	andseq	r5, r2, r0, lsl #30
     6bc:	fa000500 			@ <UNDEFINED> instruction: 0xfa000500
     6c0:	05000022 	streq	r0, [r0, #-34]	@ 0xffffffde
     6c4:	00309200 	eorseq	r9, r0, r0, lsl #4
     6c8:	1e000500 	cdpne	5, 0, cr0, cr0, cr0, {0}
     6cc:	05000017 	streq	r0, [r0, #-23]	@ 0xffffffe9
     6d0:	00005200 	andeq	r5, r0, r0, lsl #4
     6d4:	6e000500 	cdpvs	5, 0, cr0, cr0, cr0, {0}
     6d8:	05000023 	streq	r0, [r0, #-35]	@ 0xffffffdd
     6dc:	000f4e00 	andeq	r4, pc, r0, lsl #28
     6e0:	c5000500 	strgt	r0, [r0, #-1280]	@ 0xfffffb00
     6e4:	05000028 	streq	r0, [r0, #-40]	@ 0xffffffd8
     6e8:	001c5700 	andseq	r5, ip, r0, lsl #14
     6ec:	ca000500 	bgt	1af4 <__max_heap_size+0x16f4>
     6f0:	05000008 	streq	r0, [r0, #-8]
     6f4:	0029e000 	eoreq	lr, r9, r0
     6f8:	9e000500 	cdpls	5, 0, cr0, cr0, cr0, {0}
     6fc:	0500003a 	streq	r0, [r0, #-58]	@ 0xffffffc6
     700:	0010ef00 	andseq	lr, r0, r0, lsl #30
     704:	49000500 	stmdbmi	r0, {r8, sl}
     708:	05000022 	streq	r0, [r0, #-34]	@ 0xffffffde
     70c:	00103e00 	andseq	r3, r0, r0, lsl #28
     710:	7e000500 	cdpvc	5, 0, cr0, cr0, cr0, {0}
     714:	05000018 	streq	r0, [r0, #-24]	@ 0xffffffe8
     718:	002e5500 	eoreq	r5, lr, r0, lsl #10
     71c:	01000500 	tsteq	r0, r0, lsl #10
     720:	05000010 	streq	r0, [r0, #-16]
     724:	001b2300 	andseq	r2, fp, r0, lsl #6
     728:	87000500 	strhi	r0, [r0, -r0, lsl #10]
     72c:	05000003 	streq	r0, [r0, #-3]
     730:	003b7b00 	eorseq	r7, fp, r0, lsl #22
     734:	02000500 	andeq	r0, r0, #0, 10
     738:	0500000d 	streq	r0, [r0, #-13]
     73c:	0025cc00 	eoreq	ip, r5, r0, lsl #24
     740:	f6000500 			@ <UNDEFINED> instruction: 0xf6000500
     744:	05000024 	streq	r0, [r0, #-36]	@ 0xffffffdc
     748:	0009c000 	andeq	ip, r9, r0
     74c:	a0000500 	andge	r0, r0, r0, lsl #10
     750:	05000010 	streq	r0, [r0, #-16]
     754:	0005f600 	andeq	pc, r5, r0, lsl #12
     758:	b0000500 	andlt	r0, r0, r0, lsl #10
     75c:	0500003b 	streq	r0, [r0, #-59]	@ 0xffffffc5
     760:	0011d900 	andseq	sp, r1, r0, lsl #18
     764:	62000500 	andvs	r0, r0, #0, 10
     768:	05000013 	streq	r0, [r0, #-19]	@ 0xffffffed
     76c:	002efa00 	eoreq	pc, lr, r0, lsl #20
     770:	2f000500 	svccs	0x00000500
     774:	0500001f 	streq	r0, [r0, #-31]	@ 0xffffffe1
     778:	00164c00 	andseq	r4, r6, r0, lsl #24
     77c:	4f000500 	svcmi	0x00000500
     780:	0500003c 	streq	r0, [r0, #-60]	@ 0xffffffc4
     784:	00199000 	andseq	r9, r9, r0
     788:	2b000500 	blcs	1b90 <__max_heap_size+0x1790>
     78c:	05000018 	streq	r0, [r0, #-24]	@ 0xffffffe8
     790:	00143d00 	andseq	r3, r4, r0, lsl #26
     794:	a1000500 	tstge	r0, r0, lsl #10
     798:	0500000e 	streq	r0, [r0, #-14]
     79c:	001ab200 	andseq	fp, sl, r0, lsl #4
     7a0:	0a000500 	beq	1ba8 <__max_heap_size+0x17a8>
     7a4:	05000013 	streq	r0, [r0, #-19]	@ 0xffffffed
     7a8:	00226f00 	eoreq	r6, r2, r0, lsl #30
     7ac:	4d000500 	stcmi	5, cr0, [r0, #-0]
     7b0:	05000025 	streq	r0, [r0, #-37]	@ 0xffffffdb
     7b4:	001da400 	andseq	sl, sp, r0, lsl #8
     7b8:	2f000500 	svccs	0x00000500
     7bc:	05000021 	streq	r0, [r0, #-33]	@ 0xffffffdf
     7c0:	00190b00 	andseq	r0, r9, r0, lsl #22
     7c4:	d1000500 	tstle	r0, r0, lsl #10
     7c8:	05000010 	streq	r0, [r0, #-16]
     7cc:	002e2800 	eoreq	r2, lr, r0, lsl #16
     7d0:	cf000500 	svcgt	0x00000500
     7d4:	05000012 	streq	r0, [r0, #-18]	@ 0xffffffee
     7d8:	001d1f00 	andseq	r1, sp, r0, lsl #30
     7dc:	10000500 	andne	r0, r0, r0, lsl #10
     7e0:	05000015 	streq	r0, [r0, #-21]	@ 0xffffffeb
     7e4:	000a4600 	andeq	r4, sl, r0, lsl #12
     7e8:	62000500 	andvs	r0, r0, #0, 10
     7ec:	05000020 	streq	r0, [r0, #-32]	@ 0xffffffe0
     7f0:	002f6500 	eoreq	r6, pc, r0, lsl #10
     7f4:	31000500 	tstcc	r0, r0, lsl #10
     7f8:	05000023 	streq	r0, [r0, #-35]	@ 0xffffffdd
     7fc:	001af500 	andseq	pc, sl, r0, lsl #10
     800:	96000500 	strls	r0, [r0], -r0, lsl #10
     804:	0500000a 	streq	r0, [r0, #-10]
     808:	000f2400 	andeq	r2, pc, r0, lsl #8
     80c:	67000500 	strvs	r0, [r0, -r0, lsl #10]
     810:	05000001 	streq	r0, [r0, #-1]
     814:	00105100 	andseq	r5, r0, r0, lsl #2
     818:	75000500 	strvc	r0, [r0, #-1280]	@ 0xfffffb00
     81c:	05000007 	streq	r0, [r0, #-7]
     820:	0015c200 	andseq	ip, r5, r0, lsl #4
     824:	e2000500 	and	r0, r0, #0, 10
     828:	05000017 	streq	r0, [r0, #-23]	@ 0xffffffe9
     82c:	00180c00 	andseq	r0, r8, r0, lsl #24
     830:	b5000500 	strlt	r0, [r0, #-1280]	@ 0xfffffb00
     834:	05000034 	streq	r0, [r0, #-52]	@ 0xffffffcc
     838:	0023d600 	eoreq	sp, r3, r0, lsl #12
     83c:	ea000500 	b	1c44 <__max_heap_size+0x1844>
     840:	0500000b 	streq	r0, [r0, #-11]
     844:	000a6a00 	andeq	r6, sl, r0, lsl #20
     848:	2e000500 	cdpcs	5, 0, cr0, cr0, cr0, {0}
     84c:	0500003c 	streq	r0, [r0, #-60]	@ 0xffffffc4
     850:	003a9000 	eorseq	r9, sl, r0
     854:	06000500 	streq	r0, [r0], -r0, lsl #10
     858:	05000002 	streq	r0, [r0, #-2]
     85c:	002c4f00 	eoreq	r4, ip, r0, lsl #30
     860:	43000500 	tstmi	r0, #0, 10
     864:	05000026 	streq	r0, [r0, #-38]	@ 0xffffffda
     868:	0029bc00 	eoreq	fp, r9, r0, lsl #24
     86c:	04000500 	streq	r0, [r0], #-1280	@ 0xfffffb00
     870:	05000028 	streq	r0, [r0, #-40]	@ 0xffffffd8
     874:	0026d400 	eoreq	sp, r6, r0, lsl #8
     878:	40000500 	andmi	r0, r0, r0, lsl #10
     87c:	05000034 	streq	r0, [r0, #-52]	@ 0xffffffcc
     880:	002b7c00 	eoreq	r7, fp, r0, lsl #24
     884:	81000500 	tsthi	r0, r0, lsl #10
     888:	0500001f 	streq	r0, [r0, #-31]	@ 0xffffffe1
     88c:	0028b600 	eoreq	fp, r8, r0, lsl #12
     890:	a3000500 	tstge	r0, #0, 10
     894:	0500002f 	streq	r0, [r0, #-47]	@ 0xffffffd1
     898:	002b8c00 	eoreq	r8, fp, r0, lsl #24
     89c:	0f000500 	svceq	0x00000500
     8a0:	05000017 	streq	r0, [r0, #-23]	@ 0xffffffe9
     8a4:	002fdd00 	eoreq	sp, pc, r0, lsl #26
     8a8:	9c000500 	stcls	5, cr0, [r0], {-0}
     8ac:	05000001 	streq	r0, [r0, #-1]
     8b0:	001dd900 	andseq	sp, sp, r0, lsl #18
     8b4:	14000500 	strne	r0, [r0], #-1280	@ 0xfffffb00
     8b8:	05000002 	streq	r0, [r0, #-2]
     8bc:	001e6100 	andseq	r6, lr, r0, lsl #2
     8c0:	cd000500 	stcgt	5, cr0, [r0, #-0]
     8c4:	05000037 	streq	r0, [r0, #-55]	@ 0xffffffc9
     8c8:	002e9300 	eoreq	r9, lr, r0, lsl #6
     8cc:	ed000500 	stc	5, cr0, [r0, #-0]
     8d0:	0500002f 	streq	r0, [r0, #-47]	@ 0xffffffd1
     8d4:	0015f700 	andseq	pc, r5, r0, lsl #14
     8d8:	f3000500 	vrshl.u8	d0, d0, d0
     8dc:	0500000c 	streq	r0, [r0, #-12]
     8e0:	000e2800 	andeq	r2, lr, r0, lsl #16
     8e4:	e9000500 	stmdb	r0, {r8, sl}
     8e8:	05000014 	streq	r0, [r0, #-20]	@ 0xffffffec
     8ec:	00004300 	andeq	r4, r0, r0, lsl #6
     8f0:	dc000500 	stcle	5, cr0, [r0], {-0}
     8f4:	05000037 	streq	r0, [r0, #-55]	@ 0xffffffc9
     8f8:	001f8f00 	andseq	r8, pc, r0, lsl #30
     8fc:	e3000500 	tst	r0, #0, 10
     900:	05000026 	streq	r0, [r0, #-38]	@ 0xffffffda
     904:	001b6900 	andseq	r6, fp, r0, lsl #18
     908:	a9000500 	stmdbge	r0, {r8, sl}
     90c:	05000013 	streq	r0, [r0, #-19]	@ 0xffffffed
     910:	00147000 	andseq	r7, r4, r0
     914:	0d000500 	stceq	5, cr0, [r0, #-0]
     918:	0500000b 	streq	r0, [r0, #-11]
     91c:	00065a00 	andeq	r5, r6, r0, lsl #20
     920:	6a000500 	bvs	1d28 <__max_heap_size+0x1928>
     924:	05000035 	streq	r0, [r0, #-53]	@ 0xffffffcb
     928:	0007f500 	andeq	pc, r7, r0, lsl #10
     92c:	6a000500 	bvs	1d34 <__max_heap_size+0x1934>
     930:	05000026 	streq	r0, [r0, #-38]	@ 0xffffffda
     934:	0016f800 	andseq	pc, r6, r0, lsl #16
     938:	59000500 	stmdbpl	r0, {r8, sl}
     93c:	05000018 	streq	r0, [r0, #-24]	@ 0xffffffe8
     940:	00393c00 	eorseq	r3, r9, r0, lsl #24
     944:	ea000500 	b	1d4c <__max_heap_size+0x194c>
     948:	05000006 	streq	r0, [r0, #-6]
     94c:	000cce00 	andeq	ip, ip, r0, lsl #28
     950:	d9000500 	stmdble	r0, {r8, sl}
     954:	0500000d 	streq	r0, [r0, #-13]
     958:	0018cd00 	andseq	ip, r8, r0, lsl #26
     95c:	bb000500 	bllt	1d64 <__max_heap_size+0x1964>
     960:	0500000d 	streq	r0, [r0, #-13]
     964:	001ca300 	andseq	sl, ip, r0, lsl #6
     968:	c8000500 	stmdagt	r0, {r8, sl}
     96c:	05000002 	streq	r0, [r0, #-2]
     970:	00300a00 	eorseq	r0, r0, r0, lsl #20
     974:	d4000500 	strle	r0, [r0], #-1280	@ 0xfffffb00
     978:	0500001a 	streq	r0, [r0, #-26]	@ 0xffffffe6
     97c:	00350d00 	eorseq	r0, r5, r0, lsl #26
     980:	7a000500 	bvc	1d88 <__max_heap_size+0x1988>
     984:	05000012 	streq	r0, [r0, #-18]	@ 0xffffffee
     988:	001d7400 	andseq	r7, sp, r0, lsl #8
     98c:	a2000500 	andge	r0, r0, #0, 10
     990:	05000031 	streq	r0, [r0, #-49]	@ 0xffffffcf
     994:	00012600 	andeq	r2, r1, r0, lsl #12
     998:	66000500 	strvs	r0, [r0], -r0, lsl #10
     99c:	0500002a 	streq	r0, [r0, #-42]	@ 0xffffffd6
     9a0:	00062200 	andeq	r2, r6, r0, lsl #4
     9a4:	2d000500 	stccs	5, cr0, [r0, #-0]
     9a8:	0500002f 	streq	r0, [r0, #-47]	@ 0xffffffd1
     9ac:	0015a200 	andseq	sl, r5, r0, lsl #4
     9b0:	21000500 	tstcs	r0, r0, lsl #10
     9b4:	05000020 	streq	r0, [r0, #-32]	@ 0xffffffe0
     9b8:	00311200 	eorseq	r1, r1, r0, lsl #4
     9bc:	0b000500 	bleq	1dc4 <__max_heap_size+0x19c4>
     9c0:	05000025 	streq	r0, [r0, #-37]	@ 0xffffffdb
     9c4:	0001f200 	andeq	pc, r1, r0, lsl #4
     9c8:	74000500 	strvc	r0, [r0], #-1280	@ 0xfffffb00
     9cc:	05000013 	streq	r0, [r0, #-19]	@ 0xffffffed
     9d0:	00063d00 	andeq	r3, r6, r0, lsl #26
     9d4:	10000500 	andne	r0, r0, r0, lsl #10
     9d8:	05000036 	streq	r0, [r0, #-54]	@ 0xffffffca
     9dc:	00257d00 	eoreq	r7, r5, r0, lsl #26
     9e0:	db000600 	blle	21e8 <__max_heap_size+0x1de8>
     9e4:	06000004 	streq	r0, [r0], -r4
     9e8:	002d1900 	eoreq	r1, sp, r0, lsl #18
     9ec:	43000600 	tstmi	r0, #0, 12
     9f0:	0500000c 	streq	r0, [r0, #-12]
     9f4:	00141a00 	andseq	r1, r4, r0, lsl #20
     9f8:	17000600 	strne	r0, [r0, -r0, lsl #12]
     9fc:	06000007 	streq	r0, [r0], -r7
     a00:	003a4700 	eorseq	r4, sl, r0, lsl #14
     a04:	17000600 	strne	r0, [r0, -r0, lsl #12]
     a08:	0600000c 	streq	r0, [r0], -ip
     a0c:	00037100 	andeq	r7, r3, r0, lsl #2
     a10:	72000500 	andvc	r0, r0, #0, 10
     a14:	0600000b 	streq	r0, [r0], -fp
     a18:	00394e00 	eorseq	r4, r9, r0, lsl #28
     a1c:	1d000600 	stcne	6, cr0, [r0, #-0]
     a20:	0600000b 	streq	r0, [r0], -fp
     a24:	00162200 	andseq	r2, r6, r0, lsl #4
     a28:	68000600 	stmdavs	r0, {r9, sl}
     a2c:	06000016 			@ <UNDEFINED> instruction: 0x06000016
     a30:	0036aa00 	eorseq	sl, r6, r0, lsl #20
     a34:	56000600 	strpl	r0, [r0], -r0, lsl #12
     a38:	0600000c 	streq	r0, [r0], -ip
     a3c:	001be900 	andseq	lr, fp, r0, lsl #18
     a40:	ff000500 			@ <UNDEFINED> instruction: 0xff000500
     a44:	05000026 	streq	r0, [r0, #-38]	@ 0xffffffda
     a48:	00173100 	andseq	r3, r7, r0, lsl #2
     a4c:	a3000600 	tstge	r0, #0, 12
     a50:	05000009 	streq	r0, [r0, #-9]
     a54:	002c5e00 	eoreq	r5, ip, r0, lsl #28
     a58:	37000500 	strcc	r0, [r0, -r0, lsl #10]
     a5c:	0500000e 	streq	r0, [r0, #-14]
     a60:	00031d00 	andeq	r1, r3, r0, lsl #26
     a64:	ff000600 			@ <UNDEFINED> instruction: 0xff000600
     a68:	0500001f 	streq	r0, [r0, #-31]	@ 0xffffffe1
     a6c:	00386c00 	eorseq	r6, r8, r0, lsl #24
     a70:	4a000500 	bmi	1e78 <__max_heap_size+0x1a78>
     a74:	0600001f 			@ <UNDEFINED> instruction: 0x0600001f
     a78:	0018a900 	andseq	sl, r8, r0, lsl #18
     a7c:	e4000500 	str	r0, [r0], #-1280	@ 0xfffffb00
     a80:	05000008 	streq	r0, [r0, #-8]
     a84:	0036bc00 	eorseq	fp, r6, r0, lsl #24
     a88:	9e000500 	cdpls	5, 0, cr0, cr0, cr0, {0}
     a8c:	0500001f 	streq	r0, [r0, #-31]	@ 0xffffffe1
     a90:	002a8000 	eoreq	r8, sl, r0
     a94:	e9000500 	stmdb	r0, {r8, sl}
     a98:	05000000 	streq	r0, [r0, #-0]
     a9c:	0014b500 	andseq	fp, r4, r0, lsl #10
     aa0:	0a000600 	beq	22a8 <__max_heap_size+0x1ea8>
     aa4:	0500001d 	streq	r0, [r0, #-29]	@ 0xffffffe3
     aa8:	001e2000 	andseq	r2, lr, r0
     aac:	fe000500 			@ <UNDEFINED> instruction: 0xfe000500
     ab0:	0500001c 	streq	r0, [r0, #-28]	@ 0xffffffe4
     ab4:	002e4800 	eoreq	r4, lr, r0, lsl #16
     ab8:	ee000600 	cdp	6, 0, cr0, cr0, cr0, {0}
     abc:	0500002c 	streq	r0, [r0, #-44]	@ 0xffffffd4
     ac0:	000aad00 	andeq	sl, sl, r0, lsl #26
     ac4:	34000600 	strcc	r0, [r0], #-1536	@ 0xfffffa00
     ac8:	06000003 	streq	r0, [r0], -r3
     acc:	000bcc00 	andeq	ip, fp, r0, lsl #24
     ad0:	bb000600 	bllt	22d8 <__max_heap_size+0x1ed8>
     ad4:	06000027 	streq	r0, [r0], -r7, lsr #32
     ad8:	00119400 	andseq	r9, r1, r0, lsl #8
     adc:	00000600 	andeq	r0, r0, r0, lsl #12
     ae0:	06000000 	streq	r0, [r0], -r0
     ae4:	000a0200 	andeq	r0, sl, r0, lsl #4
     ae8:	9c000500 	stcls	5, cr0, [r0], {-0}
     aec:	0600003b 			@ <UNDEFINED> instruction: 0x0600003b
     af0:	0001e500 	andeq	lr, r1, r0, lsl #10
     af4:	2d000600 	stccs	6, cr0, [r0, #-0]
     af8:	0600000c 	streq	r0, [r0], -ip
     afc:	0023a300 	eoreq	sl, r3, r0, lsl #6
     b00:	bb000500 	bllt	1f08 <__max_heap_size+0x1b08>
     b04:	05000019 	streq	r0, [r0, #-25]	@ 0xffffffe7
     b08:	003abe00 	eorseq	fp, sl, r0, lsl #28
     b0c:	28000500 	stmdacs	r0, {r8, sl}
     b10:	05000033 	streq	r0, [r0, #-51]	@ 0xffffffcd
     b14:	002ffb00 	eoreq	pc, pc, r0, lsl #22
     b18:	86000600 	strhi	r0, [r0], -r0, lsl #12
     b1c:	0500000b 	streq	r0, [r0, #-11]
     b20:	0013ea00 	andseq	lr, r3, r0, lsl #20
     b24:	91000500 	tstls	r0, r0, lsl #10
     b28:	05000029 	streq	r0, [r0, #-41]	@ 0xffffffd7
     b2c:	00049700 	andeq	r9, r4, r0, lsl #14
     b30:	69000600 	stmdbvs	r0, {r9, sl}
     b34:	05000018 	streq	r0, [r0, #-24]	@ 0xffffffe8
     b38:	00210c00 	eoreq	r0, r1, r0, lsl #24
     b3c:	45000600 	strmi	r0, [r0, #-1536]	@ 0xfffffa00
     b40:	0600001c 			@ <UNDEFINED> instruction: 0x0600001c
     b44:	0002ea00 	andeq	lr, r2, r0, lsl #20
     b48:	cf000600 	svcgt	0x00000600
     b4c:	06000038 			@ <UNDEFINED> instruction: 0x06000038
     b50:	00294b00 	eoreq	r4, r9, r0, lsl #22
     b54:	4c000600 	stcmi	6, cr0, [r0], {-0}
     b58:	06000027 	streq	r0, [r0], -r7, lsr #32
     b5c:	0021b900 	eoreq	fp, r1, r0, lsl #18
     b60:	d9000500 	stmdble	r0, {r8, sl}
     b64:	05000022 	streq	r0, [r0, #-34]	@ 0xffffffde
     b68:	001ff500 	andseq	pc, pc, r0, lsl #10
     b6c:	53000500 	tstpl	r0, #0, 10
     b70:	0000000e 	andeq	r0, r0, lr
     b74:	05000005 	streq	r0, [r0, #-5]
     b78:	0007c704 	andeq	ip, r7, r4, lsl #14
     b7c:	54060500 	strpl	r0, [r6], #-1280	@ 0xfffffb00
     b80:	0500001f 	streq	r0, [r0, #-31]	@ 0xffffffe1
     b84:	00087307 	andeq	r7, r8, r7, lsl #6
     b88:	cf080500 	svcgt	0x00080500
     b8c:	0500000a 	streq	r0, [r0, #-10]
     b90:	0019a309 	andseq	sl, r9, r9, lsl #6
     b94:	00050000 	andeq	r0, r5, r0
     b98:	9a210500 	bls	841fa0 <__max_heap_size+0x841ba0>
     b9c:	05000003 	streq	r0, [r0, #-3]
     ba0:	00277128 	eoreq	r7, r7, r8, lsr #2
     ba4:	02910500 	addseq	r0, r1, #0, 10
     ba8:	00001cc1 	andeq	r1, r0, r1, asr #25
     bac:	3c029705 	stccc	7, cr9, [r2], {5}
     bb0:	05000016 	streq	r0, [r0, #-22]	@ 0xffffffea
     bb4:	169a029d 			@ <UNDEFINED> instruction: 0x169a029d
     bb8:	a5050000 	strge	r0, [r5, #-0]
     bbc:	002ee502 	eoreq	lr, lr, r2, lsl #10
     bc0:	02b00500 	adcseq	r0, r0, #0, 10
     bc4:	00002b2f 	andeq	r2, r0, pc, lsr #22
     bc8:	aa02b605 	bge	ae3e4 <__max_heap_size+0xadfe4>
     bcc:	05000032 	streq	r0, [r0, #-50]	@ 0xffffffce
     bd0:	38e902c8 	stmiacc	r9!, {r3, r6, r7, r9}^
     bd4:	ce050000 	cdpgt	0, 0, cr0, cr5, cr0, {0}
     bd8:	00241602 	eoreq	r1, r4, r2, lsl #12
     bdc:	02dc0500 	sbcseq	r0, ip, #0, 10
     be0:	00000289 	andeq	r0, r0, r9, lsl #5
     be4:	5402ee05 	strpl	lr, [r2], #-3589	@ 0xfffff1fb
     be8:	0000000d 	andeq	r0, r0, sp
     bec:	05000005 	streq	r0, [r0, #-5]
     bf0:	0029cb0f 	eoreq	ip, r9, pc, lsl #22
     bf4:	191a0500 	ldmdbne	sl, {r8, sl}
     bf8:	0500003a 	streq	r0, [r0, #-58]	@ 0xffffffc6
     bfc:	0000d921 	andeq	sp, r0, r1, lsr #18
     c00:	bf2f0500 	svclt	0x002f0500
     c04:	0500000e 	streq	r0, [r0, #-14]
     c08:	002d2b3d 	eoreq	r2, sp, sp, lsr fp
     c0c:	3f530500 	svccc	0x00530500
     c10:	05000028 	streq	r0, [r0, #-40]	@ 0xffffffd8
     c14:	0013d56d 	andseq	sp, r3, sp, ror #10
     c18:	018c0500 	orreq	r0, ip, r0, lsl #10
     c1c:	0000352c 	andeq	r3, r0, ip, lsr #10
     c20:	fd01a605 			@ <UNDEFINED> instruction: 0xfd01a605
     c24:	0500001b 	streq	r0, [r0, #-27]	@ 0xffffffe5
     c28:	1ce301bc 	stclne	1, cr0, [r3], #752	@ 0x2f0
     c2c:	ce050000 	cdpgt	0, 0, cr0, cr5, cr0, {0}
     c30:	001a1101 	andseq	r1, sl, r1, lsl #2
     c34:	01f40600 	mvnseq	r0, r0, lsl #12
     c38:	000034f0 			@ <UNDEFINED> instruction: 0x000034f0
     c3c:	00000500 	andeq	r0, r0, r0, lsl #10
     c40:	1ac40a05 	bne	ff10345c <_estack+0xdf0eb45c>
     c44:	10050000 	andne	r0, r5, r0
     c48:	0000312e 	andeq	r3, r0, lr, lsr #2
     c4c:	6f492b06 	svcvs	0x00492b06
     c50:	2c060000 	stccs	0, cr0, [r6], {-0}
     c54:	00001434 	andeq	r1, r0, r4, lsr r4
     c58:	2aba2d06 	bcs	fee8c078 <_estack+0xdee74078>
     c5c:	2e060000 	cdpcs	0, 0, cr0, cr6, cr0, {0}
     c60:	000028b0 			@ <UNDEFINED> instruction: 0x000028b0
     c64:	6e692f02 	cdpvs	15, 6, cr2, cr9, cr2, {0}
     c68:	30060074 	andcc	r0, r6, r4, ror r0
     c6c:	000008c2 	andeq	r0, r0, r2, asr #17
     c70:	02233106 	eoreq	r3, r3, #-2147483647	@ 0x80000001
     c74:	32060000 	andcc	r0, r6, #0
     c78:	00004399 	muleq	r0, r9, r3
     c7c:	34cc3305 	strbcc	r3, [ip], #773	@ 0x305
     c80:	34050000 	strcc	r0, [r5], #-0
     c84:	000034ca 	andeq	r3, r0, sl, asr #9
     c88:	08dc3505 	ldmeq	ip, {r0, r2, r8, sl, ip, sp}^
     c8c:	36050000 	strcc	r0, [r5], -r0
     c90:	00000651 	andeq	r0, r0, r1, asr r6
     c94:	21423705 	cmpcs	r2, r5, lsl #14
     c98:	38050000 	stmdacc	r5, {}	@ <UNPREDICTABLE>
     c9c:	000026f2 			@ <UNDEFINED> instruction: 0x000026f2
     ca0:	08503905 	ldmdaeq	r0, {r0, r2, r8, fp, ip, sp}^
     ca4:	3a050000 	bcc	140cac <__max_heap_size+0x1408ac>
     ca8:	00003b35 	andeq	r3, r0, r5, lsr fp
     cac:	1a5a4305 	bne	16918c8 <__max_heap_size+0x16914c8>
     cb0:	4a050000 	bmi	140cb8 <__max_heap_size+0x1408b8>
     cb4:	00003684 	andeq	r3, r0, r4, lsl #13
     cb8:	23975205 	orrscs	r5, r7, #1342177280	@ 0x50000000
     cbc:	5d050000 	stcpl	0, cr0, [r5, #-0]
     cc0:	00002c1b 	andeq	r2, r0, fp, lsl ip
     cc4:	2a386805 	bcs	e1ace0 <__max_heap_size+0xe1a8e0>
     cc8:	71050000 	mrsvc	r0, (UNDEF: 5)
     ccc:	00002b0a 	andeq	r2, r0, sl, lsl #22
     cd0:	279e7805 	ldrcs	r7, [lr, r5, lsl #16]
     cd4:	81050000 	mrshi	r0, (UNDEF: 5)
     cd8:	00054d01 	andeq	r4, r5, r1, lsl #26
     cdc:	01880500 	orreq	r0, r8, r0, lsl #10
     ce0:	000009e5 	andeq	r0, r0, r5, ror #19
     ce4:	6c019305 	stcvs	3, cr9, [r1], {5}
     ce8:	05000017 	streq	r0, [r0, #-23]	@ 0xffffffe9
     cec:	25910197 	ldrcs	r0, [r1, #407]	@ 0x197
     cf0:	a2050000 	andge	r0, r5, #0
     cf4:	0015e901 	andseq	lr, r5, r1, lsl #18
     cf8:	01ad0500 			@ <UNDEFINED> instruction: 0x01ad0500
     cfc:	00003432 	andeq	r3, r0, r2, lsr r4
     d00:	bd01b605 	stclt	6, cr11, [r1, #-20]	@ 0xffffffec
     d04:	0600000b 	streq	r0, [r0], -fp
     d08:	6f4901b8 	svcvs	0x004901b8
     d0c:	b9060000 	stmdblt	r6, {}	@ <UNPREDICTABLE>
     d10:	00143401 	andseq	r3, r4, r1, lsl #8
     d14:	01ba0600 			@ <UNDEFINED> instruction: 0x01ba0600
     d18:	00002aba 			@ <UNDEFINED> instruction: 0x00002aba
     d1c:	b001bb06 	andlt	fp, r1, r6, lsl #22
     d20:	02000028 	andeq	r0, r0, #40	@ 0x28
     d24:	6e6901bc 	mcrvs	1, 3, r0, cr9, cr12, {5}
     d28:	bd060074 	stclt	0, cr0, [r6, #-464]	@ 0xfffffe30
     d2c:	00439901 	subeq	r9, r3, r1, lsl #18
     d30:	01c20600 	biceq	r0, r2, r0, lsl #12
     d34:	000008c2 	andeq	r0, r0, r2, asr #17
     d38:	2301c306 	tstcs	r1, #402653184	@ 0x18000000
     d3c:	00000002 	andeq	r0, r0, r2
     d40:	05000005 	streq	r0, [r0, #-5]
     d44:	0015230a 	andseq	r2, r5, sl, lsl #6
     d48:	90150500 	andsls	r0, r5, r0, lsl #10
     d4c:	05000031 	streq	r0, [r0, #-49]	@ 0xffffffcf
     d50:	0036ca19 	eorseq	ip, r6, r9, lsl sl
     d54:	c01b0500 	andsgt	r0, fp, r0, lsl #10
     d58:	0500000e 	streq	r0, [r0, #-14]
     d5c:	0023b121 	eoreq	fp, r3, r1, lsr #2
     d60:	a9250500 	stmdbge	r5!, {r8, sl}
     d64:	0500000b 	streq	r0, [r0, #-11]
     d68:	002d2c27 	eoreq	r2, sp, r7, lsr #24
     d6c:	692d0500 	pushvs	{r8, sl}
     d70:	0500002b 	streq	r0, [r0, #-43]	@ 0xffffffd5
     d74:	000a3231 	andeq	r3, sl, r1, lsr r2
     d78:	40330500 	eorsmi	r0, r3, r0, lsl #10
     d7c:	05000028 	streq	r0, [r0, #-40]	@ 0xffffffd8
     d80:	00392239 	eorseq	r2, r9, r9, lsr r2
     d84:	bb3d0500 	bllt	f4218c <__max_heap_size+0xf41d8c>
     d88:	05000012 	streq	r0, [r0, #-18]	@ 0xffffffee
     d8c:	0013d63f 	andseq	sp, r3, pc, lsr r6
     d90:	83440500 	cmphi	r4, #0, 10
     d94:	05000023 	streq	r0, [r0, #-35]	@ 0xffffffdd
     d98:	0020f749 	eoreq	pc, r0, r9, asr #14
     d9c:	584e0500 	stmdapl	lr, {r8, sl}^
     da0:	05000038 	streq	r0, [r0, #-56]	@ 0xffffffc8
     da4:	0030bf53 	eorseq	fp, r0, r3, asr pc
     da8:	00050000 	andeq	r0, r5, r0
     dac:	2d170500 	ldccs	5, cr0, [r7, #-0]
     db0:	05000035 	streq	r0, [r0, #-53]	@ 0xffffffcb
     db4:	001bfe1d 	andseq	pc, fp, sp, lsl lr	@ <UNPREDICTABLE>
     db8:	e4230500 	strt	r0, [r3], #-1280	@ 0xfffffb00
     dbc:	0500001c 	streq	r0, [r0, #-28]	@ 0xffffffe4
     dc0:	001a1229 	andseq	r1, sl, r9, lsr #4
     dc4:	99350500 	ldmdbls	r5!, {r8, sl}
     dc8:	05000024 	streq	r0, [r0, #-36]	@ 0xffffffdc
     dcc:	0026513f 	eoreq	r5, r6, pc, lsr r1
     dd0:	fe490500 			@ <UNDEFINED> instruction: 0xfe490500
     dd4:	05000037 	streq	r0, [r0, #-55]	@ 0xffffffc9
     dd8:	001e0753 	andseq	r0, lr, r3, asr r7
     ddc:	01800500 	orreq	r0, r0, r0, lsl #10
     de0:	00002970 	andeq	r2, r0, r0, ror r9
     de4:	46018105 	strmi	r8, [r1], -r5, lsl #2
     de8:	05000009 	streq	r0, [r0, #-9]
     dec:	2bb30182 	blcs	fecc13fc <_estack+0xdeca93fc>
     df0:	98050000 	stmdals	r5, {}	@ <UNPREDICTABLE>
     df4:	003a7301 	eorseq	r7, sl, r1, lsl #6
     df8:	01990500 	orrseq	r0, r9, r0, lsl #10
     dfc:	0000325f 	andeq	r3, r0, pc, asr r2
     e00:	2d019a05 	vstrcs	s18, [r1, #-20]	@ 0xffffffec
     e04:	0500003a 	streq	r0, [r0, #-58]	@ 0xffffffc6
     e08:	17b901a2 	ldrne	r0, [r9, r2, lsr #3]!
     e0c:	a3050000 	tstge	r5, #0
     e10:	0000b501 	andeq	fp, r0, r1, lsl #10
     e14:	01a40500 			@ <UNDEFINED> instruction: 0x01a40500
     e18:	0000034b 	andeq	r0, r0, fp, asr #6
     e1c:	1501ae05 	strne	sl, [r1, #-3589]	@ 0xfffff1fb
     e20:	05000027 	streq	r0, [r0, #-39]	@ 0xffffffd9
     e24:	1dbf01af 	ldcne	1, cr0, [pc, #700]!	@ 10e8 <__max_heap_size+0xce8>
     e28:	b0050000 	andlt	r0, r5, r0
     e2c:	0013b901 	andseq	fp, r3, r1, lsl #18
     e30:	01b80500 			@ <UNDEFINED> instruction: 0x01b80500
     e34:	000027cb 	andeq	r2, r0, fp, asr #15
     e38:	2301b905 	tstcs	r1, #81920	@ 0x14000
     e3c:	05000011 	streq	r0, [r0, #-17]	@ 0xffffffef
     e40:	33ba01ba 			@ <UNDEFINED> instruction: 0x33ba01ba
     e44:	c4050000 	strgt	r0, [r5], #-0
     e48:	001a9301 	andseq	r9, sl, r1, lsl #6
     e4c:	01c50500 	biceq	r0, r5, r0, lsl #10
     e50:	00002af0 			@ <UNDEFINED> instruction: 0x00002af0
     e54:	0801c605 	stmdaeq	r1, {r0, r2, r9, sl, lr, pc}
     e58:	0500000f 	streq	r0, [r0, #-15]
     e5c:	1ba201d4 	blne	fe8815b4 <_estack+0xde8695b4>
     e60:	d5050000 	strle	r0, [r5, #-0]
     e64:	0014c301 	andseq	ip, r4, r1, lsl #6
     e68:	01d60500 	bicseq	r0, r6, r0, lsl #10
     e6c:	00000247 	andeq	r0, r0, r7, asr #4
     e70:	ba01e605 	blt	7a68c <__max_heap_size+0x7a28c>
     e74:	05000022 	streq	r0, [r0, #-34]	@ 0xffffffde
     e78:	317601e7 	cmncc	r6, r7, ror #3
     e7c:	e8050000 	stmda	r5, {}	@ <UNPREDICTABLE>
     e80:	001bcd01 	andseq	ip, fp, r1, lsl #26
     e84:	01f60500 	mvnseq	r0, r0, lsl #10
     e88:	000001ab 	andeq	r0, r0, fp, lsr #3
     e8c:	5201f705 	andpl	pc, r1, #1310720	@ 0x140000
     e90:	05000030 	streq	r0, [r0, #-48]	@ 0xffffffd0
     e94:	090301f8 	stmdbeq	r3, {r3, r4, r5, r6, r7, r8}
     e98:	86050000 	strhi	r0, [r5], -r0
     e9c:	00383102 	eorseq	r3, r8, r2, lsl #2
     ea0:	02870500 	addeq	r0, r7, #0, 10
     ea4:	00002cf7 			@ <UNDEFINED> instruction: 0x00002cf7
     ea8:	d4028805 	strle	r8, [r2], #-2053	@ 0xfffff7fb
     eac:	05000030 	streq	r0, [r0, #-48]	@ 0xffffffd0
     eb0:	21d70296 			@ <UNDEFINED> instruction: 0x21d70296
     eb4:	97050000 	strls	r0, [r5, -r0]
     eb8:	001fd102 	andseq	sp, pc, r2, lsl #2
     ebc:	02980500 	addseq	r0, r8, #0, 10
     ec0:	00003b0f 	andeq	r3, r0, pc, lsl #22
     ec4:	8002a605 	andhi	sl, r2, r5, lsl #12
     ec8:	05000014 	streq	r0, [r0, #-20]	@ 0xffffffec
     ecc:	354602a7 	strbcc	r0, [r6, #-679]	@ 0xfffffd59
     ed0:	a8050000 	stmdage	r5, {}	@ <UNPREDICTABLE>
     ed4:	00302c02 	eorseq	r2, r0, r2, lsl #24
     ed8:	02b60500 	adcseq	r0, r6, #0, 10
     edc:	00000434 	andeq	r0, r0, r4, lsr r4
     ee0:	4502b705 	strmi	fp, [r2, #-1797]	@ 0xfffff8fb
     ee4:	0500002b 	streq	r0, [r0, #-43]	@ 0xffffffd5
     ee8:	336802b8 	cmncc	r8, #184, 4	@ 0x8000000b
     eec:	c6050000 	strgt	r0, [r5], -r0
     ef0:	00375402 	eorseq	r5, r7, r2, lsl #8
     ef4:	02c70500 	sbceq	r0, r7, #0, 10
     ef8:	0000014a 	andeq	r0, r0, sl, asr #2
     efc:	ec02cf05 	stc	15, cr12, [r2], {5}
     f00:	05000012 	streq	r0, [r0, #-18]	@ 0xffffffee
     f04:	2d6702d7 	stclcs	2, cr0, [r7, #-860]!	@ 0xfffffca4
     f08:	dd050000 	stcle	0, cr0, [r5, #-0]
     f0c:	00216202 	eoreq	r6, r1, r2, lsl #4
     f10:	02de0500 	sbcseq	r0, lr, #0, 10
     f14:	000004b4 			@ <UNDEFINED> instruction: 0x000004b4
     f18:	d902e205 	stmdble	r2, {r0, r2, r9, sp, lr, pc}
     f1c:	05000020 	streq	r0, [r0, #-32]	@ 0xffffffe0
     f20:	389902e6 	ldmcc	r9, {r1, r2, r5, r6, r7, r9}
     f24:	eb050000 	bl	140f2c <__max_heap_size+0x140b2c>
     f28:	00307802 	eorseq	r7, r0, r2, lsl #16
     f2c:	02f60500 	rscseq	r0, r6, #0, 10
     f30:	00001b09 	andeq	r1, r0, r9, lsl #22
     f34:	fb038005 			@ <UNDEFINED> instruction: 0xfb038005
     f38:	0500002d 	streq	r0, [r0, #-45]	@ 0xffffffd3
     f3c:	2ad80385 	bcs	ff601d58 <_estack+0xdf5e9d58>
     f40:	8c050000 	stchi	0, cr0, [r5], {-0}
     f44:	003ad903 	eorseq	sp, sl, r3, lsl #18
     f48:	038d0500 	orreq	r0, sp, #0, 10
     f4c:	00001fb9 			@ <UNDEFINED> instruction: 0x00001fb9
     f50:	02039805 	andeq	r9, r3, #327680	@ 0x50000
     f54:	05000014 	streq	r0, [r0, #-20]	@ 0xffffffec
     f58:	1e470399 	mcrne	3, 2, r0, cr7, cr9, {4}
     f5c:	a4050000 	strge	r0, [r5], #-0
     f60:	00083803 	andeq	r3, r8, r3, lsl #16
     f64:	03a50500 			@ <UNDEFINED> instruction: 0x03a50500
     f68:	000023eb 	andeq	r2, r0, fp, ror #7
     f6c:	9c03b105 	stcls	1, cr11, [r3], {5}
     f70:	05000007 	streq	r0, [r0, #-7]
     f74:	022d03b2 	eoreq	r0, sp, #-939524094	@ 0xc8000002
     f78:	c1050000 	mrsgt	r0, (UNDEF: 5)
     f7c:	0036dd03 	eorseq	sp, r6, r3, lsl #26
     f80:	03c20500 	biceq	r0, r2, #0, 10
     f84:	00002da2 	andeq	r2, r0, r2, lsr #27
     f88:	00000500 	andeq	r0, r0, r0, lsl #10
     f8c:	14a91d05 	strtne	r1, [r9], #3333	@ 0xd05
     f90:	24050000 	strcs	r0, [r5], #-0
     f94:	00000c38 	andeq	r0, r0, r8, lsr ip
     f98:	39352505 	ldmdbcc	r5!, {r0, r2, r8, sl, sp}
     f9c:	26050000 	strcs	r0, [r5], -r0
     fa0:	00003ad1 			@ <UNDEFINED> instruction: 0x00003ad1
     fa4:	11b93105 			@ <UNDEFINED> instruction: 0x11b93105
     fa8:	05000000 	streq	r0, [r0, #-0]
     fac:	02430200 	subeq	r0, r3, #0, 4
     fb0:	a8070000 	stmdage	r7, {}	@ <UNPREDICTABLE>
     fb4:	03000000 	tsteq	r0, #0
     fb8:	01030100 	mrseq	r0, (UNDEF: 19)
     fbc:	05090304 	streq	r0, [r9, #-772]	@ 0xfffffcfc
     fc0:	0c0c0a05 			@ <UNDEFINED> instruction: 0x0c0c0a05
     fc4:	0c030000 	stceq	0, cr0, [r3], {-0}
     fc8:	e2060502 	and	r0, r6, #8388608	@ 0x800000
     fcc:	03000028 	tsteq	r0, #40	@ 0x28
     fd0:	16050608 	strne	r0, [r5], -r8, lsl #12
     fd4:	00000fbb 			@ <UNDEFINED> instruction: 0x00000fbb
     fd8:	07071c03 	streq	r1, [r7, -r3, lsl #24]
     fdc:	00000b74 	andeq	r0, r0, r4, ror fp
     fe0:	0b960704 	bleq	fe582bf8 <_estack+0xde56abf8>
     fe4:	07040000 	streq	r0, [r4, -r0]
     fe8:	00000bec 	andeq	r0, r0, ip, ror #23
     fec:	080d0304 	stmdaeq	sp, {r2, r8, r9}
     ff0:	000c3d07 	andeq	r3, ip, r7, lsl #26
     ff4:	0e030400 	cdpeq	4, 0, cr0, cr3, cr0, {0}
     ff8:	0d400703 	stcleq	7, cr0, [r0, #-12]
     ffc:	07040000 	streq	r0, [r4, -r0]
    1000:	00000daa 	andeq	r0, r0, sl, lsr #27
    1004:	030d0504 	tsteq	sp, #4, 10	@ 0x1000000
    1008:	0400000c 	streq	r0, [r0], #-12
    100c:	3d8e0305 	stccc	3, cr0, [lr, #20]
    1010:	04050000 	streq	r0, [r5], #-0
    1014:	00003d60 	andeq	r3, r0, r0, ror #26
    1018:	3d2c0505 	stccc	5, cr0, [ip, #-20]!	@ 0xffffffec
    101c:	06050000 	streq	r0, [r5], -r0
    1020:	00003ce5 	andeq	r3, r0, r5, ror #25
    1024:	3db70f05 	ldccc	15, cr0, [r7, #20]!
    1028:	00040000 	andeq	r0, r4, r0
    102c:	b8020005 	stmdalt	r2, {r0, r2}
    1030:	07000004 	streq	r0, [r0, -r4]
    1034:	000000a8 	andeq	r0, r0, r8, lsr #1
    1038:	03010003 	tsteq	r1, #3
    103c:	b0070201 	andlt	r0, r7, r1, lsl #4
    1040:	04000011 	streq	r0, [r0], #-17	@ 0xffffffef
    1044:	030a0203 	tsteq	sl, #805306368	@ 0x30000000
    1048:	0a050b09 	beq	143c74 <__max_heap_size+0x143874>
    104c:	00000c0c 	andeq	r0, r0, ip, lsl #24
    1050:	05030c03 	streq	r0, [r3, #-3075]	@ 0xfffff3fd
    1054:	0028e206 	eoreq	lr, r8, r6, lsl #4
    1058:	0c080300 	stceq	3, cr0, [r8], {-0}
    105c:	0fbb1605 	svceq	0x00bb1605
    1060:	1c030000 	stcne	0, cr0, [r3], {-0}
    1064:	0b74070d 	bleq	1d02ca0 <__max_heap_size+0x1d028a0>
    1068:	07040000 	streq	r0, [r4, -r0]
    106c:	00000b96 	muleq	r0, r6, fp
    1070:	0bec0704 	bleq	ffb02c88 <_estack+0xdfaeac88>
    1074:	03040000 	tsteq	r4, #0
    1078:	3d070e0d 	stccc	14, cr0, [r7, #-52]	@ 0xffffffcc
    107c:	0400000c 	streq	r0, [r0], #-12
    1080:	07040e03 	streq	r0, [r4, -r3, lsl #28]
    1084:	00000d40 	andeq	r0, r0, r0, asr #26
    1088:	0daa0704 	stceq	7, cr0, [sl, #16]!
    108c:	05040000 	streq	r0, [r4, #-0]
    1090:	000c030d 	andeq	r0, ip, sp, lsl #6
    1094:	03030400 	tsteq	r3, #0, 8
    1098:	be020508 	cdplt	5, 0, cr0, cr2, cr8, {0}
    109c:	03000083 	tsteq	r0, #131	@ 0x83
    10a0:	08050f08 	stmdaeq	r5, {r3, r8, r9, sl, fp}
    10a4:	000063bb 			@ <UNDEFINED> instruction: 0x000063bb
    10a8:	07100a03 	ldreq	r0, [r0, -r3, lsl #20]
    10ac:	00001340 	andeq	r1, r0, r0, asr #6
    10b0:	110b0304 	tstne	fp, r4, lsl #6
    10b4:	61650205 	cmnvs	r5, r5, lsl #4
    10b8:	04030000 	streq	r0, [r3], #-0
    10bc:	13bb0712 			@ <UNDEFINED> instruction: 0x13bb0712
    10c0:	07040000 	streq	r0, [r4, -r0]
    10c4:	000013e5 	andeq	r1, r0, r5, ror #7
    10c8:	14210704 	strtne	r0, [r1], #-1796	@ 0xfffff8fc
    10cc:	03040000 	tsteq	r4, #0
    10d0:	08051309 	stmdaeq	r5, {r0, r3, r8, r9, ip}
    10d4:	000058d0 			@ <UNDEFINED> instruction: 0x000058d0
    10d8:	040f0a03 	streq	r0, [pc], #-2563	@ 10e0 <__max_heap_size+0xce0>
    10dc:	05140b03 	ldreq	r0, [r4, #-2819]	@ 0xfffff4fd
    10e0:	0050ec2b 	subseq	lr, r0, fp, lsr #24
    10e4:	022f0300 	eoreq	r0, pc, #0, 6
    10e8:	14550704 	ldrbne	r0, [r5], #-1796	@ 0xfffff8fc
    10ec:	03040000 	tsteq	r4, #0
    10f0:	0b05150c 	bleq	146528 <__max_heap_size+0x146128>
    10f4:	000064c9 	andeq	r6, r0, r9, asr #9
    10f8:	04020e03 	streq	r0, [r2], #-3587	@ 0xfffff1fd
    10fc:	07051003 	streq	r1, [r5, -r3]
    1100:	000017b9 			@ <UNDEFINED> instruction: 0x000017b9
    1104:	07021803 	streq	r1, [r2, -r3, lsl #16]
    1108:	000017cf 	andeq	r1, r0, pc, asr #15
    110c:	161b0304 	ldrne	r0, [fp], -r4, lsl #6
    1110:	592b0605 	stmdbpl	fp!, {r0, r2, r9, sl}
    1114:	07040000 	streq	r0, [r4, -r0]
    1118:	00001819 	andeq	r1, r0, r9, lsl r8
    111c:	184d0704 	stmdane	sp, {r2, r8, r9, sl}^
    1120:	23030000 	tstcs	r3, #0
    1124:	185d0717 	ldmdane	sp, {r0, r1, r2, r4, r8, r9, sl}^
    1128:	07040000 	streq	r0, [r4, -r0]
    112c:	000018b5 			@ <UNDEFINED> instruction: 0x000018b5
    1130:	1a9a0704 	bne	fe682d48 <_estack+0xde66ad48>
    1134:	10030000 	andne	r0, r3, r0
    1138:	1aaa0702 	bne	fea82d48 <_estack+0xdea6ad48>
    113c:	03040000 	tsteq	r4, #0
    1140:	e6071813 			@ <UNDEFINED> instruction: 0xe6071813
    1144:	0400001a 	streq	r0, [r0], #-26	@ 0xffffffe6
    1148:	001af607 	andseq	pc, sl, r7, lsl #12
    114c:	061c0300 	ldreq	r0, [ip], -r0, lsl #6
    1150:	001b0607 	andseq	r0, fp, r7, lsl #12
    1154:	01dd0300 	bicseq	r0, sp, r0, lsl #6
    1158:	80130519 	andshi	r0, r3, r9, lsl r5
    115c:	04000075 	streq	r0, [r0], #-117	@ 0xffffff8b
    1160:	1a01de03 	bne	78974 <__max_heap_size+0x78574>
    1164:	01e20604 	mvneq	r0, r4, lsl #12
    1168:	00008081 	andeq	r8, r0, r1, lsl #1
    116c:	1b1d0304 	blne	741d84 <__max_heap_size+0x741984>
    1170:	68d82305 	ldmvs	r8, {r0, r2, r8, r9, sp}^
    1174:	26030000 	strcs	r0, [r3], -r0
    1178:	7c250507 	stcvc	5, cr0, [r5], #-28	@ 0xffffffe4
    117c:	04000047 	streq	r0, [r0], #-71	@ 0xffffffb9
    1180:	1bbe0704 	blne	fef82d98 <_estack+0xdef6ad98>
    1184:	07040000 	streq	r0, [r4, -r0]
    1188:	00001bec 	andeq	r1, r0, ip, ror #23
    118c:	1c050304 	stcne	3, cr0, [r5], {4}
    1190:	56ce0205 	strbpl	r0, [lr], r5, lsl #4
    1194:	04030000 	streq	r0, [r3], #-0
    1198:	1cee0709 	stclne	7, cr0, [lr], #36	@ 0x24
    119c:	0e030000 	cdpeq	0, 0, cr0, cr3, cr0, {0}
    11a0:	1aaa0702 	bne	fea82db0 <_estack+0xdea6adb0>
    11a4:	07040000 	streq	r0, [r4, -r0]
    11a8:	00001d04 	andeq	r1, r0, r4, lsl #26
    11ac:	00040404 	andeq	r0, r4, r4, lsl #8
    11b0:	05000005 	streq	r0, [r0, #-5]
    11b4:	005bd327 	subseq	sp, fp, r7, lsr #6
    11b8:	39280500 	stmdbcc	r8!, {r8, sl}
    11bc:	0500006c 	streq	r0, [r0, #-108]	@ 0xffffff94
    11c0:	005bce2a 	subseq	ip, fp, sl, lsr #28
    11c4:	01840500 	orreq	r0, r4, r0, lsl #10
    11c8:	000068ee 	andeq	r6, r0, lr, ror #17
    11cc:	24018505 	strcs	r8, [r1], #-1285	@ 0xfffffafb
    11d0:	05000051 	streq	r0, [r0, #-81]	@ 0xffffffaf
    11d4:	65350186 	ldrvs	r0, [r5, #-390]!	@ 0xfffffe7a
    11d8:	87050000 	strhi	r0, [r5, -r0]
    11dc:	006e7d01 	rsbeq	r7, lr, r1, lsl #26
    11e0:	01880500 	orreq	r0, r8, r0, lsl #10
    11e4:	0000432f 	andeq	r4, r0, pc, lsr #6
    11e8:	2b018905 	blcs	63604 <__max_heap_size+0x63204>
    11ec:	05000043 	streq	r0, [r0, #-67]	@ 0xffffffbd
    11f0:	5b2a018a 	blpl	a81820 <__max_heap_size+0xa81420>
    11f4:	8b050000 	blhi	1411fc <__max_heap_size+0x140dfc>
    11f8:	0068ea01 	rsbeq	lr, r8, r1, lsl #20
    11fc:	018c0500 	orreq	r0, ip, r0, lsl #10
    1200:	000066a9 	andeq	r6, r0, r9, lsr #13
    1204:	40018d05 	andmi	r8, r1, r5, lsl #26
    1208:	06000080 	streq	r0, [r0], -r0, lsl #1
    120c:	78e9019e 	stmiavc	r9!, {r1, r2, r3, r4, r7, r8}^
    1210:	b9050000 	stmdblt	r5, {}	@ <UNPREDICTABLE>
    1214:	0046ce01 	subeq	ip, r6, r1, lsl #28
    1218:	01ba0500 			@ <UNDEFINED> instruction: 0x01ba0500
    121c:	000041e4 	andeq	r4, r0, r4, ror #3
    1220:	4201bb05 	andmi	fp, r1, #5120	@ 0x1400
    1224:	0500007c 	streq	r0, [r0, #-124]	@ 0xffffff84
    1228:	452201bc 	strmi	r0, [r2, #-444]!	@ 0xfffffe44
    122c:	bd050000 	stclt	0, cr0, [r5, #-0]
    1230:	00593e01 	subseq	r3, r9, r1, lsl #28
    1234:	01be0500 			@ <UNDEFINED> instruction: 0x01be0500
    1238:	000043b4 			@ <UNDEFINED> instruction: 0x000043b4
    123c:	4501bf05 	strmi	fp, [r1, #-3845]	@ 0xfffff0fb
    1240:	0500006c 	streq	r0, [r0, #-108]	@ 0xffffff94
    1244:	71cd01c0 	bicvc	r0, sp, r0, asr #3
    1248:	c1050000 	mrsgt	r0, (UNDEF: 5)
    124c:	0071c901 	rsbseq	ip, r1, r1, lsl #18
    1250:	01c20500 	biceq	r0, r2, r0, lsl #10
    1254:	00004b30 	andeq	r4, r0, r0, lsr fp
    1258:	6c01c305 	stcvs	3, cr12, [r1], {5}
    125c:	0500006e 	streq	r0, [r0, #-110]	@ 0xffffff92
    1260:	4b2c01c4 	blmi	b01978 <__max_heap_size+0xb01578>
    1264:	c5050000 	strgt	r0, [r5, #-0]
    1268:	00478f01 	subeq	r8, r7, r1, lsl #30
    126c:	01c60500 	biceq	r0, r6, r0, lsl #10
    1270:	00004c12 	andeq	r4, r0, r2, lsl ip
    1274:	4201c705 	andmi	ip, r1, #1310720	@ 0x140000
    1278:	0500004b 	streq	r0, [r0, #-75]	@ 0xffffffb5
    127c:	7c3e01c8 	ldcvc	1, cr0, [lr], #-800	@ 0xfffffce0
    1280:	c9050000 	stmdbgt	r5, {}	@ <UNPREDICTABLE>
    1284:	0053de01 	subseq	sp, r3, r1, lsl #28
    1288:	01d00500 	bicseq	r0, r0, r0, lsl #10
    128c:	00004368 	andeq	r4, r0, r8, ror #6
    1290:	2b01ed06 	blcs	7c6b0 <__max_heap_size+0x7c2b0>
    1294:	0500005d 	streq	r0, [r0, #-93]	@ 0xffffffa3
    1298:	5fae028b 	svcpl	0x00ae028b
    129c:	8c050000 	stchi	0, cr0, [r5], {-0}
    12a0:	00659702 	rsbeq	r9, r5, r2, lsl #14
    12a4:	028d0500 	addeq	r0, sp, #0, 10
    12a8:	000065ce 	andeq	r6, r0, lr, asr #11
    12ac:	73028e05 	tstvc	r2, #5, 28	@ 0x50
    12b0:	0500007c 	streq	r0, [r0, #-124]	@ 0xffffff84
    12b4:	722e028f 	eorvc	r0, lr, #-268435448	@ 0xf0000008
    12b8:	90050000 	andls	r0, r5, r0
    12bc:	00615a02 	rsbeq	r5, r1, r2, lsl #20
    12c0:	02910500 	addseq	r0, r1, #0, 10
    12c4:	00005479 	andeq	r5, r0, r9, ror r4
    12c8:	75029205 	strvc	r9, [r2, #-517]	@ 0xfffffdfb
    12cc:	05000054 	streq	r0, [r0, #-84]	@ 0xffffffac
    12d0:	82840293 	addhi	r0, r4, #805306377	@ 0x30000009
    12d4:	94050000 	strls	r0, [r5], #-0
    12d8:	00700602 	rsbseq	r0, r0, r2, lsl #12
    12dc:	02950500 	addseq	r0, r5, #0, 10
    12e0:	000072b0 			@ <UNDEFINED> instruction: 0x000072b0
    12e4:	5f029605 	svcpl	0x00029605
    12e8:	0500007b 	streq	r0, [r0, #-123]	@ 0xffffff85
    12ec:	72ab0297 	adcvc	r0, fp, #1879048201	@ 0x70000009
    12f0:	98050000 	stmdals	r5, {}	@ <UNPREDICTABLE>
    12f4:	0065ca02 	rsbeq	ip, r5, r2, lsl #20
    12f8:	02990500 	addseq	r0, r9, #0, 10
    12fc:	000064b1 			@ <UNDEFINED> instruction: 0x000064b1
    1300:	06029a05 	streq	r9, [r2], -r5, lsl #20
    1304:	06000060 	streq	r0, [r0], -r0, rrx
    1308:	7caa02a7 	stcvc	2, cr0, [sl], #668	@ 0x29c
    130c:	dd060000 	stcle	0, cr0, [r6, #-0]
    1310:	00429402 	subeq	r9, r2, r2, lsl #8
    1314:	038f0600 	orreq	r0, pc, #0, 12
    1318:	000056c9 	andeq	r5, r0, r9, asr #13
    131c:	00039405 	andeq	r9, r3, r5, lsl #8
    1320:	06000056 			@ <UNDEFINED> instruction: 0x06000056
    1324:	56c2039a 			@ <UNDEFINED> instruction: 0x56c2039a
    1328:	9f060000 	svcls	0x00060000
    132c:	00805503 	addeq	r5, r0, r3, lsl #10
    1330:	03a00500 	moveq	r0, #0, 10
    1334:	00005a8c 	andeq	r5, r0, ip, lsl #21
    1338:	4103a505 	tstmi	r3, r5, lsl #10
    133c:	00000074 	andeq	r0, r0, r4, ror r0
    1340:	05000005 	streq	r0, [r0, #-5]
    1344:	0044a207 	subeq	sl, r4, r7, lsl #4
    1348:	131b0500 	tstne	fp, #0, 10
    134c:	0500005d 	streq	r0, [r0, #-93]	@ 0xffffffa3
    1350:	006b5c21 	rsbeq	r5, fp, r1, lsr #24
    1354:	97240500 	strls	r0, [r4, -r0, lsl #10]!
    1358:	05000075 	streq	r0, [r0, #-117]	@ 0xffffff8b
    135c:	00618f27 	rsbeq	r8, r1, r7, lsr #30
    1360:	e92b0500 	stmdb	fp!, {r8, sl}
    1364:	05000072 	streq	r0, [r0, #-114]	@ 0xffffff8e
    1368:	004d302e 	subeq	r3, sp, lr, lsr #32
    136c:	02e30500 	rsceq	r0, r3, #0, 10
    1370:	0000835d 	andeq	r8, r0, sp, asr r3
    1374:	9c02e905 			@ <UNDEFINED> instruction: 0x9c02e905
    1378:	0500006f 	streq	r0, [r0, #-111]	@ 0xffffff91
    137c:	4e4e02ec 	cdpmi	2, 4, cr0, cr14, cr12, {7}
    1380:	f7050000 			@ <UNDEFINED> instruction: 0xf7050000
    1384:	00793302 	rsbseq	r3, r9, r2, lsl #6
    1388:	02fa0500 	rscseq	r0, sl, #0, 10
    138c:	0000785f 	andeq	r7, r0, pc, asr r8
    1390:	2902fd05 	stmdbcs	r2, {r0, r2, r8, sl, fp, ip, sp, lr, pc}
    1394:	05000071 	streq	r0, [r0, #-113]	@ 0xffffff8f
    1398:	63d90381 	bicsvs	r0, r9, #67108866	@ 0x4000002
    139c:	89050000 	stmdbhi	r5, {}	@ <UNPREDICTABLE>
    13a0:	00450d03 	subeq	r0, r5, r3, lsl #26
    13a4:	039a0500 	orrseq	r0, sl, #0, 10
    13a8:	00006749 	andeq	r6, r0, r9, asr #14
    13ac:	e8039d05 	stmda	r3, {r0, r2, r8, sl, fp, ip, pc}
    13b0:	0500005c 	streq	r0, [r0, #-92]	@ 0xffffffa4
    13b4:	52c503a3 	sbcpl	r0, r5, #-1946157054	@ 0x8c000002
    13b8:	05000000 	streq	r0, [r0, #-0]
    13bc:	4d050000 	stcmi	0, cr0, [r5, #-0]
    13c0:	0000706b 	andeq	r7, r0, fp, rrx
    13c4:	80075b05 	andhi	r5, r7, r5, lsl #22
    13c8:	62050000 	andvs	r0, r5, #0
    13cc:	00004e5c 	andeq	r4, r0, ip, asr lr
    13d0:	63f66305 	mvnsvs	r6, #335544320	@ 0x14000000
    13d4:	8b050000 	blhi	1413dc <__max_heap_size+0x140fdc>
    13d8:	0065f604 	rsbeq	pc, r5, r4, lsl #12
    13dc:	048e0500 	streq	r0, [lr], #1280	@ 0x500
    13e0:	000053b6 			@ <UNDEFINED> instruction: 0x000053b6
    13e4:	00000500 	andeq	r0, r0, r0, lsl #10
    13e8:	8c01e005 	stchi	0, cr14, [r1], {5}
    13ec:	06000043 	streq	r0, [r0], -r3, asr #32
    13f0:	44c901e6 	strbmi	r0, [r9], #486	@ 0x1e6
    13f4:	ea050000 	b	1413fc <__max_heap_size+0x140ffc>
    13f8:	0068a801 	rsbeq	sl, r8, r1, lsl #16
    13fc:	01f80500 	mvnseq	r0, r0, lsl #10
    1400:	000065ec 	andeq	r6, r0, ip, ror #11
    1404:	8701fc05 	strhi	pc, [r1, -r5, lsl #24]
    1408:	05000066 	streq	r0, [r0, #-102]	@ 0xffffff9a
    140c:	4bba0283 	blmi	fee81e20 <_estack+0xdee69e20>
    1410:	89050000 	stmdbhi	r5, {}	@ <UNPREDICTABLE>
    1414:	00483002 	subeq	r3, r8, r2
    1418:	02a20500 	adceq	r0, r2, #0, 10
    141c:	000059db 			@ <UNDEFINED> instruction: 0x000059db
    1420:	00000500 	andeq	r0, r0, r0, lsl #10
    1424:	67ca1f05 	strbvs	r1, [sl, r5, lsl #30]
    1428:	20050000 	andcs	r0, r5, r0
    142c:	000051af 	andeq	r5, r0, pc, lsr #3
    1430:	633a2105 	teqvs	sl, #1073741825	@ 0x40000001
    1434:	25050000 	strcs	r0, [r5, #-0]
    1438:	00003ed5 			@ <UNDEFINED> instruction: 0x00003ed5
    143c:	77ee2b05 	strbvc	r2, [lr, r5, lsl #22]!
    1440:	45050000 	strmi	r0, [r5, #-0]
    1444:	00007bbc 			@ <UNDEFINED> instruction: 0x00007bbc
    1448:	46a54905 	strtmi	r4, [r5], r5, lsl #18
    144c:	4a050000 	bmi	141454 <__max_heap_size+0x141054>
    1450:	00007453 	andeq	r7, r0, r3, asr r4
    1454:	00000500 	andeq	r0, r0, r0, lsl #10
    1458:	4b733105 	blmi	1ccd874 <__max_heap_size+0x1ccd474>
    145c:	32050000 	andcc	r0, r5, #0
    1460:	00006ded 	andeq	r6, r0, sp, ror #27
    1464:	62d63305 	sbcsvs	r3, r6, #335544320	@ 0x14000000
    1468:	36050000 	strcc	r0, [r5], -r0
    146c:	000048f9 			@ <UNDEFINED> instruction: 0x000048f9
    1470:	49943905 	ldmibmi	r4, {r0, r2, r8, fp, ip, sp}
    1474:	3a050000 	bcc	14147c <__max_heap_size+0x14107c>
    1478:	00007e28 	andeq	r7, r0, r8, lsr #28
    147c:	59483c05 	stmdbpl	r8, {r0, r2, sl, fp, ip, sp}^
    1480:	3d050000 	stccc	0, cr0, [r5, #-0]
    1484:	000052b1 			@ <UNDEFINED> instruction: 0x000052b1
    1488:	4b093e05 	blmi	250ca4 <__max_heap_size+0x2508a4>
    148c:	3f050000 	svccc	0x00050000
    1490:	00007911 	andeq	r7, r0, r1, lsl r9
    1494:	582f4205 	stmdapl	pc!, {r0, r2, r9, lr}	@ <UNPREDICTABLE>
    1498:	43050000 	tstmi	r5, #0
    149c:	00004154 	andeq	r4, r0, r4, asr r1
    14a0:	830e4405 	tsthi	lr, #83886080	@ 0x5000000
    14a4:	5e050000 	cdppl	0, 0, cr0, cr5, cr0, {0}
    14a8:	00006d0a 	andeq	r6, r0, sl, lsl #26
    14ac:	75f25f05 	ldrbvc	r5, [r2, #3845]!	@ 0xf05
    14b0:	6b050000 	blvs	1414b8 <__max_heap_size+0x1410b8>
    14b4:	00007ad3 			@ <UNDEFINED> instruction: 0x00007ad3
    14b8:	5b7e6c05 	blpl	1f9c4d4 <__max_heap_size+0x1f9c0d4>
    14bc:	70050000 	andvc	r0, r5, r0
    14c0:	00003fbc 			@ <UNDEFINED> instruction: 0x00003fbc
    14c4:	3dcb7105 	stclcc	1, cr7, [fp, #20]
    14c8:	73050000 	tstvc	r5, #0
    14cc:	00005034 	andeq	r5, r0, r4, lsr r0
    14d0:	44e37505 	strbtmi	r7, [r3], #1285	@ 0x505
    14d4:	78050000 	stmdavc	r5, {}	@ <UNPREDICTABLE>
    14d8:	00006be0 	andeq	r6, r0, r0, ror #23
    14dc:	42787905 	rsbsmi	r7, r8, #81920	@ 0x14000
    14e0:	7a050000 	bvc	1414e8 <__max_heap_size+0x1410e8>
    14e4:	00007b9f 	muleq	r0, pc, fp	@ <UNPREDICTABLE>
    14e8:	6d317d05 	ldcvs	13, cr7, [r1, #-20]!	@ 0xffffffec
    14ec:	82050000 	andhi	r0, r5, #0
    14f0:	007eff01 	rsbseq	pc, lr, r1, lsl #30
    14f4:	01840500 	orreq	r0, r4, r0, lsl #10
    14f8:	000068fa 			@ <UNDEFINED> instruction: 0x000068fa
    14fc:	53018505 	tstpl	r1, #20971520	@ 0x1400000
    1500:	0500004b 	streq	r0, [r0, #-75]	@ 0xffffffb5
    1504:	7d020187 	stcvc	1, cr0, [r2, #-540]	@ 0xfffffde4
    1508:	8a050000 	bhi	141510 <__max_heap_size+0x141110>
    150c:	003e2801 	eorseq	r2, lr, r1, lsl #16
    1510:	018b0500 	orreq	r0, fp, r0, lsl #10
    1514:	000050d3 			@ <UNDEFINED> instruction: 0x000050d3
    1518:	1b018c05 	blne	64534 <__max_heap_size+0x64134>
    151c:	05000077 	streq	r0, [r0, #-119]	@ 0xffffff89
    1520:	7e01018e 	cdpvc	1, 0, cr0, cr1, cr14, {4}
    1524:	8f050000 	svchi	0x00050000
    1528:	007c4b01 	rsbseq	r4, ip, r1, lsl #22
    152c:	01910500 	orrseq	r0, r1, r0, lsl #10
    1530:	000070a0 	andeq	r7, r0, r0, lsr #1
    1534:	5f019305 	svcpl	0x00019305
    1538:	05000067 	streq	r0, [r0, #-103]	@ 0xffffff99
    153c:	47a101a4 	strmi	r0, [r1, r4, lsr #3]!
    1540:	a5050000 	strge	r0, [r5, #-0]
    1544:	00439e01 	subeq	r9, r3, r1, lsl #28
    1548:	01a60500 			@ <UNDEFINED> instruction: 0x01a60500
    154c:	00003f6a 	andeq	r3, r0, sl, ror #30
    1550:	7901a705 	stmdbvc	r1, {r0, r2, r8, r9, sl, sp, pc}
    1554:	0500006b 	streq	r0, [r0, #-107]	@ 0xffffff95
    1558:	529801a8 	addspl	r0, r8, #168, 2	@ 0x2a
    155c:	aa050000 	bge	141564 <__max_heap_size+0x141164>
    1560:	005c8d01 	subseq	r8, ip, r1, lsl #26
    1564:	01ab0500 			@ <UNDEFINED> instruction: 0x01ab0500
    1568:	00006f40 	andeq	r6, r0, r0, asr #30
    156c:	c501ac05 	strgt	sl, [r1, #-3077]	@ 0xfffff3fb
    1570:	05000066 	streq	r0, [r0, #-102]	@ 0xffffff9a
    1574:	4fae01d9 	svcmi	0x00ae01d9
    1578:	e6050000 	str	r0, [r5], -r0
    157c:	006ca001 	rsbeq	sl, ip, r1
    1580:	01e70500 	mvneq	r0, r0, lsl #10
    1584:	00005ad4 			@ <UNDEFINED> instruction: 0x00005ad4
    1588:	e201e805 	and	lr, r1, #327680	@ 0x50000
    158c:	05000061 	streq	r0, [r0, #-97]	@ 0xffffff9f
    1590:	4fd601e9 	svcmi	0x00d601e9
    1594:	ea050000 	b	14159c <__max_heap_size+0x14119c>
    1598:	00825f01 	addeq	r5, r2, r1, lsl #30
    159c:	01eb0500 	mvneq	r0, r0, lsl #10
    15a0:	000040df 			@ <UNDEFINED> instruction: 0x000040df
    15a4:	5f01ec05 	svcpl	0x0001ec05
    15a8:	0500005a 	streq	r0, [r0, #-90]	@ 0xffffffa6
    15ac:	5c9b01ef 	ldcpl	1, cr0, [fp], {239}	@ 0xef
    15b0:	f0050000 			@ <UNDEFINED> instruction: 0xf0050000
    15b4:	004cb701 	subeq	fp, ip, r1, lsl #14
    15b8:	01f60500 	mvnseq	r0, r0, lsl #10
    15bc:	000049fd 			@ <UNDEFINED> instruction: 0x000049fd
    15c0:	f702d205 			@ <UNDEFINED> instruction: 0xf702d205
    15c4:	0500004f 	streq	r0, [r0, #-79]	@ 0xffffffb1
    15c8:	59e702e4 	stmibpl	r7!, {r2, r5, r6, r7, r9}^
    15cc:	ea050000 	b	1415d4 <__max_heap_size+0x1411d4>
    15d0:	0067f702 	rsbeq	pc, r7, r2, lsl #14
    15d4:	02eb0500 	rsceq	r0, fp, #0, 10
    15d8:	00007c1d 	andeq	r7, r0, sp, lsl ip
    15dc:	bc02f205 	stclt	2, cr15, [r2], {5}
    15e0:	05000070 	streq	r0, [r0, #-112]	@ 0xffffff90
    15e4:	4df402f8 	ldclmi	2, cr0, [r4, #992]!	@ 0x3e0
    15e8:	fe050000 			@ <UNDEFINED> instruction: 0xfe050000
    15ec:	00809102 	addeq	r9, r0, r2, lsl #2
    15f0:	02ff0500 	rscseq	r0, pc, #0, 10
    15f4:	00006207 	andeq	r6, r0, r7, lsl #4
    15f8:	95038605 	strls	r8, [r3, #-1541]	@ 0xfffff9fb
    15fc:	05000077 	streq	r0, [r0, #-119]	@ 0xffffff89
    1600:	42a30387 	adcmi	r0, r3, #469762050	@ 0x1c000002
    1604:	8e050000 	cdphi	0, 0, cr0, cr5, cr0, {0}
    1608:	00612703 	rsbeq	r2, r1, r3, lsl #14
    160c:	03940500 	orrseq	r0, r4, #0, 10
    1610:	00007a6d 	andeq	r7, r0, sp, ror #20
    1614:	ec03a505 	stc	5, cr10, [r3], {5}
    1618:	05000055 	streq	r0, [r0, #-85]	@ 0xffffffab
    161c:	7cb803b2 	ldcvc	3, cr0, [r8], #712	@ 0x2c8
    1620:	d4050000 	strle	r0, [r5], #-0
    1624:	004a6f03 	subeq	r6, sl, r3, lsl #30
    1628:	03d50500 	bicseq	r0, r5, #0, 10
    162c:	000061b2 			@ <UNDEFINED> instruction: 0x000061b2
    1630:	4603dc05 	strmi	sp, [r3], -r5, lsl #24
    1634:	05000046 	streq	r0, [r0, #-70]	@ 0xffffffba
    1638:	506a03dd 			@ <UNDEFINED> instruction: 0x506a03dd
    163c:	e0050000 	and	r0, r5, r0
    1640:	004e8003 	subeq	r8, lr, r3
    1644:	03ea0500 	mvneq	r0, #0, 10
    1648:	00005425 	andeq	r5, r0, r5, lsr #8
    164c:	7703eb05 	strvc	lr, [r3, -r5, lsl #22]
    1650:	05000078 	streq	r0, [r0, #-120]	@ 0xffffff88
    1654:	713d03f5 	teqvc	sp, r5	@ <illegal shifter operand>
    1658:	8b050000 	blhi	141660 <__max_heap_size+0x141260>
    165c:	00773604 	rsbseq	r3, r7, r4, lsl #12
    1660:	048d0500 	streq	r0, [sp], #1280	@ 0x500
    1664:	00007ae4 	andeq	r7, r0, r4, ror #21
    1668:	c1048f05 	tstgt	r4, r5, lsl #30
    166c:	0500007e 	streq	r0, [r0, #-126]	@ 0xffffff82
    1670:	47c40490 			@ <UNDEFINED> instruction: 0x47c40490
    1674:	92050000 	andls	r0, r5, #0
    1678:	0060c404 	rsbeq	ip, r0, r4, lsl #8
    167c:	049c0500 	ldreq	r0, [ip], #1280	@ 0x500
    1680:	00006c76 	andeq	r6, r0, r6, ror ip
    1684:	0a04a005 	beq	1296a0 <__max_heap_size+0x1292a0>
    1688:	0500007a 	streq	r0, [r0, #-122]	@ 0xffffff86
    168c:	440e04a4 	strmi	r0, [lr], #-1188	@ 0xfffffb5c
    1690:	a7050000 	strge	r0, [r5, -r0]
    1694:	00634404 	rsbeq	r4, r3, r4, lsl #8
    1698:	04ab0500 	strteq	r0, [fp], #1280	@ 0x500
    169c:	000076cf 	andeq	r7, r0, pc, asr #13
    16a0:	4604ad05 	strmi	sl, [r4], -r5, lsl #26
    16a4:	0500004c 	streq	r0, [r0, #-76]	@ 0xffffffb4
    16a8:	68be04d0 	ldmvs	lr!, {r4, r6, r7, sl}
    16ac:	d4050000 	strle	r0, [r5], #-0
    16b0:	00750604 	rsbseq	r0, r5, r4, lsl #12
    16b4:	04d80500 	ldrbeq	r0, [r8], #1280	@ 0x500
    16b8:	0000430b 	andeq	r4, r0, fp, lsl #6
    16bc:	2104dc05 	tstcs	r4, r5, lsl #24
    16c0:	05000066 	streq	r0, [r0, #-102]	@ 0xffffff9a
    16c4:	74b404e0 	ldrtvc	r0, [r4], #1248	@ 0x4e0
    16c8:	e4050000 	str	r0, [r5], #-0
    16cc:	004db704 	subeq	fp, sp, r4, lsl #14
    16d0:	04e80500 	strbteq	r0, [r8], #1280	@ 0x500
    16d4:	00007d1e 	andeq	r7, r0, lr, lsl sp
    16d8:	bb04ec05 	bllt	13c6f4 <__max_heap_size+0x13c2f4>
    16dc:	05000081 	streq	r0, [r0, #-129]	@ 0xffffff7f
    16e0:	450304f3 	strmi	r0, [r3, #-1267]	@ 0xfffffb0d
    16e4:	f4050000 	vst4.8	{d0-d3}, [r5], r0
    16e8:	00468a04 	subeq	r8, r6, r4, lsl #20
    16ec:	04f50500 	ldrbteq	r0, [r5], #1280	@ 0x500
    16f0:	0000524a 	andeq	r5, r0, sl, asr #4
    16f4:	f704f605 			@ <UNDEFINED> instruction: 0xf704f605
    16f8:	0500005a 	streq	r0, [r0, #-90]	@ 0xffffffa6
    16fc:	595e04f7 	ldmdbpl	lr, {r0, r1, r2, r4, r5, r6, r7, sl}^
    1700:	8c050000 	stchi	0, cr0, [r5], {-0}
    1704:	0070fa05 	rsbseq	pc, r0, r5, lsl #20
    1708:	058d0500 	streq	r0, [sp, #1280]	@ 0x500
    170c:	00007faf 	andeq	r7, r0, pc, lsr #31
    1710:	be059f05 	cdplt	15, 0, cr9, cr5, cr5, {0}
    1714:	05000077 	streq	r0, [r0, #-119]	@ 0xffffff89
    1718:	3e9905a5 	cdpcc	5, 9, cr0, cr9, cr5, {5}
    171c:	a8050000 	stmdage	r5, {}	@ <UNPREDICTABLE>
    1720:	00458905 	subeq	r8, r5, r5, lsl #18
    1724:	05aa0500 	streq	r0, [sl, #1280]!	@ 0x500
    1728:	000057ae 	andeq	r5, r0, lr, lsr #15
    172c:	1805ae05 	stmdane	r5, {r0, r2, r9, sl, fp, sp, pc}
    1730:	05000070 	streq	r0, [r0, #-112]	@ 0xffffff90
    1734:	574e05b0 			@ <UNDEFINED> instruction: 0x574e05b0
    1738:	b4050000 	strlt	r0, [r5], #-0
    173c:	004a3205 	subeq	r3, sl, r5, lsl #4
    1740:	05b70500 	ldreq	r0, [r7, #1280]!	@ 0x500
    1744:	0000564b 	andeq	r5, r0, fp, asr #12
    1748:	c705b905 	strgt	fp, [r5, -r5, lsl #18]
    174c:	05000082 	streq	r0, [r0, #-130]	@ 0xffffff7e
    1750:	3e4805bd 	mcrcc	5, 2, r0, cr8, cr13, {5}
    1754:	bf050000 	svclt	0x00050000
    1758:	00516405 	subseq	r6, r1, r5, lsl #8
    175c:	05c10500 	strbeq	r0, [r1, #1280]	@ 0x500
    1760:	00006551 	andeq	r6, r0, r1, asr r5
    1764:	e205c505 	and	ip, r5, #20971520	@ 0x1400000
    1768:	05000071 	streq	r0, [r0, #-113]	@ 0xffffff8f
    176c:	54ad05d6 	strtpl	r0, [sp], #1494	@ 0x5d6
    1770:	d7050000 	strle	r0, [r5, -r0]
    1774:	00549905 	subseq	r9, r4, r5, lsl #18
    1778:	05d80500 	ldrbeq	r0, [r8, #1280]	@ 0x500
    177c:	000083cb 	andeq	r8, r0, fp, asr #7
    1780:	8605dc05 	strhi	sp, [r5], -r5, lsl #24
    1784:	05000076 	streq	r0, [r0, #-118]	@ 0xffffff8a
    1788:	765105dd 			@ <UNDEFINED> instruction: 0x765105dd
    178c:	e2050000 	and	r0, r5, #0
    1790:	003de205 	eorseq	lr, sp, r5, lsl #4
    1794:	05e60500 	strbeq	r0, [r6, #1280]!	@ 0x500
    1798:	00005c15 	andeq	r5, r0, r5, lsl ip
    179c:	6105ea05 	tstvs	r5, r5, lsl #20
    17a0:	05000041 	streq	r0, [r0, #-65]	@ 0xffffffbf
    17a4:	493205ee 	ldmdbmi	r2!, {r1, r2, r3, r5, r6, r7, r8, sl}
    17a8:	ef050000 	svc	0x00050000
    17ac:	0042de05 	subeq	sp, r2, r5, lsl #28
    17b0:	05f00500 	ldrbeq	r0, [r0, #1280]!	@ 0x500
    17b4:	000066d9 			@ <UNDEFINED> instruction: 0x000066d9
    17b8:	00000500 	andeq	r0, r0, r0, lsl #10
    17bc:	7b501405 	blvc	14067d8 <__max_heap_size+0x14063d8>
    17c0:	16050000 	strne	r0, [r5], -r0
    17c4:	00004f3a 	andeq	r4, r0, sl, lsr pc
    17c8:	7d941705 	ldcvc	7, cr1, [r4, #20]
    17cc:	05000000 	streq	r0, [r0, #-0]
    17d0:	9e060000 	cdpls	0, 0, cr0, cr6, cr0, {0}
    17d4:	0078e901 	rsbseq	lr, r8, r1, lsl #18
    17d8:	01ed0600 	mvneq	r0, r0, lsl #12
    17dc:	00005d2b 	andeq	r5, r0, fp, lsr #26
    17e0:	9402dd06 	strls	sp, [r2], #-3334	@ 0xfffff2fa
    17e4:	05000042 	streq	r0, [r0, #-66]	@ 0xffffffbe
    17e8:	4f3102e2 	svcmi	0x003102e2
    17ec:	e9060000 	stmdb	r6, {}	@ <UNPREDICTABLE>
    17f0:	004c3802 	subeq	r3, ip, r2, lsl #16
    17f4:	038f0600 	orreq	r0, pc, #0, 12
    17f8:	000056c9 	andeq	r5, r0, r9, asr #13
    17fc:	00039405 	andeq	r9, r3, r5, lsl #8
    1800:	06000056 			@ <UNDEFINED> instruction: 0x06000056
    1804:	56c2039a 			@ <UNDEFINED> instruction: 0x56c2039a
    1808:	9f060000 	svcls	0x00060000
    180c:	00805503 	addeq	r5, r0, r3, lsl #10
    1810:	03a00500 	moveq	r0, #0, 10
    1814:	00005a8c 	andeq	r5, r0, ip, lsl #21
    1818:	00000500 	andeq	r0, r0, r0, lsl #10
    181c:	6de47f06 	stclvs	15, cr7, [r4, #24]!
    1820:	92050000 	andls	r0, r5, #0
    1824:	0057f501 	subseq	pc, r7, r1, lsl #10
    1828:	01940600 	orrseq	r0, r4, r0, lsl #12
    182c:	00001434 	andeq	r1, r0, r4, lsr r4
    1830:	4d01b305 	stcmi	3, cr11, [r1, #-20]	@ 0xffffffec
    1834:	05000048 	streq	r0, [r0, #-72]	@ 0xffffffb8
    1838:	486501bb 	stmdami	r5!, {r0, r1, r3, r4, r5, r7, r8}^
    183c:	c0050000 	andgt	r0, r5, r0
    1840:	00726a01 	rsbseq	r6, r2, r1, lsl #20
    1844:	01c90500 	biceq	r0, r9, r0, lsl #10
    1848:	00004260 	andeq	r4, r0, r0, ror #4
    184c:	00000500 	andeq	r0, r0, r0, lsl #10
    1850:	79091205 	stmdbvc	r9, {r0, r2, r9, ip}
    1854:	16050000 	strne	r0, [r5], -r0
    1858:	00007bff 			@ <UNDEFINED> instruction: 0x00007bff
    185c:	00000500 	andeq	r0, r0, r0, lsl #10
    1860:	831a0205 	tsthi	sl, #1342177280	@ 0x50000000
    1864:	23050000 	tstcs	r5, #0
    1868:	000079b0 			@ <UNDEFINED> instruction: 0x000079b0
    186c:	586c2505 	stmdapl	ip!, {r0, r2, r8, sl, sp}^
    1870:	27050000 	strcs	r0, [r5, -r0]
    1874:	00005611 	andeq	r5, r0, r1, lsl r6
    1878:	3f8e2a05 	svccc	0x008e2a05
    187c:	2c050000 	stccs	0, cr0, [r5], {-0}
    1880:	0000821d 	andeq	r8, r0, sp, lsl r2
    1884:	7f382e05 	svcvc	0x00382e05
    1888:	30050000 	andcc	r0, r5, r0
    188c:	00006706 	andeq	r6, r0, r6, lsl #14
    1890:	6db13205 	ldcvs	2, cr3, [r1, #20]!
    1894:	34050000 	strcc	r0, [r5], #-0
    1898:	00006832 	andeq	r6, r0, r2, lsr r8
    189c:	6fcb3605 	svcvs	0x00cb3605
    18a0:	38050000 	stmdacc	r5, {}	@ <UNPREDICTABLE>
    18a4:	0000534e 	andeq	r5, r0, lr, asr #6
    18a8:	45d63b05 	ldrbmi	r3, [r6, #2821]	@ 0xb05
    18ac:	3d050000 	stccc	0, cr0, [r5, #-0]
    18b0:	00004aaf 	andeq	r4, r0, pc, lsr #21
    18b4:	00000500 	andeq	r0, r0, r0, lsl #10
    18b8:	7a954e05 	bvc	fe5550d4 <_estack+0xde53d0d4>
    18bc:	6a050000 	bvs	1418c4 <__max_heap_size+0x1414c4>
    18c0:	00008180 	andeq	r8, r0, r0, lsl #3
    18c4:	9c019205 	stcls	2, cr9, [r1], {5}
    18c8:	0500004b 	streq	r0, [r0, #-75]	@ 0xffffffb5
    18cc:	73d702ab 	bicsvc	r0, r7, #-1342177270	@ 0xb000000a
    18d0:	ac050000 	stcge	0, cr0, [r5], {-0}
    18d4:	005b1202 	subseq	r1, fp, r2, lsl #4
    18d8:	02ad0500 	adceq	r0, sp, #0, 10
    18dc:	00006691 	muleq	r0, r1, r6
    18e0:	fe02ae05 			@ <UNDEFINED> instruction: 0xfe02ae05
    18e4:	0500003e 	streq	r0, [r0, #-62]	@ 0xffffffc2
    18e8:	739f02af 	orrsvc	r0, pc, #-268435446	@ 0xf000000a
    18ec:	b0050000 	andlt	r0, r5, r0
    18f0:	0064fb02 	rsbeq	pc, r4, r2, lsl #22
    18f4:	02b10500 	adcseq	r0, r1, #0, 10
    18f8:	000080bd 	strheq	r8, [r0], -sp
    18fc:	4402bd05 	strmi	fp, [r2], #-3333	@ 0xfffff2fb
    1900:	0500004d 	streq	r0, [r0, #-77]	@ 0xffffffb3
    1904:	832a02be 			@ <UNDEFINED> instruction: 0x832a02be
    1908:	bf050000 	svclt	0x00050000
    190c:	003f2102 	eorseq	r2, pc, r2, lsl #2
    1910:	02ca0500 	sbceq	r0, sl, #0, 10
    1914:	00004d98 	muleq	r0, r8, sp
    1918:	9602cb05 	strls	ip, [r2], -r5, lsl #22
    191c:	0500004f 	streq	r0, [r0, #-79]	@ 0xffffffb1
    1920:	796502cc 	stmdbvc	r5!, {r2, r3, r6, r7, r9}^
    1924:	cd050000 	stcgt	0, cr0, [r5, #-0]
    1928:	0075ae02 	rsbseq	sl, r5, r2, lsl #28
    192c:	02ce0500 	sbceq	r0, lr, #0, 10
    1930:	00006177 	andeq	r6, r0, r7, ror r1
    1934:	36059b05 	strcc	r9, [r5], -r5, lsl #22
    1938:	05000069 	streq	r0, [r0, #-105]	@ 0xffffff97
    193c:	5dbd05ca 	ldcpl	5, cr0, [sp, #808]!	@ 0x328
    1940:	d8050000 	stmdale	r5, {}	@ <UNPREDICTABLE>
    1944:	007c7e05 	rsbseq	r7, ip, r5, lsl #28
    1948:	05d90500 	ldrbeq	r0, [r9, #1280]	@ 0x500
    194c:	0000448c 	andeq	r4, r0, ip, lsl #9
    1950:	8405da05 	strhi	sp, [r5], #-2565	@ 0xfffff5fb
    1954:	05000072 	streq	r0, [r0, #-114]	@ 0xffffff8e
    1958:	67d805db 			@ <UNDEFINED> instruction: 0x67d805db
    195c:	dc050000 	stcle	0, cr0, [r5], {-0}
    1960:	00558105 	subseq	r8, r5, r5, lsl #2
    1964:	05dd0500 	ldrbeq	r0, [sp, #1280]	@ 0x500
    1968:	00006d19 	andeq	r6, r0, r9, lsl sp
    196c:	de05de05 	cdple	14, 0, cr13, cr5, cr5, {0}
    1970:	0500005b 	streq	r0, [r0, #-91]	@ 0xffffffa5
    1974:	52ec05e0 	rscpl	r0, ip, #224, 10	@ 0x38000000
    1978:	e1050000 	mrs	r0, (UNDEF: 5)
    197c:	0046da05 	subeq	sp, r6, r5, lsl #20
    1980:	05e20500 	strbeq	r0, [r2, #1280]!	@ 0x500
    1984:	00004540 	andeq	r4, r0, r0, asr #10
    1988:	6e05e305 	cdpvs	3, 0, cr14, cr5, cr5, {0}
    198c:	0500005d 	streq	r0, [r0, #-93]	@ 0xffffffa3
    1990:	49a305e4 	stmibmi	r3!, {r2, r5, r6, r7, r8, sl}
    1994:	e5050000 	str	r0, [r5, #-0]
    1998:	0041a505 	subeq	sl, r1, r5, lsl #10
    199c:	05e60500 	strbeq	r0, [r6, #1280]!	@ 0x500
    19a0:	00007489 	andeq	r7, r0, r9, lsl #9
    19a4:	aa05e705 	bge	17b5c0 <__max_heap_size+0x17b1c0>
    19a8:	0500006f 	streq	r0, [r0, #-111]	@ 0xffffff91
    19ac:	406105e8 	rsbmi	r0, r1, r8, ror #11
    19b0:	e9050000 	stmdb	r5, {}	@ <UNPREDICTABLE>
    19b4:	006f5005 	rsbeq	r5, pc, r5
    19b8:	05ea0500 	strbeq	r0, [sl, #1280]!	@ 0x500
    19bc:	0000836c 	andeq	r8, r0, ip, ror #6
    19c0:	6705eb05 	strvs	lr, [r5, -r5, lsl #22]
    19c4:	0500007f 	streq	r0, [r0, #-127]	@ 0xffffff81
    19c8:	571405ec 	ldrpl	r0, [r4, -ip, ror #11]
    19cc:	ed050000 	stc	0, cr0, [r5, #-0]
    19d0:	00643605 	rsbeq	r3, r4, r5, lsl #12
    19d4:	05ee0500 	strbeq	r0, [lr, #1280]!	@ 0x500
    19d8:	00006eb0 			@ <UNDEFINED> instruction: 0x00006eb0
    19dc:	fd05ef05 			@ <UNDEFINED> instruction: 0xfd05ef05
    19e0:	0500006b 	streq	r0, [r0, #-107]	@ 0xffffff95
    19e4:	4ef305f0 	mrcmi	5, 7, r0, cr3, cr0, {7}
    19e8:	f1050000 			@ <UNDEFINED> instruction: 0xf1050000
    19ec:	00623205 	rsbeq	r3, r2, r5, lsl #4
    19f0:	05f20500 	ldrbeq	r0, [r2, #1280]!	@ 0x500
    19f4:	00007e44 	andeq	r7, r0, r4, asr #28
    19f8:	1305f305 	tstpne	r5, #335544320	@ p-variant is OBSOLETE	@ 0x14000000
    19fc:	0500006e 	streq	r0, [r0, #-110]	@ 0xffffff92
    1a00:	62ec05fc 	rscvs	r0, ip, #252, 10	@ 0x3f000000
    1a04:	fd050000 			@ <UNDEFINED> instruction: 0xfd050000
    1a08:	007fcf05 	rsbseq	ip, pc, r5, lsl #30
    1a0c:	05fe0500 	ldrbeq	r0, [lr, #1280]!	@ 0x500
    1a10:	00007402 	andeq	r7, r0, r2, lsl #8
    1a14:	2105ff05 	tstpcs	r5, r5, lsl #30	@ p-variant is OBSOLETE
    1a18:	05000060 	streq	r0, [r0, #-96]	@ 0xffffffa0
    1a1c:	5b3e0683 	blpl	f83430 <__max_heap_size+0xf83030>
    1a20:	84050000 	strhi	r0, [r5], #-0
    1a24:	007b7906 	rsbseq	r7, fp, r6, lsl #18
    1a28:	06850500 	streq	r0, [r5], r0, lsl #10
    1a2c:	0000403b 	andeq	r4, r0, fp, lsr r0
    1a30:	d6068605 	strle	r8, [r6], -r5, lsl #12
    1a34:	0500004b 	streq	r0, [r0, #-75]	@ 0xffffffb5
    1a38:	50af0687 	adcpl	r0, pc, r7, lsl #13
    1a3c:	88050000 	stmdahi	r5, {}	@ <UNPREDICTABLE>
    1a40:	00510406 	subseq	r0, r1, r6, lsl #8
    1a44:	06890500 	streq	r0, [r9], r0, lsl #10
    1a48:	0000609e 	muleq	r0, lr, r0
    1a4c:	98068a05 	stmdals	r6, {r0, r2, r9, fp, pc}
    1a50:	05000056 	streq	r0, [r0, #-86]	@ 0xffffffaa
    1a54:	54d0068b 	ldrbpl	r0, [r0], #1675	@ 0x68b
    1a58:	8c050000 	stchi	0, cr0, [r5], {-0}
    1a5c:	006e8a06 	rsbeq	r8, lr, r6, lsl #20
    1a60:	068d0500 	streq	r0, [sp], r0, lsl #10
    1a64:	000062b0 			@ <UNDEFINED> instruction: 0x000062b0
    1a68:	88068f05 	stmdahi	r6, {r0, r2, r8, r9, sl, fp, pc}
    1a6c:	0500006b 	streq	r0, [r0, #-107]	@ 0xffffff95
    1a70:	7816069a 	ldmdavc	r6, {r1, r3, r4, r7, r9, sl}
    1a74:	a0050000 	andge	r0, r5, r0
    1a78:	00553006 	subseq	r3, r5, r6
    1a7c:	06ad0500 	strteq	r0, [sp], r0, lsl #10
    1a80:	00005057 	andeq	r5, r0, r7, asr r0
    1a84:	7806b005 	stmdavc	r6, {r0, r2, ip, sp, pc}
    1a88:	05000059 	streq	r0, [r0, #-89]	@ 0xffffffa7
    1a8c:	663b06b2 			@ <UNDEFINED> instruction: 0x663b06b2
    1a90:	93050000 	tstls	r5, #0
    1a94:	003f4d07 	eorseq	r4, pc, r7, lsl #26
    1a98:	00050000 	andeq	r0, r5, r0
    1a9c:	3a0e0500 	bcc	382ea4 <__max_heap_size+0x382aa4>
    1aa0:	0500004f 	streq	r0, [r0, #-79]	@ 0xffffffb1
    1aa4:	005a260f 	subseq	r2, sl, pc, lsl #12
    1aa8:	00050000 	andeq	r0, r5, r0
    1aac:	019e0600 	orrseq	r0, lr, r0, lsl #12
    1ab0:	000078e9 	andeq	r7, r0, r9, ror #17
    1ab4:	2b01ed06 	blcs	7ced4 <__max_heap_size+0x7cad4>
    1ab8:	0600005d 			@ <UNDEFINED> instruction: 0x0600005d
    1abc:	429402dd 	addsmi	r0, r4, #-805306355	@ 0xd000000d
    1ac0:	8f060000 	svchi	0x00060000
    1ac4:	0056c903 	subseq	ip, r6, r3, lsl #18
    1ac8:	03940500 	orrseq	r0, r4, #0, 10
    1acc:	00005600 	andeq	r5, r0, r0, lsl #12
    1ad0:	c2039a06 	andgt	r9, r3, #24576	@ 0x6000
    1ad4:	06000056 			@ <UNDEFINED> instruction: 0x06000056
    1ad8:	8055039f 			@ <UNDEFINED> instruction: 0x8055039f
    1adc:	a0050000 	andge	r0, r5, r0
    1ae0:	005a8c03 	subseq	r8, sl, r3, lsl #24
    1ae4:	00050000 	andeq	r0, r5, r0
    1ae8:	57020500 	strpl	r0, [r2, -r0, lsl #10]
    1aec:	0500004f 	streq	r0, [r0, #-79]	@ 0xffffffb1
    1af0:	00413f07 	subeq	r3, r1, r7, lsl #30
    1af4:	00050000 	andeq	r0, r5, r0
    1af8:	63190500 	tstvs	r9, #0, 10
    1afc:	05000073 	streq	r0, [r0, #-115]	@ 0xffffff8d
    1b00:	0047331a 	subeq	r3, r7, sl, lsl r3
    1b04:	00050000 	andeq	r0, r5, r0
    1b08:	cc280500 	stcgt	5, cr0, [r8], #-0
    1b0c:	05000041 	streq	r0, [r0, #-65]	@ 0xffffffbf
    1b10:	0051f42c 	subseq	pc, r1, ip, lsr #8
    1b14:	bf620500 	svclt	0x00620500
    1b18:	05000048 	streq	r0, [r0, #-72]	@ 0xffffffb8
    1b1c:	00548467 	subseq	r8, r4, r7, ror #8
    1b20:	9e6c0500 	cdpls	5, 6, cr0, cr12, cr0, {0}
    1b24:	0500006d 	streq	r0, [r0, #-109]	@ 0xffffff93
    1b28:	006b436d 	rsbeq	r4, fp, sp, ror #6
    1b2c:	1d720500 	ldclne	5, cr0, [r2, #-0]
    1b30:	0500006b 	streq	r0, [r0, #-107]	@ 0xffffff95
    1b34:	00629e73 	rsbeq	r9, r2, r3, ror lr
    1b38:	857a0500 	ldrbhi	r0, [sl, #-1280]!	@ 0xfffffb00
    1b3c:	0500004d 	streq	r0, [r0, #-77]	@ 0xffffffb3
    1b40:	551a0180 	ldrpl	r0, [sl, #-384]	@ 0xfffffe80
    1b44:	85050000 	strhi	r0, [r5, #-0]
    1b48:	006f0e01 	rsbeq	r0, pc, r1, lsl #28
    1b4c:	018a0500 	orreq	r0, sl, r0, lsl #10
    1b50:	00006425 	andeq	r6, r0, r5, lsr #8
    1b54:	0b019c05 	bleq	68b70 <__max_heap_size+0x68770>
    1b58:	05000042 	streq	r0, [r0, #-66]	@ 0xffffffbe
    1b5c:	797d01a0 	ldmdbvc	sp!, {r5, r7, r8}^
    1b60:	a4050000 	strge	r0, [r5], #-0
    1b64:	004ee201 	subeq	lr, lr, r1, lsl #4
    1b68:	01a80500 			@ <UNDEFINED> instruction: 0x01a80500
    1b6c:	0000729a 	muleq	r0, sl, r2
    1b70:	2e01ad05 	cdpcs	13, 0, cr10, cr1, cr5, {0}
    1b74:	05000041 	streq	r0, [r0, #-65]	@ 0xffffffbf
    1b78:	43cc01b2 	bicmi	r0, ip, #-2147483604	@ 0x8000002c
    1b7c:	b7050000 	strlt	r0, [r5, -r0]
    1b80:	0073ef01 	rsbseq	lr, r3, r1, lsl #30
    1b84:	01bc0500 			@ <UNDEFINED> instruction: 0x01bc0500
    1b88:	0000433c 	andeq	r4, r0, ip, lsr r3
    1b8c:	3701c105 	strcc	ip, [r1, -r5, lsl #2]
    1b90:	05000042 	streq	r0, [r0, #-66]	@ 0xffffffbe
    1b94:	6f1e01c6 	svcvs	0x001e01c6
    1b98:	c7050000 	strgt	r0, [r5, -r0]
    1b9c:	0080ec01 	addeq	lr, r0, r1, lsl #24
    1ba0:	01cc0500 	biceq	r0, ip, r0, lsl #10
    1ba4:	00006895 	muleq	r0, r5, r8
    1ba8:	e001cd05 	and	ip, r1, r5, lsl #26
    1bac:	0500007c 	streq	r0, [r0, #-124]	@ 0xffffff84
    1bb0:	7abd01d2 	bvc	fef42300 <_estack+0xdef2a300>
    1bb4:	d7050000 	strle	r0, [r5, -r0]
    1bb8:	007e8201 	rsbseq	r8, lr, r1, lsl #4
    1bbc:	00050000 	andeq	r0, r5, r0
    1bc0:	01dc0500 	bicseq	r0, ip, r0, lsl #10
    1bc4:	000054f4 			@ <UNDEFINED> instruction: 0x000054f4
    1bc8:	1001dd05 	andne	sp, r1, r5, lsl #26
    1bcc:	05000066 	streq	r0, [r0, #-102]	@ 0xffffff9a
    1bd0:	708101e1 	addvc	r0, r1, r1, ror #3
    1bd4:	e4050000 	str	r0, [r5], #-0
    1bd8:	004af601 	subeq	pc, sl, r1, lsl #12
    1bdc:	01eb0500 	mvneq	r0, r0, lsl #10
    1be0:	000053fb 			@ <UNDEFINED> instruction: 0x000053fb
    1be4:	9b01f305 	blls	7e800 <__max_heap_size+0x7e400>
    1be8:	00000057 	andeq	r0, r0, r7, asr r0
    1bec:	05000005 	streq	r0, [r0, #-5]
    1bf0:	00401036 	subeq	r1, r0, r6, lsr r0
    1bf4:	a5370500 	ldrge	r0, [r7, #-1280]!	@ 0xfffffb00
    1bf8:	0500007a 	streq	r0, [r0, #-122]	@ 0xffffff86
    1bfc:	0052d438 	subseq	sp, r2, r8, lsr r4
    1c00:	1a3d0500 	bne	f43008 <__max_heap_size+0xf42c08>
    1c04:	0500007e 	streq	r0, [r0, #-126]	@ 0xffffff82
    1c08:	0058da3e 	subseq	sp, r8, lr, lsr sl
    1c0c:	5b3f0500 	blpl	fc3014 <__max_heap_size+0xfc2c14>
    1c10:	05000049 	streq	r0, [r0, #-73]	@ 0xffffffb7
    1c14:	00709140 	rsbseq	r9, r0, r0, asr #2
    1c18:	71410500 	cmpvc	r1, r0, lsl #10
    1c1c:	0500004e 	streq	r0, [r0, #-78]	@ 0xffffffb2
    1c20:	0055ce42 	subseq	ip, r5, r2, asr #28
    1c24:	9d430500 	stclls	5, cr0, [r3, #-0]
    1c28:	05000053 	streq	r0, [r0, #-83]	@ 0xffffffad
    1c2c:	0050a044 	subseq	sl, r0, r4, asr #32
    1c30:	e7460500 	strb	r0, [r6, -r0, lsl #10]
    1c34:	05000074 	streq	r0, [r0, #-116]	@ 0xffffff8c
    1c38:	00545248 	subseq	r5, r4, r8, asr #4
    1c3c:	a1490500 	cmpge	r9, r0, lsl #10
    1c40:	0500005b 	streq	r0, [r0, #-91]	@ 0xffffffa5
    1c44:	007c634a 	rsbseq	r6, ip, sl, asr #6
    1c48:	df520500 	svcle	0x00520500
    1c4c:	05000062 	streq	r0, [r0, #-98]	@ 0xffffff9e
    1c50:	007cf353 	rsbseq	pc, ip, r3, asr r3	@ <UNPREDICTABLE>
    1c54:	9e540500 	cdpls	5, 5, cr0, cr4, cr0, {0}
    1c58:	05000059 	streq	r0, [r0, #-89]	@ 0xffffffa7
    1c5c:	00474a55 	subeq	r4, r7, r5, asr sl
    1c60:	e2560500 	subs	r0, r6, #0, 10
    1c64:	05000048 	streq	r0, [r0, #-72]	@ 0xffffffb8
    1c68:	007b4157 	rsbseq	r4, fp, r7, asr r1
    1c6c:	21580500 	cmpcs	r8, r0, lsl #10
    1c70:	05000068 	streq	r0, [r0, #-104]	@ 0xffffff98
    1c74:	00533f59 	subseq	r3, r3, r9, asr pc
    1c78:	00680500 	rsbeq	r0, r8, r0, lsl #10
    1c7c:	0500005a 	streq	r0, [r0, #-90]	@ 0xffffffa6
    1c80:	006b0d69 	rsbeq	r0, fp, r9, ror #26
    1c84:	ef6a0500 	svc	0x006a0500
    1c88:	0500007b 	streq	r0, [r0, #-123]	@ 0xffffff85
    1c8c:	0046956b 	subeq	r9, r6, fp, ror #10
    1c90:	a46c0500 	strbtge	r0, [ip], #-1280	@ 0xfffffb00
    1c94:	05000065 	streq	r0, [r0, #-101]	@ 0xffffff9b
    1c98:	00725a6d 	rsbseq	r5, r2, sp, ror #20
    1c9c:	c96e0500 	stmdbgt	lr!, {r8, sl}^
    1ca0:	05000063 	streq	r0, [r0, #-99]	@ 0xffffff9d
    1ca4:	0065416f 	rsbeq	r4, r5, pc, ror #2
    1ca8:	c3700500 	cmngt	r0, #0, 10
    1cac:	05000078 	streq	r0, [r0, #-120]	@ 0xffffff88
    1cb0:	004c0271 	subeq	r0, ip, r1, ror r2
    1cb4:	c4720500 	ldrbtgt	r0, [r2], #-1280	@ 0xfffffb00
    1cb8:	0500005a 	streq	r0, [r0, #-90]	@ 0xffffffa6
    1cbc:	0047b473 	subeq	fp, r7, r3, ror r4
    1cc0:	597b0500 	ldmdbpl	fp!, {r8, sl}^
    1cc4:	05000047 	streq	r0, [r0, #-71]	@ 0xffffffb9
    1cc8:	0051bb7c 	subseq	fp, r1, ip, ror fp
    1ccc:	107d0500 	rsbsne	r0, sp, r0, lsl #10
    1cd0:	05000047 	streq	r0, [r0, #-71]	@ 0xffffffb9
    1cd4:	0052027e 	subseq	r0, r2, lr, ror r2
    1cd8:	5e7f0500 	cdppl	5, 7, cr0, cr15, cr0, {0}
    1cdc:	05000080 	streq	r0, [r0, #-128]	@ 0xffffff80
    1ce0:	64d80180 	ldrbvs	r0, [r8], #384	@ 0x180
    1ce4:	81050000 	mrshi	r0, (UNDEF: 5)
    1ce8:	00555c01 	subseq	r5, r5, r1, lsl #24
    1cec:	00050000 	andeq	r0, r5, r0
    1cf0:	d4020500 	strle	r0, [r2], #-1280	@ 0xfffffb00
    1cf4:	05000044 	streq	r0, [r0, #-68]	@ 0xffffffbc
    1cf8:	004f3a09 	subeq	r3, pc, r9, lsl #20
    1cfc:	1f0a0500 	svcne	0x000a0500
    1d00:	00000075 	andeq	r0, r0, r5, ror r0
    1d04:	05000005 	streq	r0, [r0, #-5]
    1d08:	4db002c5 	ldcmi	2, cr0, [r0, #788]!	@ 0x314
    1d0c:	c6050000 	strgt	r0, [r5], -r0
    1d10:	007fa802 	rsbseq	sl, pc, r2, lsl #16
    1d14:	02c70500 	sbceq	r0, r7, #0, 10
    1d18:	00007fa1 	andeq	r7, r0, r1, lsr #31
    1d1c:	b702c805 	strlt	ip, [r2, -r5, lsl #16]
    1d20:	05000083 	streq	r0, [r0, #-131]	@ 0xffffff7d
    1d24:	3f1602ca 	svccc	0x001602ca
    1d28:	cb050000 	blgt	141d30 <__max_heap_size+0x141930>
    1d2c:	00482502 	subeq	r2, r8, r2, lsl #10
    1d30:	02cc0500 	sbceq	r0, ip, #0, 10
    1d34:	000071d7 			@ <UNDEFINED> instruction: 0x000071d7
    1d38:	bd02d405 	stclt	4, cr13, [r2, #-20]	@ 0xffffffec
    1d3c:	05000043 	streq	r0, [r0, #-67]	@ 0xffffffbd
    1d40:	43fe02d5 	mvnsmi	r0, #1342177293	@ 0x5000000d
    1d44:	d6050000 	strle	r0, [r5], -r0
    1d48:	0079fa02 	rsbseq	pc, r9, r2, lsl #20
    1d4c:	02dc0500 	sbcseq	r0, ip, #0, 10
    1d50:	000054c2 	andeq	r5, r0, r2, asr #9
    1d54:	6602dd05 	strvs	sp, [r2], -r5, lsl #26
    1d58:	0500006d 	streq	r0, [r0, #-109]	@ 0xffffff93
    1d5c:	43dd02de 	bicsmi	r0, sp, #-536870899	@ 0xe000000d
    1d60:	df050000 	svcle	0x00050000
    1d64:	007c0b02 	rsbseq	r0, ip, r2, lsl #22
    1d68:	02e00500 	rsceq	r0, r0, #0, 10
    1d6c:	00007642 	andeq	r7, r0, r2, asr #12
    1d70:	a302e105 	tstge	r2, #1073741825	@ 0x40000001
    1d74:	0500007d 	streq	r0, [r0, #-125]	@ 0xffffff83
    1d78:	44b902e2 	ldrtmi	r0, [r9], #738	@ 0x2e2
    1d7c:	e3050000 	tst	r5, #0
    1d80:	004f4902 	subeq	r4, pc, r2, lsl #18
    1d84:	02e40500 	rsceq	r0, r4, #0, 10
    1d88:	000048d3 			@ <UNDEFINED> instruction: 0x000048d3
    1d8c:	b502e505 	strlt	lr, [r2, #-1285]	@ 0xfffffafb
    1d90:	05000040 	streq	r0, [r0, #-64]	@ 0xffffffc0
    1d94:	83a002e8 	movhi	r0, #232, 4	@ 0x8000000e
    1d98:	e9050000 	stmdb	r5, {}	@ <UNPREDICTABLE>
    1d9c:	0059ad02 	subseq	sl, r9, r2, lsl #26
    1da0:	02ea0500 	rsceq	r0, sl, #0, 10
    1da4:	00006f8a 	andeq	r6, r0, sl, lsl #31
    1da8:	1f02eb05 	svcne	0x0002eb05
    1dac:	05000079 	streq	r0, [r0, #-121]	@ 0xffffff87
    1db0:	7db502ed 	ldcvc	2, cr0, [r5, #948]!	@ 0x3b4
    1db4:	ee050000 	cdp	0, 0, cr0, cr5, cr0, {0}
    1db8:	00411b02 	subeq	r1, r1, r2, lsl #22
    1dbc:	02ef0500 	rsceq	r0, pc, #0, 10
    1dc0:	0000554b 	andeq	r5, r0, fp, asr #10
    1dc4:	1502f005 	strne	pc, [r2, #-5]
    1dc8:	05000073 	streq	r0, [r0, #-115]	@ 0xffffff8d
    1dcc:	814a02f1 			@ <UNDEFINED> instruction: 0x814a02f1
    1dd0:	f2050000 	vhadd.s8	d0, d5, d0
    1dd4:	0053e702 	subseq	lr, r3, r2, lsl #14
    1dd8:	02f30500 	rscseq	r0, r3, #0, 10
    1ddc:	00004578 	andeq	r4, r0, r8, ror r5
    1de0:	3402f405 	strcc	pc, [r2], #-1029	@ 0xfffffbfb
    1de4:	05000046 	streq	r0, [r0, #-70]	@ 0xffffffba
    1de8:	6e5502f5 	mrcvs	2, 2, r0, cr5, cr5, {7}
    1dec:	f6050000 			@ <UNDEFINED> instruction: 0xf6050000
    1df0:	006f3302 	rsbeq	r3, pc, r2, lsl #6
    1df4:	02f70500 	rscseq	r0, r7, #0, 10
    1df8:	000065d8 			@ <UNDEFINED> instruction: 0x000065d8
    1dfc:	0602f805 	streq	pc, [r2], -r5, lsl #16
    1e00:	0500004d 	streq	r0, [r0, #-77]	@ 0xffffffb3
    1e04:	72bc02f9 	adcsvc	r0, ip, #-1879048177	@ 0x9000000f
    1e08:	fa050000 			@ <UNDEFINED> instruction: 0xfa050000
    1e0c:	006dfa02 	rsbeq	pc, sp, r2, lsl #20
    1e10:	02fb0500 	rscseq	r0, fp, #0, 10
    1e14:	00005d4b 	andeq	r5, r0, fp, asr #26
    1e18:	5002fc05 	andpl	pc, r2, r5, lsl #24
    1e1c:	0500006d 	streq	r0, [r0, #-109]	@ 0xffffff93
    1e20:	514c02fd 			@ <UNDEFINED> instruction: 0x514c02fd
    1e24:	fe050000 			@ <UNDEFINED> instruction: 0xfe050000
    1e28:	004ed002 	subeq	sp, lr, r2
    1e2c:	02ff0500 	rscseq	r0, pc, #0, 10
    1e30:	00004eb3 			@ <UNDEFINED> instruction: 0x00004eb3
    1e34:	97038005 	strls	r8, [r3, -r5]
    1e38:	05000082 	streq	r0, [r0, #-130]	@ 0xffffff7e
    1e3c:	48b10381 	ldmmi	r1!, {r0, r7, r8, r9}
    1e40:	82050000 	andhi	r0, r5, #0
    1e44:	00467403 	subeq	r7, r6, r3, lsl #8
    1e48:	03830500 	orreq	r0, r3, #0, 10
    1e4c:	00005849 	andeq	r5, r0, r9, asr #16
    1e50:	20038405 	andcs	r8, r3, r5, lsl #8
    1e54:	05000063 	streq	r0, [r0, #-99]	@ 0xffffff9d
    1e58:	7dc80385 	stclvc	3, cr0, [r8, #532]	@ 0x214
    1e5c:	86050000 	strhi	r0, [r5], -r0
    1e60:	007d7d03 	rsbseq	r7, sp, r3, lsl #26
    1e64:	03870500 	orreq	r0, r7, #0, 10
    1e68:	000056f5 			@ <UNDEFINED> instruction: 0x000056f5
    1e6c:	4e038805 	cdpmi	8, 0, cr8, cr3, cr5, {0}
    1e70:	05000043 	streq	r0, [r0, #-67]	@ 0xffffffbd
    1e74:	74750389 	ldrbtvc	r0, [r5], #-905	@ 0xfffffc77
    1e78:	8a050000 	bhi	141e80 <__max_heap_size+0x141a80>
    1e7c:	0048a203 	subeq	sl, r8, r3, lsl #4
    1e80:	038b0500 	orreq	r0, fp, #0, 10
    1e84:	00008023 	andeq	r8, r0, r3, lsr #32
    1e88:	b1038c05 	tstlt	r3, r5, lsl #24
    1e8c:	0500005b 	streq	r0, [r0, #-91]	@ 0xffffffa5
    1e90:	798e038d 	stmibvc	lr, {r0, r2, r3, r7, r8, r9}
    1e94:	8e050000 	cdphi	0, 0, cr0, cr5, cr0, {0}
    1e98:	00409a03 	subeq	r9, r0, r3, lsl #20
    1e9c:	03900500 	orrseq	r0, r0, #0, 10
    1ea0:	0000421c 	andeq	r4, r0, ip, lsl r2
    1ea4:	ca039105 	bgt	e62c0 <__max_heap_size+0xe5ec0>
    1ea8:	05000079 	streq	r0, [r0, #-121]	@ 0xffffff87
    1eac:	6eec0392 	mcrvs	3, 7, r0, cr12, cr2, {4}
    1eb0:	93050000 	tstls	r5, #0
    1eb4:	007dde03 	rsbseq	sp, sp, r3, lsl #28
    1eb8:	03940500 	orrseq	r0, r4, #0, 10
    1ebc:	000072d1 			@ <UNDEFINED> instruction: 0x000072d1
    1ec0:	96039505 	strls	r9, [r3], -r5, lsl #10
    1ec4:	05000067 	streq	r0, [r0, #-103]	@ 0xffffff99
    1ec8:	64090396 	strvs	r0, [r9], #-918	@ 0xfffffc6a
    1ecc:	97050000 	strls	r0, [r5, -r0]
    1ed0:	00487e03 	subeq	r7, r8, r3, lsl #28
    1ed4:	03980500 	orrseq	r0, r8, #0, 10
    1ed8:	00005a33 	andeq	r5, r0, r3, lsr sl
    1edc:	39039905 	stmdbcc	r3, {r0, r2, r8, fp, ip, pc}
    1ee0:	0500005d 	streq	r0, [r0, #-93]	@ 0xffffffa3
    1ee4:	5914039a 	ldmdbpl	r4, {r1, r3, r4, r7, r8, r9}
    1ee8:	9b050000 	blls	141ef0 <__max_heap_size+0x141af0>
    1eec:	00546203 	subseq	r6, r4, r3, lsl #4
    1ef0:	039c0500 	orrseq	r0, ip, #0, 10
    1ef4:	00005fcb 	andeq	r5, r0, fp, asr #31
    1ef8:	8a039d05 	bhi	e9314 <__max_heap_size+0xe8f14>
    1efc:	05000060 	streq	r0, [r0, #-96]	@ 0xffffffa0
    1f00:	6513039e 	ldrvs	r0, [r3, #-926]	@ 0xfffffc62
    1f04:	9f050000 	svcls	0x00050000
    1f08:	005da603 	subseq	sl, sp, r3, lsl #12
    1f0c:	03a00500 	moveq	r0, #0, 10
    1f10:	00006485 	andeq	r6, r0, r5, lsl #9
    1f14:	4b03a105 	blmi	ea330 <__max_heap_size+0xe9f30>
    1f18:	05000072 	streq	r0, [r0, #-114]	@ 0xffffff8e
    1f1c:	523503a2 	eorspl	r0, r5, #-2013265918	@ 0x88000002
    1f20:	a3050000 	tstge	r5, #0
    1f24:	00730003 	rsbseq	r0, r3, r3
    1f28:	03a40500 			@ <UNDEFINED> instruction: 0x03a40500
    1f2c:	000078fa 			@ <UNDEFINED> instruction: 0x000078fa
    1f30:	6203a505 	andvs	sl, r3, #20971520	@ 0x1400000
    1f34:	0500005d 	streq	r0, [r0, #-93]	@ 0xffffffa3
    1f38:	4b8403a6 	blmi	fe102dd8 <_estack+0xde0eadd8>
    1f3c:	a7050000 	strge	r0, [r5, -r0]
    1f40:	005b6703 	subseq	r6, fp, r3, lsl #14
    1f44:	03a80500 			@ <UNDEFINED> instruction: 0x03a80500
    1f48:	000049d9 			@ <UNDEFINED> instruction: 0x000049d9
    1f4c:	1e03a905 			@ <UNDEFINED> instruction: 0x1e03a905
    1f50:	0500004e 	streq	r0, [r0, #-78]	@ 0xffffffb2
    1f54:	73c903aa 	bicvc	r0, r9, #-1476395006	@ 0xa8000002
    1f58:	ab050000 	blge	141f60 <__max_heap_size+0x141b60>
    1f5c:	0073b703 	rsbseq	fp, r3, r3, lsl #14
    1f60:	03ac0500 			@ <UNDEFINED> instruction: 0x03ac0500
    1f64:	00006528 	andeq	r6, r0, r8, lsr #10
    1f68:	3c03ad05 	stccc	13, cr10, [r3], {5}
    1f6c:	05000078 	streq	r0, [r0, #-120]	@ 0xffffff88
    1f70:	665903ae 	ldrbvs	r0, [r9], -lr, lsr #7
    1f74:	af050000 	svcge	0x00050000
    1f78:	00627403 	rsbeq	r7, r2, r3, lsl #8
    1f7c:	03b00500 	movseq	r0, #0, 10
    1f80:	0000628b 	andeq	r6, r0, fp, lsl #5
    1f84:	fc03b105 			@ <UNDEFINED> instruction: 0xfc03b105
    1f88:	0500005b 	streq	r0, [r0, #-91]	@ 0xffffffa5
    1f8c:	4d5d03b2 	ldclmi	3, cr0, [sp, #-712]	@ 0xfffffd38
    1f90:	b3050000 	tstlt	r5, #0
    1f94:	00497603 	subeq	r7, r9, r3, lsl #12
    1f98:	03b40500 			@ <UNDEFINED> instruction: 0x03b40500
    1f9c:	000074f6 			@ <UNDEFINED> instruction: 0x000074f6
    1fa0:	e103b505 	tst	r3, r5, lsl #10
    1fa4:	05000077 	streq	r0, [r0, #-119]	@ 0xffffff89
    1fa8:	540b03b6 	strpl	r0, [fp], #-950	@ 0xfffffc4a
    1fac:	b7050000 	strlt	r0, [r5, -r0]
    1fb0:	00527c03 	subseq	r7, r2, r3, lsl #24
    1fb4:	03b80500 			@ <UNDEFINED> instruction: 0x03b80500
    1fb8:	0000734e 	andeq	r7, r0, lr, asr #6
    1fbc:	2a03b905 	bcs	f03d8 <__max_heap_size+0xeffd8>
    1fc0:	05000073 	streq	r0, [r0, #-115]	@ 0xffffff8d
    1fc4:	51de03ba 	ldrhpl	r0, [lr, #58]	@ 0x3a
    1fc8:	bb050000 	bllt	141fd0 <__max_heap_size+0x141bd0>
    1fcc:	00738303 	rsbseq	r8, r3, r3, lsl #6
    1fd0:	03bc0500 			@ <UNDEFINED> instruction: 0x03bc0500
    1fd4:	0000666b 	andeq	r6, r0, fp, ror #12
    1fd8:	7903bd05 	stmdbvc	r3, {r0, r2, r8, sl, fp, ip, sp, pc}
    1fdc:	05000068 	streq	r0, [r0, #-104]	@ 0xffffff98
    1fe0:	3fd203be 	svccc	0x00d203be
    1fe4:	bf050000 	svclt	0x00050000
    1fe8:	00446603 	subeq	r6, r4, r3, lsl #12
    1fec:	03c00500 	biceq	r0, r0, #0, 10
    1ff0:	00007e99 	muleq	r0, r9, lr
    1ff4:	4803c105 	stmdami	r3, {r0, r2, r8, lr, pc}
    1ff8:	0500005a 	streq	r0, [r0, #-90]	@ 0xffffffa6
    1ffc:	6d7603c2 	ldclvs	3, cr0, [r6, #-776]!	@ 0xfffffcf8
    2000:	c3050000 	tstgt	r5, #0
    2004:	00580503 	subseq	r0, r8, r3, lsl #10
    2008:	03c40500 	biceq	r0, r4, #0, 10
    200c:	00004e39 	andeq	r4, r0, r9, lsr lr
    2010:	ff03c505 			@ <UNDEFINED> instruction: 0xff03c505
    2014:	05000075 	streq	r0, [r0, #-117]	@ 0xffffff8b
    2018:	6cc603c6 	stclvs	3, cr0, [r6], {198}	@ 0xc6
    201c:	c7050000 	strgt	r0, [r5, -r0]
    2020:	00816903 	addeq	r6, r1, r3, lsl #18
    2024:	03c80500 	biceq	r0, r8, #0, 10
    2028:	000055a6 	andeq	r5, r0, r6, lsr #11
    202c:	c803c905 	stmdagt	r3, {r0, r2, r8, fp, lr, pc}
    2030:	05000075 	streq	r0, [r0, #-117]	@ 0xffffff8b
    2034:	723803ca 	eorsvc	r0, r8, #671088643	@ 0x28000003
    2038:	cb050000 	blgt	142040 <__max_heap_size+0x141c40>
    203c:	003f3703 	eorseq	r3, pc, r3, lsl #14
    2040:	03cc0500 	biceq	r0, ip, #0, 10
    2044:	0000649d 	muleq	r0, sp, r4
    2048:	4903cd05 	stmdbmi	r3, {r0, r2, r8, sl, fp, lr, pc}
    204c:	05000078 	streq	r0, [r0, #-120]	@ 0xffffff88
    2050:	647203ce 	ldrbtvs	r0, [r2], #-974	@ 0xfffffc32
    2054:	cf050000 	svcgt	0x00050000
    2058:	007d6103 	rsbseq	r6, sp, r3, lsl #2
    205c:	03d00500 	bicseq	r0, r0, #0, 10
    2060:	00007623 	andeq	r7, r0, r3, lsr #12
    2064:	0203d105 	andeq	sp, r3, #1073741825	@ 0x40000001
    2068:	05000059 	streq	r0, [r0, #-89]	@ 0xffffffa7
    206c:	74d103d2 	ldrbvc	r0, [r1], #978	@ 0x3d2
    2070:	d3050000 	tstle	r5, #0
    2074:	00437203 	subeq	r7, r3, r3, lsl #4
    2078:	03d40500 	bicseq	r0, r4, #0, 10
    207c:	00005504 	andeq	r5, r0, r4, lsl #10
    2080:	5803d505 	stmdapl	r3, {r0, r2, r8, sl, ip, lr, pc}
    2084:	05000058 	streq	r0, [r0, #-88]	@ 0xffffffa8
    2088:	4f6c03d6 	svcmi	0x006c03d6
    208c:	d7050000 	strle	r0, [r5, -r0]
    2090:	005c7d03 	subseq	r7, ip, r3, lsl #26
    2094:	03d80500 	bicseq	r0, r8, #0, 10
    2098:	00004028 	andeq	r4, r0, r8, lsr #32
    209c:	3b03d905 	blcc	f84b8 <__max_heap_size+0xf80b8>
    20a0:	05000073 	streq	r0, [r0, #-115]	@ 0xffffff8d
    20a4:	678203da 			@ <UNDEFINED> instruction: 0x678203da
    20a8:	db050000 	blle	1420b0 <__max_heap_size+0x141cb0>
    20ac:	00722003 	rsbseq	r2, r2, r3
    20b0:	03dc0500 	bicseq	r0, ip, #0, 10
    20b4:	00006c5d 	andeq	r6, r0, sp, asr ip
    20b8:	7d03dd05 	stcvc	13, cr13, [r3, #-20]	@ 0xffffffec
    20bc:	0500004f 	streq	r0, [r0, #-79]	@ 0xffffffb1
    20c0:	6cec03de 	stclvs	3, cr0, [ip], #888	@ 0x378
    20c4:	df050000 	svcle	0x00050000
    20c8:	0059c503 	subseq	ip, r9, r3, lsl #10
    20cc:	03e00500 	mvneq	r0, #0, 10
    20d0:	00004c24 	andeq	r4, r0, r4, lsr #24
    20d4:	9e03e105 	cdpls	1, 0, cr14, cr3, cr5, {0}
    20d8:	0500004a 	streq	r0, [r0, #-74]	@ 0xffffffb6
    20dc:	408c03e2 	addmi	r0, ip, r2, ror #7
    20e0:	e3050000 	tst	r5, #0
    20e4:	004d7303 	subeq	r7, sp, r3, lsl #6
    20e8:	03e40500 	mvneq	r0, #0, 10
    20ec:	00004609 	andeq	r4, r0, r9, lsl #12
    20f0:	9403e505 	strls	lr, [r3], #-1285	@ 0xfffffafb
    20f4:	0500004c 	streq	r0, [r0, #-76]	@ 0xffffffb4
    20f8:	43eb03e6 	mvnmi	r0, #-1744830461	@ 0x98000003
    20fc:	e7050000 	str	r0, [r5, -r0]
    2100:	00532403 	subseq	r2, r3, r3, lsl #8
    2104:	03e80500 	mvneq	r0, #0, 10
    2108:	000067ae 	andeq	r6, r0, lr, lsr #15
    210c:	6b03e905 	blvs	fc528 <__max_heap_size+0xfc128>
    2110:	05000060 	streq	r0, [r0, #-96]	@ 0xffffffa0
    2114:	4d1503ea 	ldcmi	3, cr0, [r5, #-936]	@ 0xfffffc58
    2118:	eb050000 	bl	142120 <__max_heap_size+0x141d20>
    211c:	00812e03 	addeq	r2, r1, r3, lsl #28
    2120:	03ec0500 	mvneq	r0, #0, 10
    2124:	0000525d 	andeq	r5, r0, sp, asr r2
    2128:	d203ed05 	andle	lr, r3, #320	@ 0x140
    212c:	05000080 	streq	r0, [r0, #-128]	@ 0xffffff80
    2130:	513103ee 	teqpl	r1, lr, ror #7
    2134:	ef050000 	svc	0x00050000
    2138:	00753103 	rsbseq	r3, r5, r3, lsl #2
    213c:	03f00500 	mvnseq	r0, #0, 10
    2140:	00008203 	andeq	r8, r0, r3, lsl #4
    2144:	da03f105 	ble	fe560 <__max_heap_size+0xfe160>
    2148:	05000056 	streq	r0, [r0, #-86]	@ 0xffffffaa
    214c:	5fdd03f2 	svcpl	0x00dd03f2
    2150:	f3050000 	vhadd.u8	d0, d5, d0
    2154:	005cce03 	subseq	ip, ip, r3, lsl #28
    2158:	03f40500 	mvnseq	r0, #0, 10
    215c:	000041f0 			@ <UNDEFINED> instruction: 0x000041f0
    2160:	1803f505 	stmdane	r3, {r0, r2, r8, sl, ip, sp, lr, pc}
    2164:	05000069 	streq	r0, [r0, #-105]	@ 0xffffff97
    2168:	58e903f6 	stmiapl	r9!, {r1, r2, r4, r5, r6, r7, r8, r9}^
    216c:	fc050000 			@ <UNDEFINED> instruction: 0xfc050000
    2170:	0077d203 	rsbseq	sp, r7, r3, lsl #4
    2174:	03fd0500 	mvnseq	r0, #0, 10
    2178:	00007cd0 			@ <UNDEFINED> instruction: 0x00007cd0
    217c:	bb03fe05 	bllt	101998 <__max_heap_size+0x101598>
    2180:	0500005f 	streq	r0, [r0, #-95]	@ 0xffffffa1
    2184:	3ec603ff 	mcrcc	3, 6, r0, cr6, cr15, {7}
    2188:	80050000 	andhi	r0, r5, r0
    218c:	00583a04 	subseq	r3, r8, r4, lsl #20
    2190:	04810500 	streq	r0, [r1], #1280	@ 0x500
    2194:	00004531 	andeq	r4, r0, r1, lsr r5
    2198:	01048205 	tsteq	r4, r5, lsl #4
    219c:	05000081 	streq	r0, [r0, #-129]	@ 0xffffff7f
    21a0:	40d00483 	sbcsmi	r0, r0, r3, lsl #9
    21a4:	84050000 	strhi	r0, [r5], #-0
    21a8:	003fe804 	eorseq	lr, pc, r4, lsl #16
    21ac:	04850500 	streq	r0, [r5], #1280	@ 0x500
    21b0:	00005226 	andeq	r5, r0, r6, lsr #4
    21b4:	dd048605 	stcle	6, cr8, [r4, #-20]	@ 0xffffffec
    21b8:	05000055 	streq	r0, [r0, #-85]	@ 0xffffffab
    21bc:	811f0487 	tsthi	pc, r7, lsl #9
    21c0:	88050000 	stmdahi	r5, {}	@ <UNPREDICTABLE>
    21c4:	006b2f04 	rsbeq	r2, fp, r4, lsl #30
    21c8:	04890500 	streq	r0, [r9], #1280	@ 0x500
    21cc:	00007c98 	muleq	r0, r8, ip
    21d0:	6d048a05 	vstrvs	s16, [r4, #-20]	@ 0xffffffec
    21d4:	05000075 	streq	r0, [r0, #-117]	@ 0xffffff8b
    21d8:	4cf0048b 	ldclmi	4, cr0, [r0], #556	@ 0x22c
    21dc:	8c050000 	stchi	0, cr0, [r5], {-0}
    21e0:	0076b504 	rsbseq	fp, r6, r4, lsl #10
    21e4:	048d0500 	streq	r0, [sp], #1280	@ 0x500
    21e8:	000082ae 	andeq	r8, r0, lr, lsr #5
    21ec:	f7048e05 			@ <UNDEFINED> instruction: 0xf7048e05
    21f0:	0500003f 	streq	r0, [r0, #-63]	@ 0xffffffc1
    21f4:	424a048f 	submi	r0, sl, #-1895825408	@ 0x8f000000
    21f8:	90050000 	andls	r0, r5, r0
    21fc:	00834104 	addeq	r4, r3, r4, lsl #2
	...

Disassembly of section .debug_line:

00000000 <.debug_line>:
   0:	0000023f 	andeq	r0, r0, pc, lsr r2
   4:	01f90003 	mvnseq	r0, r3
   8:	01020000 	mrseq	r0, (UNDEF: 2)
   c:	000d0efb 			@ <UNDEFINED> instruction: 0x000d0efb
  10:	01010101 	tsteq	r1, r1, lsl #2
  14:	01000000 	mrseq	r0, (UNDEF: 0)
  18:	73010000 	tstvc	r1, #0
  1c:	6372756f 	cmnvs	r2, #465567744	@ 0x1bc00000
  20:	682f0065 	stmdavs	pc!, {r0, r2, r5, r6}	@ <UNPREDICTABLE>
  24:	2f656d6f 	svccs	0x00656d6f
  28:	2f6a6172 	svccs	0x006a6172
  2c:	2d6d7261 	stclcs	2, cr7, [sp, #-388]!	@ 0xfffffe7c
  30:	2d756e67 	ldclcs	14, cr6, [r5, #-412]!	@ 0xfffffe64
  34:	6c6f6f74 	stclvs	15, cr6, [pc], #-464	@ fffffe6c <_estack+0xdffe7e6c>
  38:	69616863 	stmdbvs	r1!, {r0, r1, r5, r6, fp, sp, lr}^
  3c:	34312d6e 	ldrtcc	r2, [r1], #-3438	@ 0xfffff292
  40:	722e322e 	eorvc	r3, lr, #-536870910	@ 0xe0000002
  44:	2d316c65 	ldccs	12, cr6, [r1, #-404]!	@ 0xfffffe6c
  48:	5f363878 	svcpl	0x00363878
  4c:	612d3436 			@ <UNDEFINED> instruction: 0x612d3436
  50:	6e2d6d72 	mcrvs	13, 1, r6, cr13, cr2, {3}
  54:	2d656e6f 	stclcs	14, cr6, [r5, #-444]!	@ 0xfffffe44
  58:	69626165 	stmdbvs	r2!, {r0, r2, r5, r6, r8, sp, lr}^
  5c:	6d72612f 	ldclvs	1, cr6, [r2, #-188]!	@ 0xffffff44
  60:	6e6f6e2d 	cdpvs	14, 6, cr6, cr15, cr13, {1}
  64:	61652d65 	cmnvs	r5, r5, ror #26
  68:	692f6962 	stmdbvs	pc!, {r1, r5, r6, r8, fp, sp, lr}	@ <UNPREDICTABLE>
  6c:	756c636e 	strbvc	r6, [ip, #-878]!	@ 0xfffffc92
  70:	6d2f6564 	stcvs	5, cr6, [pc, #-400]!	@ fffffee8 <_estack+0xdffe7ee8>
  74:	69686361 	stmdbvs	r8!, {r0, r5, r6, r8, r9, sp, lr}^
  78:	2f00656e 	svccs	0x0000656e
  7c:	656d6f68 	strbvs	r6, [sp, #-3944]!	@ 0xfffff098
  80:	6a61722f 	bvs	185c944 <__max_heap_size+0x185c544>
  84:	6d72612f 	ldclvs	1, cr6, [r2, #-188]!	@ 0xffffff44
  88:	756e672d 	strbvc	r6, [lr, #-1837]!	@ 0xfffff8d3
  8c:	6f6f742d 	svcvs	0x006f742d
  90:	6168636c 	cmnvs	r8, ip, ror #6
  94:	312d6e69 			@ <UNDEFINED> instruction: 0x312d6e69
  98:	2e322e34 	mrccs	14, 1, r2, cr2, cr4, {1}
  9c:	316c6572 	cmncc	ip, r2, ror r5
  a0:	3638782d 	ldrtcc	r7, [r8], -sp, lsr #16
  a4:	2d34365f 	ldccs	6, cr3, [r4, #-380]!	@ 0xfffffe84
  a8:	2d6d7261 	stclcs	2, cr7, [sp, #-388]!	@ 0xfffffe7c
  ac:	656e6f6e 	strbvs	r6, [lr, #-3950]!	@ 0xfffff092
  b0:	6261652d 	rsbvs	r6, r1, #188743680	@ 0xb400000
  b4:	72612f69 	rsbvc	r2, r1, #420	@ 0x1a4
  b8:	6f6e2d6d 	svcvs	0x006e2d6d
  bc:	652d656e 	strvs	r6, [sp, #-1390]!	@ 0xfffffa92
  c0:	2f696261 	svccs	0x00696261
  c4:	6c636e69 	stclvs	14, cr6, [r3], #-420	@ 0xfffffe5c
  c8:	2f656475 	svccs	0x00656475
  cc:	00737973 	rsbseq	r7, r3, r3, ror r9
  d0:	6d6f682f 	stclvs	8, cr6, [pc, #-188]!	@ 1c <__max_stack_size-0x1e4>
  d4:	61722f65 	cmnvs	r2, r5, ror #30
  d8:	72612f6a 	rsbvc	r2, r1, #424	@ 0x1a8
  dc:	6e672d6d 	cdpvs	13, 6, cr2, cr7, cr13, {3}
  e0:	6f742d75 	svcvs	0x00742d75
  e4:	68636c6f 	stmdavs	r3!, {r0, r1, r2, r3, r5, r6, sl, fp, sp, lr}^
  e8:	2d6e6961 			@ <UNDEFINED> instruction: 0x2d6e6961
  ec:	322e3431 	eorcc	r3, lr, #822083584	@ 0x31000000
  f0:	6c65722e 	stclvs	2, cr7, [r5], #-184	@ 0xffffff48
  f4:	38782d31 	ldmdacc	r8!, {r0, r4, r5, r8, sl, fp, sp}^
  f8:	34365f36 	ldrtcc	r5, [r6], #-3894	@ 0xfffff0ca
  fc:	6d72612d 	ldclvs	1, cr6, [r2, #-180]!	@ 0xffffff4c
 100:	6e6f6e2d 	cdpvs	14, 6, cr6, cr15, cr13, {1}
 104:	61652d65 	cmnvs	r5, r5, ror #26
 108:	6c2f6962 			@ <UNDEFINED> instruction: 0x6c2f6962
 10c:	672f6269 	strvs	r6, [pc, -r9, ror #4]!
 110:	612f6363 			@ <UNDEFINED> instruction: 0x612f6363
 114:	6e2d6d72 	mcrvs	13, 1, r6, cr13, cr2, {3}
 118:	2d656e6f 	stclcs	14, cr6, [r5, #-444]!	@ 0xfffffe44
 11c:	69626165 	stmdbvs	r2!, {r0, r2, r5, r6, r8, sp, lr}^
 120:	2e34312f 	cdpcs	1, 3, cr3, cr4, cr15, {1}
 124:	2f312e32 	svccs	0x00312e32
 128:	6c636e69 	stclvs	14, cr6, [r3], #-420	@ 0xfffffe5c
 12c:	00656475 	rsbeq	r6, r5, r5, ror r4
 130:	6d6f682f 	stclvs	8, cr6, [pc, #-188]!	@ 7c <__max_stack_size-0x184>
 134:	61722f65 	cmnvs	r2, r5, ror #30
 138:	72612f6a 	rsbvc	r2, r1, #424	@ 0x1a8
 13c:	6e672d6d 	cdpvs	13, 6, cr2, cr7, cr13, {3}
 140:	6f742d75 	svcvs	0x00742d75
 144:	68636c6f 	stmdavs	r3!, {r0, r1, r2, r3, r5, r6, sl, fp, sp, lr}^
 148:	2d6e6961 			@ <UNDEFINED> instruction: 0x2d6e6961
 14c:	322e3431 	eorcc	r3, lr, #822083584	@ 0x31000000
 150:	6c65722e 	stclvs	2, cr7, [r5], #-184	@ 0xffffff48
 154:	38782d31 	ldmdacc	r8!, {r0, r4, r5, r8, sl, fp, sp}^
 158:	34365f36 	ldrtcc	r5, [r6], #-3894	@ 0xfffff0ca
 15c:	6d72612d 	ldclvs	1, cr6, [r2, #-180]!	@ 0xffffff4c
 160:	6e6f6e2d 	cdpvs	14, 6, cr6, cr15, cr13, {1}
 164:	61652d65 	cmnvs	r5, r5, ror #26
 168:	612f6962 			@ <UNDEFINED> instruction: 0x612f6962
 16c:	6e2d6d72 	mcrvs	13, 1, r6, cr13, cr2, {3}
 170:	2d656e6f 	stclcs	14, cr6, [r5, #-444]!	@ 0xfffffe44
 174:	69626165 	stmdbvs	r2!, {r0, r2, r5, r6, r8, sp, lr}^
 178:	636e692f 	cmnvs	lr, #770048	@ 0xbc000
 17c:	6564756c 	strbvs	r7, [r4, #-1388]!	@ 0xfffffa94
 180:	616d0000 	cmnvs	sp, r0
 184:	632e6e69 			@ <UNDEFINED> instruction: 0x632e6e69
 188:	00000100 	andeq	r0, r0, r0, lsl #2
 18c:	6665645f 			@ <UNDEFINED> instruction: 0x6665645f
 190:	746c7561 	strbtvc	r7, [ip], #-1377	@ 0xfffffa9f
 194:	7079745f 	rsbsvc	r7, r9, pc, asr r4
 198:	682e7365 	stmdavs	lr!, {r0, r2, r5, r6, r8, r9, ip, sp, lr}
 19c:	00000200 	andeq	r0, r0, r0, lsl #4
 1a0:	6474735f 	ldrbtvs	r7, [r4], #-863	@ 0xfffffca1
 1a4:	2e746e69 	cdpcs	14, 7, cr6, cr4, cr9, {3}
 1a8:	00030068 	andeq	r0, r3, r8, rrx
 1ac:	64747300 	ldrbtvs	r7, [r4], #-768	@ 0xfffffd00
 1b0:	2e746e69 	cdpcs	14, 7, cr6, cr4, cr9, {3}
 1b4:	00040068 	andeq	r0, r4, r8, rrx
 1b8:	64747300 	ldrbtvs	r7, [r4], #-768	@ 0xfffffd00
 1bc:	2e746e69 	cdpcs	14, 7, cr6, cr4, cr9, {3}
 1c0:	00050068 	andeq	r0, r5, r8, rrx
 1c4:	61656600 	cmnvs	r5, r0, lsl #12
 1c8:	65727574 	ldrbvs	r7, [r2, #-1396]!	@ 0xfffffa8c
 1cc:	00682e73 	rsbeq	r2, r8, r3, ror lr
 1d0:	5f000003 	svcpl	0x00000003
 1d4:	6c77656e 	ldclvs	5, cr6, [r7], #-440	@ 0xfffffe48
 1d8:	765f6269 	ldrbvc	r6, [pc], -r9, ror #4
 1dc:	69737265 	ldmdbvs	r3!, {r0, r2, r5, r6, r9, ip, sp, lr}^
 1e0:	682e6e6f 	stmdavs	lr!, {r0, r1, r2, r3, r5, r6, r9, sl, fp, sp, lr}
 1e4:	00000500 	andeq	r0, r0, r0, lsl #10
 1e8:	746e695f 	strbtvc	r6, [lr], #-2399	@ 0xfffff6a1
 1ec:	2e707573 	mrccs	5, 3, r7, cr0, cr3, {3}
 1f0:	00030068 	andeq	r0, r3, r8, rrx
 1f4:	64747300 	ldrbtvs	r7, [r4], #-768	@ 0xfffffd00
 1f8:	6c6f6f62 	stclvs	15, cr6, [pc], #-392	@ 78 <__max_stack_size-0x188>
 1fc:	0400682e 	streq	r6, [r0], #-2094	@ 0xfffff7d2
 200:	05000000 	streq	r0, [r0, #-0]
 204:	02050001 	andeq	r0, r5, #1
 208:	080001cc 	stmdaeq	r0, {r2, r3, r6, r7, r8}
 20c:	05011403 	streq	r1, [r1, #-1027]	@ 0xfffffbfd
 210:	2b053d05 	blcs	14f62c <__max_heap_size+0x14f22c>
 214:	3e05053c 	mcrcc	5, 0, r0, cr5, cr12, {1}
 218:	053c2b05 	ldreq	r2, [ip, #-2821]!	@ 0xfffff4fb
 21c:	2b053d05 	blcs	14f638 <__max_heap_size+0x14f238>
 220:	4009053c 	andmi	r0, r9, ip, lsr r5
 224:	053c2d05 	ldreq	r2, [ip, #-3333]!	@ 0xfffff2fb
 228:	09053e1b 	stmdbeq	r5, {r0, r1, r3, r4, r9, sl, fp, ip, sp}
 22c:	002f052e 	eoreq	r0, pc, lr, lsr #10
 230:	20030402 	andcs	r0, r3, r2, lsl #8
 234:	02002405 	andeq	r2, r0, #83886080	@ 0x5000000
 238:	053c0104 	ldreq	r0, [ip, #-260]!	@ 0xfffffefc
 23c:	0902482d 	stmdbeq	r2, {r0, r2, r3, r5, fp, lr}
 240:	71010100 	mrsvc	r0, (UNDEF: 17)
 244:	03000002 	tsteq	r0, #2
 248:	0001fb00 	andeq	pc, r1, r0, lsl #22
 24c:	fb010200 			@ <UNDEFINED> instruction: 0xfb010200
 250:	01000d0e 	tsteq	r0, lr, lsl #26
 254:	00010101 	andeq	r0, r1, r1, lsl #2
 258:	00010000 	andeq	r0, r1, r0
 25c:	2e2e0100 	cdpcs	1, 2, cr0, cr14, cr0, {0}
 260:	726f632f 	rsbvc	r6, pc, #-1140850688	@ 0xbc000000
 264:	73797365 	cmnvc	r9, #-1811939327	@ 0x94000001
 268:	6174732f 	cmnvs	r4, pc, lsr #6
 26c:	70757472 	rsbsvc	r7, r5, r2, ror r4
 270:	6f682f00 	svcvs	0x00682f00
 274:	722f656d 	eorvc	r6, pc, #457179136	@ 0x1b400000
 278:	612f6a61 			@ <UNDEFINED> instruction: 0x612f6a61
 27c:	672d6d72 			@ <UNDEFINED> instruction: 0x672d6d72
 280:	742d756e 	strtvc	r7, [sp], #-1390	@ 0xfffffa92
 284:	636c6f6f 	cmnvs	ip, #444	@ 0x1bc
 288:	6e696168 	cdpvs	1, 6, cr6, cr9, cr8, {3}
 28c:	2e34312d 	cdpcs	1, 3, cr3, cr4, cr13, {1}
 290:	65722e32 	ldrbvs	r2, [r2, #-3634]!	@ 0xfffff1ce
 294:	782d316c 	stmdavc	sp!, {r2, r3, r5, r6, r8, ip, sp}
 298:	365f3638 			@ <UNDEFINED> instruction: 0x365f3638
 29c:	72612d34 	rsbvc	r2, r1, #52, 26	@ 0xd00
 2a0:	6f6e2d6d 	svcvs	0x006e2d6d
 2a4:	652d656e 	strvs	r6, [sp, #-1390]!	@ 0xfffffa92
 2a8:	2f696261 	svccs	0x00696261
 2ac:	2d6d7261 	stclcs	2, cr7, [sp, #-388]!	@ 0xfffffe7c
 2b0:	656e6f6e 	strbvs	r6, [lr, #-3950]!	@ 0xfffff092
 2b4:	6261652d 	rsbvs	r6, r1, #188743680	@ 0xb400000
 2b8:	6e692f69 	cdpvs	15, 6, cr2, cr9, cr9, {3}
 2bc:	64756c63 	ldrbtvs	r6, [r5], #-3171	@ 0xfffff39d
 2c0:	616d2f65 	cmnvs	sp, r5, ror #30
 2c4:	6e696863 	cdpvs	8, 6, cr6, cr9, cr3, {3}
 2c8:	682f0065 	stmdavs	pc!, {r0, r2, r5, r6}	@ <UNPREDICTABLE>
 2cc:	2f656d6f 	svccs	0x00656d6f
 2d0:	2f6a6172 	svccs	0x006a6172
 2d4:	2d6d7261 	stclcs	2, cr7, [sp, #-388]!	@ 0xfffffe7c
 2d8:	2d756e67 	ldclcs	14, cr6, [r5, #-412]!	@ 0xfffffe64
 2dc:	6c6f6f74 	stclvs	15, cr6, [pc], #-464	@ 114 <__max_stack_size-0xec>
 2e0:	69616863 	stmdbvs	r1!, {r0, r1, r5, r6, fp, sp, lr}^
 2e4:	34312d6e 	ldrtcc	r2, [r1], #-3438	@ 0xfffff292
 2e8:	722e322e 	eorvc	r3, lr, #-536870910	@ 0xe0000002
 2ec:	2d316c65 	ldccs	12, cr6, [r1, #-404]!	@ 0xfffffe6c
 2f0:	5f363878 	svcpl	0x00363878
 2f4:	612d3436 			@ <UNDEFINED> instruction: 0x612d3436
 2f8:	6e2d6d72 	mcrvs	13, 1, r6, cr13, cr2, {3}
 2fc:	2d656e6f 	stclcs	14, cr6, [r5, #-444]!	@ 0xfffffe44
 300:	69626165 	stmdbvs	r2!, {r0, r2, r5, r6, r8, sp, lr}^
 304:	6d72612f 	ldclvs	1, cr6, [r2, #-188]!	@ 0xffffff44
 308:	6e6f6e2d 	cdpvs	14, 6, cr6, cr15, cr13, {1}
 30c:	61652d65 	cmnvs	r5, r5, ror #26
 310:	692f6962 	stmdbvs	pc!, {r1, r5, r6, r8, fp, sp, lr}	@ <UNPREDICTABLE>
 314:	756c636e 	strbvc	r6, [ip, #-878]!	@ 0xfffffc92
 318:	732f6564 			@ <UNDEFINED> instruction: 0x732f6564
 31c:	2f007379 	svccs	0x00007379
 320:	656d6f68 	strbvs	r6, [sp, #-3944]!	@ 0xfffff098
 324:	6a61722f 	bvs	185cbe8 <__max_heap_size+0x185c7e8>
 328:	6d72612f 	ldclvs	1, cr6, [r2, #-188]!	@ 0xffffff44
 32c:	756e672d 	strbvc	r6, [lr, #-1837]!	@ 0xfffff8d3
 330:	6f6f742d 	svcvs	0x006f742d
 334:	6168636c 	cmnvs	r8, ip, ror #6
 338:	312d6e69 			@ <UNDEFINED> instruction: 0x312d6e69
 33c:	2e322e34 	mrccs	14, 1, r2, cr2, cr4, {1}
 340:	316c6572 	cmncc	ip, r2, ror r5
 344:	3638782d 	ldrtcc	r7, [r8], -sp, lsr #16
 348:	2d34365f 	ldccs	6, cr3, [r4, #-380]!	@ 0xfffffe84
 34c:	2d6d7261 	stclcs	2, cr7, [sp, #-388]!	@ 0xfffffe7c
 350:	656e6f6e 	strbvs	r6, [lr, #-3950]!	@ 0xfffff092
 354:	6261652d 	rsbvs	r6, r1, #188743680	@ 0xb400000
 358:	696c2f69 	stmdbvs	ip!, {r0, r3, r5, r6, r8, r9, sl, fp, sp}^
 35c:	63672f62 	cmnvs	r7, #392	@ 0x188
 360:	72612f63 	rsbvc	r2, r1, #396	@ 0x18c
 364:	6f6e2d6d 	svcvs	0x006e2d6d
 368:	652d656e 	strvs	r6, [sp, #-1390]!	@ 0xfffffa92
 36c:	2f696261 	svccs	0x00696261
 370:	322e3431 	eorcc	r3, lr, #822083584	@ 0x31000000
 374:	692f312e 	stmdbvs	pc!, {r1, r2, r3, r5, r8, ip, sp}	@ <UNPREDICTABLE>
 378:	756c636e 	strbvc	r6, [ip, #-878]!	@ 0xfffffc92
 37c:	2f006564 	svccs	0x00006564
 380:	656d6f68 	strbvs	r6, [sp, #-3944]!	@ 0xfffff098
 384:	6a61722f 	bvs	185cc48 <__max_heap_size+0x185c848>
 388:	6d72612f 	ldclvs	1, cr6, [r2, #-188]!	@ 0xffffff44
 38c:	756e672d 	strbvc	r6, [lr, #-1837]!	@ 0xfffff8d3
 390:	6f6f742d 	svcvs	0x006f742d
 394:	6168636c 	cmnvs	r8, ip, ror #6
 398:	312d6e69 			@ <UNDEFINED> instruction: 0x312d6e69
 39c:	2e322e34 	mrccs	14, 1, r2, cr2, cr4, {1}
 3a0:	316c6572 	cmncc	ip, r2, ror r5
 3a4:	3638782d 	ldrtcc	r7, [r8], -sp, lsr #16
 3a8:	2d34365f 	ldccs	6, cr3, [r4, #-380]!	@ 0xfffffe84
 3ac:	2d6d7261 	stclcs	2, cr7, [sp, #-388]!	@ 0xfffffe7c
 3b0:	656e6f6e 	strbvs	r6, [lr, #-3950]!	@ 0xfffff092
 3b4:	6261652d 	rsbvs	r6, r1, #188743680	@ 0xb400000
 3b8:	72612f69 	rsbvc	r2, r1, #420	@ 0x1a4
 3bc:	6f6e2d6d 	svcvs	0x006e2d6d
 3c0:	652d656e 	strvs	r6, [sp, #-1390]!	@ 0xfffffa92
 3c4:	2f696261 	svccs	0x00696261
 3c8:	6c636e69 	stclvs	14, cr6, [r3], #-420	@ 0xfffffe5c
 3cc:	00656475 	rsbeq	r6, r5, r5, ror r4
 3d0:	61747300 	cmnvs	r4, r0, lsl #6
 3d4:	70757472 	rsbsvc	r7, r5, r2, ror r4
 3d8:	0100632e 	tsteq	r0, lr, lsr #6
 3dc:	645f0000 	ldrbvs	r0, [pc], #-0	@ 3e4 <__max_stack_size+0x1e4>
 3e0:	75616665 	strbvc	r6, [r1, #-1637]!	@ 0xfffff99b
 3e4:	745f746c 	ldrbvc	r7, [pc], #-1132	@ 3ec <__max_stack_size+0x1ec>
 3e8:	73657079 	cmnvc	r5, #121	@ 0x79
 3ec:	0200682e 	andeq	r6, r0, #3014656	@ 0x2e0000
 3f0:	735f0000 	cmpvc	pc, #0
 3f4:	6e696474 	mcrvs	4, 3, r6, cr9, cr4, {3}
 3f8:	00682e74 	rsbeq	r2, r8, r4, ror lr
 3fc:	73000003 	tstvc	r0, #3
 400:	6e696474 	mcrvs	4, 3, r6, cr9, cr4, {3}
 404:	00682e74 	rsbeq	r2, r8, r4, ror lr
 408:	73000004 	tstvc	r0, #4
 40c:	6e696474 	mcrvs	4, 3, r6, cr9, cr4, {3}
 410:	00682e74 	rsbeq	r2, r8, r4, ror lr
 414:	66000005 	strvs	r0, [r0], -r5
 418:	75746165 	ldrbvc	r6, [r4, #-357]!	@ 0xfffffe9b
 41c:	2e736572 	mrccs	5, 3, r6, cr3, cr2, {3}
 420:	00030068 	andeq	r0, r3, r8, rrx
 424:	656e5f00 	strbvs	r5, [lr, #-3840]!	@ 0xfffff100
 428:	62696c77 	rsbvs	r6, r9, #30464	@ 0x7700
 42c:	7265765f 	rsbvc	r7, r5, #99614720	@ 0x5f00000
 430:	6e6f6973 			@ <UNDEFINED> instruction: 0x6e6f6973
 434:	0500682e 	streq	r6, [r0, #-2094]	@ 0xfffff7d2
 438:	695f0000 	ldmdbvs	pc, {}^	@ <UNPREDICTABLE>
 43c:	7573746e 	ldrbvc	r7, [r3, #-1134]!	@ 0xfffffb92
 440:	00682e70 	rsbeq	r2, r8, r0, ror lr
 444:	00000003 	andeq	r0, r0, r3
 448:	05000105 	streq	r0, [r0, #-261]	@ 0xfffffefb
 44c:	00022802 	andeq	r2, r2, r2, lsl #16
 450:	01a10308 			@ <UNDEFINED> instruction: 0x01a10308
 454:	3e150501 	cdpcc	5, 1, cr0, cr5, cr1, {0}
 458:	05202905 	streq	r2, [r0, #-2309]!	@ 0xfffff6fb
 45c:	2f31200e 	svccs	0x0031200e
 460:	05301305 	ldreq	r1, [r0, #-773]!	@ 0xfffffcfb
 464:	1e052e05 	cdpne	14, 0, cr2, cr5, cr5, {0}
 468:	3c110522 	ldccc	5, cr0, [r1], {34}	@ 0x22
 46c:	053c1605 	ldreq	r1, [ip, #-1541]!	@ 0xfffff9fb
 470:	37052014 			@ <UNDEFINED> instruction: 0x37052014
 474:	03040200 	tsteq	r4, #0, 4
 478:	0028051e 	eoreq	r0, r8, lr, lsl r5
 47c:	3c010402 	stccc	4, cr0, [r1], {2}
 480:	05510c05 	ldrbeq	r0, [r1, #-3077]	@ 0xfffff3fb
 484:	0a052025 	beq	148520 <__max_heap_size+0x148120>
 488:	2f0d0520 	svccs	0x000d0520
 48c:	05301305 	ldreq	r1, [r0, #-773]!	@ 0xfffffcfb
 490:	11052e05 	tstne	r5, r5, lsl #28
 494:	3c140522 	ldccc	5, cr0, [r4], {34}	@ 0x22
 498:	02003705 	andeq	r3, r0, #1310720	@ 0x140000
 49c:	052c0304 	streq	r0, [ip, #-772]!	@ 0xfffffcfc
 4a0:	04020028 	streq	r0, [r2], #-40	@ 0xffffffd8
 4a4:	05053c01 	streq	r3, [r5, #-3073]	@ 0xfffff3ff
 4a8:	0b053150 	bleq	14c9f0 <__max_heap_size+0x14c5f0>
 4ac:	bf010530 	svclt	0x00010530
 4b0:	022f0b05 	eoreq	r0, pc, #5120	@ 0x1400
 4b4:	01010002 	tsteq	r1, r2
 4b8:	00000364 	andeq	r0, r0, r4, ror #6
 4bc:	02eb0003 	rsceq	r0, fp, #3
 4c0:	01020000 	mrseq	r0, (UNDEF: 2)
 4c4:	000d0efb 			@ <UNDEFINED> instruction: 0x000d0efb
 4c8:	01010101 	tsteq	r1, r1, lsl #2
 4cc:	01000000 	mrseq	r0, (UNDEF: 0)
 4d0:	2e010000 	cdpcs	0, 0, cr0, cr1, cr0, {0}
 4d4:	6f632f2e 	svcvs	0x00632f2e
 4d8:	79736572 	ldmdbvc	r3!, {r1, r4, r5, r6, r8, sl, sp, lr}^
 4dc:	79732f73 	ldmdbvc	r3!, {r0, r1, r4, r5, r6, r8, r9, sl, fp, sp}^
 4e0:	6c616373 	stclvs	3, cr6, [r1], #-460	@ 0xfffffe34
 4e4:	2f00736c 	svccs	0x0000736c
 4e8:	656d6f68 	strbvs	r6, [sp, #-3944]!	@ 0xfffff098
 4ec:	6a61722f 	bvs	185cdb0 <__max_heap_size+0x185c9b0>
 4f0:	6d72612f 	ldclvs	1, cr6, [r2, #-188]!	@ 0xffffff44
 4f4:	756e672d 	strbvc	r6, [lr, #-1837]!	@ 0xfffff8d3
 4f8:	6f6f742d 	svcvs	0x006f742d
 4fc:	6168636c 	cmnvs	r8, ip, ror #6
 500:	312d6e69 			@ <UNDEFINED> instruction: 0x312d6e69
 504:	2e322e34 	mrccs	14, 1, r2, cr2, cr4, {1}
 508:	316c6572 	cmncc	ip, r2, ror r5
 50c:	3638782d 	ldrtcc	r7, [r8], -sp, lsr #16
 510:	2d34365f 	ldccs	6, cr3, [r4, #-380]!	@ 0xfffffe84
 514:	2d6d7261 	stclcs	2, cr7, [sp, #-388]!	@ 0xfffffe7c
 518:	656e6f6e 	strbvs	r6, [lr, #-3950]!	@ 0xfffff092
 51c:	6261652d 	rsbvs	r6, r1, #188743680	@ 0xb400000
 520:	696c2f69 	stmdbvs	ip!, {r0, r3, r5, r6, r8, r9, sl, fp, sp}^
 524:	63672f62 	cmnvs	r7, #392	@ 0x188
 528:	72612f63 	rsbvc	r2, r1, #396	@ 0x18c
 52c:	6f6e2d6d 	svcvs	0x006e2d6d
 530:	652d656e 	strvs	r6, [sp, #-1390]!	@ 0xfffffa92
 534:	2f696261 	svccs	0x00696261
 538:	322e3431 	eorcc	r3, lr, #822083584	@ 0x31000000
 53c:	692f312e 	stmdbvs	pc!, {r1, r2, r3, r5, r8, ip, sp}	@ <UNPREDICTABLE>
 540:	756c636e 	strbvc	r6, [ip, #-878]!	@ 0xfffffc92
 544:	2f006564 	svccs	0x00006564
 548:	656d6f68 	strbvs	r6, [sp, #-3944]!	@ 0xfffff098
 54c:	6a61722f 	bvs	185ce10 <__max_heap_size+0x185ca10>
 550:	6d72612f 	ldclvs	1, cr6, [r2, #-188]!	@ 0xffffff44
 554:	756e672d 	strbvc	r6, [lr, #-1837]!	@ 0xfffff8d3
 558:	6f6f742d 	svcvs	0x006f742d
 55c:	6168636c 	cmnvs	r8, ip, ror #6
 560:	312d6e69 			@ <UNDEFINED> instruction: 0x312d6e69
 564:	2e322e34 	mrccs	14, 1, r2, cr2, cr4, {1}
 568:	316c6572 	cmncc	ip, r2, ror r5
 56c:	3638782d 	ldrtcc	r7, [r8], -sp, lsr #16
 570:	2d34365f 	ldccs	6, cr3, [r4, #-380]!	@ 0xfffffe84
 574:	2d6d7261 	stclcs	2, cr7, [sp, #-388]!	@ 0xfffffe7c
 578:	656e6f6e 	strbvs	r6, [lr, #-3950]!	@ 0xfffff092
 57c:	6261652d 	rsbvs	r6, r1, #188743680	@ 0xb400000
 580:	72612f69 	rsbvc	r2, r1, #420	@ 0x1a4
 584:	6f6e2d6d 	svcvs	0x006e2d6d
 588:	652d656e 	strvs	r6, [sp, #-1390]!	@ 0xfffffa92
 58c:	2f696261 	svccs	0x00696261
 590:	6c636e69 	stclvs	14, cr6, [r3], #-420	@ 0xfffffe5c
 594:	2f656475 	svccs	0x00656475
 598:	6863616d 	stmdavs	r3!, {r0, r2, r3, r5, r6, r8, sp, lr}^
 59c:	00656e69 	rsbeq	r6, r5, r9, ror #28
 5a0:	6d6f682f 	stclvs	8, cr6, [pc, #-188]!	@ 4ec <__max_heap_size+0xec>
 5a4:	61722f65 	cmnvs	r2, r5, ror #30
 5a8:	72612f6a 	rsbvc	r2, r1, #424	@ 0x1a8
 5ac:	6e672d6d 	cdpvs	13, 6, cr2, cr7, cr13, {3}
 5b0:	6f742d75 	svcvs	0x00742d75
 5b4:	68636c6f 	stmdavs	r3!, {r0, r1, r2, r3, r5, r6, sl, fp, sp, lr}^
 5b8:	2d6e6961 			@ <UNDEFINED> instruction: 0x2d6e6961
 5bc:	322e3431 	eorcc	r3, lr, #822083584	@ 0x31000000
 5c0:	6c65722e 	stclvs	2, cr7, [r5], #-184	@ 0xffffff48
 5c4:	38782d31 	ldmdacc	r8!, {r0, r4, r5, r8, sl, fp, sp}^
 5c8:	34365f36 	ldrtcc	r5, [r6], #-3894	@ 0xfffff0ca
 5cc:	6d72612d 	ldclvs	1, cr6, [r2, #-180]!	@ 0xffffff4c
 5d0:	6e6f6e2d 	cdpvs	14, 6, cr6, cr15, cr13, {1}
 5d4:	61652d65 	cmnvs	r5, r5, ror #26
 5d8:	612f6962 			@ <UNDEFINED> instruction: 0x612f6962
 5dc:	6e2d6d72 	mcrvs	13, 1, r6, cr13, cr2, {3}
 5e0:	2d656e6f 	stclcs	14, cr6, [r5, #-444]!	@ 0xfffffe44
 5e4:	69626165 	stmdbvs	r2!, {r0, r2, r5, r6, r8, sp, lr}^
 5e8:	636e692f 	cmnvs	lr, #770048	@ 0xbc000
 5ec:	6564756c 	strbvs	r7, [r4, #-1388]!	@ 0xfffffa94
 5f0:	7379732f 	cmnvc	r9, #-1140850688	@ 0xbc000000
 5f4:	6f682f00 	svcvs	0x00682f00
 5f8:	722f656d 	eorvc	r6, pc, #457179136	@ 0x1b400000
 5fc:	612f6a61 			@ <UNDEFINED> instruction: 0x612f6a61
 600:	672d6d72 			@ <UNDEFINED> instruction: 0x672d6d72
 604:	742d756e 	strtvc	r7, [sp], #-1390	@ 0xfffffa92
 608:	636c6f6f 	cmnvs	ip, #444	@ 0x1bc
 60c:	6e696168 	cdpvs	1, 6, cr6, cr9, cr8, {3}
 610:	2e34312d 	cdpcs	1, 3, cr3, cr4, cr13, {1}
 614:	65722e32 	ldrbvs	r2, [r2, #-3634]!	@ 0xfffff1ce
 618:	782d316c 	stmdavc	sp!, {r2, r3, r5, r6, r8, ip, sp}
 61c:	365f3638 			@ <UNDEFINED> instruction: 0x365f3638
 620:	72612d34 	rsbvc	r2, r1, #52, 26	@ 0xd00
 624:	6f6e2d6d 	svcvs	0x006e2d6d
 628:	652d656e 	strvs	r6, [sp, #-1390]!	@ 0xfffffa92
 62c:	2f696261 	svccs	0x00696261
 630:	2d6d7261 	stclcs	2, cr7, [sp, #-388]!	@ 0xfffffe7c
 634:	656e6f6e 	strbvs	r6, [lr, #-3950]!	@ 0xfffff092
 638:	6261652d 	rsbvs	r6, r1, #188743680	@ 0xb400000
 63c:	6e692f69 	cdpvs	15, 6, cr2, cr9, cr9, {3}
 640:	64756c63 	ldrbtvs	r6, [r5], #-3171	@ 0xfffff39d
 644:	73000065 	tstvc	r0, #101	@ 0x65
 648:	61637379 	cmnvs	r3, r9, ror r3
 64c:	632e6c6c 			@ <UNDEFINED> instruction: 0x632e6c6c
 650:	00000100 	andeq	r0, r0, r0, lsl #2
 654:	64647473 	strbtvs	r7, [r4], #-1139	@ 0xfffffb8d
 658:	682e6665 	stmdavs	lr!, {r0, r2, r5, r6, r9, sl, sp, lr}
 65c:	00000200 	andeq	r0, r0, r0, lsl #4
 660:	6665645f 			@ <UNDEFINED> instruction: 0x6665645f
 664:	746c7561 	strbtvc	r7, [ip], #-1377	@ 0xfffffa9f
 668:	7079745f 	rsbsvc	r7, r9, pc, asr r4
 66c:	682e7365 	stmdavs	lr!, {r0, r2, r5, r6, r8, r9, ip, sp, lr}
 670:	00000300 	andeq	r0, r0, r0, lsl #6
 674:	6474735f 	ldrbtvs	r7, [r4], #-863	@ 0xfffffca1
 678:	2e746e69 	cdpcs	14, 7, cr6, cr4, cr9, {3}
 67c:	00040068 	andeq	r0, r4, r8, rrx
 680:	79745f00 	ldmdbvc	r4!, {r8, r9, sl, fp, ip, lr}^
 684:	2e736570 	mrccs	5, 3, r6, cr3, cr0, {3}
 688:	00040068 	andeq	r0, r4, r8, rrx
 68c:	70797400 	rsbsvc	r7, r9, r0, lsl #8
 690:	682e7365 	stmdavs	lr!, {r0, r2, r5, r6, r8, r9, ip, sp, lr}
 694:	00000400 	andeq	r0, r0, r0, lsl #8
 698:	6d69745f 	stclvs	4, cr7, [r9, #-380]!	@ 0xfffffe84
 69c:	65707365 	ldrbvs	r7, [r0, #-869]!	@ 0xfffffc9b
 6a0:	00682e63 	rsbeq	r2, r8, r3, ror #28
 6a4:	73000004 	tstvc	r0, #4
 6a8:	2e746174 	mrccs	1, 3, r6, cr4, cr4, {3}
 6ac:	00040068 	andeq	r0, r4, r8, rrx
 6b0:	696e7500 	stmdbvs	lr!, {r8, sl, ip, sp, lr}^
 6b4:	2e647473 	mcrcs	4, 3, r7, cr4, cr3, {3}
 6b8:	00040068 	andeq	r0, r4, r8, rrx
 6bc:	64747300 	ldrbtvs	r7, [r4], #-768	@ 0xfffffd00
 6c0:	2e746e69 	cdpcs	14, 7, cr6, cr4, cr9, {3}
 6c4:	00020068 	andeq	r0, r2, r8, rrx
 6c8:	64747300 	ldrbtvs	r7, [r4], #-768	@ 0xfffffd00
 6cc:	2e746e69 	cdpcs	14, 7, cr6, cr4, cr9, {3}
 6d0:	00050068 	andeq	r0, r5, r8, rrx
 6d4:	61656600 	cmnvs	r5, r0, lsl #12
 6d8:	65727574 	ldrbvs	r7, [r2, #-1396]!	@ 0xfffffa8c
 6dc:	00682e73 	rsbeq	r2, r8, r3, ror lr
 6e0:	5f000004 	svcpl	0x00000004
 6e4:	6c77656e 	ldclvs	5, cr6, [r7], #-440	@ 0xfffffe48
 6e8:	765f6269 	ldrbvc	r6, [pc], -r9, ror #4
 6ec:	69737265 	ldmdbvs	r3!, {r0, r2, r5, r6, r9, ip, sp, lr}^
 6f0:	682e6e6f 	stmdavs	lr!, {r0, r1, r2, r3, r5, r6, r9, sl, fp, sp, lr}
 6f4:	00000500 	andeq	r0, r0, r0, lsl #10
 6f8:	746e695f 	strbtvc	r6, [lr], #-2399	@ 0xfffff6a1
 6fc:	2e707573 	mrccs	5, 3, r7, cr0, cr3, {3}
 700:	00040068 	andeq	r0, r4, r8, rrx
 704:	6e615f00 	cdpvs	15, 6, cr5, cr1, cr0, {0}
 708:	682e6973 	stmdavs	lr!, {r0, r1, r4, r5, r6, r8, fp, sp, lr}
 70c:	00000500 	andeq	r0, r0, r0, lsl #10
 710:	6c77656e 	ldclvs	5, cr6, [r7], #-440	@ 0xfffffe48
 714:	682e6269 	stmdavs	lr!, {r0, r3, r5, r6, r9, sp, lr}
 718:	00000500 	andeq	r0, r0, r0, lsl #10
 71c:	666e6f63 	strbtvs	r6, [lr], -r3, ror #30
 720:	682e6769 	stmdavs	lr!, {r0, r3, r5, r6, r8, r9, sl, sp, lr}
 724:	00000400 	andeq	r0, r0, r0, lsl #8
 728:	65656569 	strbvs	r6, [r5, #-1385]!	@ 0xfffffa97
 72c:	682e7066 	stmdavs	lr!, {r1, r2, r5, r6, ip, sp, lr}
 730:	00000300 	andeq	r0, r0, r0, lsl #6
 734:	656d6974 	strbvs	r6, [sp, #-2420]!	@ 0xfffff68c
 738:	0500682e 	streq	r6, [r0, #-2094]	@ 0xfffff7d2
 73c:	64630000 	strbtvs	r0, [r3], #-0
 740:	2e736665 	cdpcs	6, 7, cr6, cr3, cr5, {3}
 744:	00040068 	andeq	r0, r4, r8, rrx
 748:	65657200 	strbvs	r7, [r5, #-512]!	@ 0xfffffe00
 74c:	682e746e 	stmdavs	lr!, {r1, r2, r3, r5, r6, sl, ip, sp, lr}
 750:	00000400 	andeq	r0, r0, r0, lsl #8
 754:	7079745f 	rsbsvc	r7, r9, pc, asr r4
 758:	682e7365 	stmdavs	lr!, {r0, r2, r5, r6, r8, r9, ip, sp, lr}
 75c:	00000300 	andeq	r0, r0, r0, lsl #6
 760:	6b636f6c 	blvs	18dc518 <__max_heap_size+0x18dc118>
 764:	0400682e 	streq	r6, [r0], #-2094	@ 0xfffff7d2
 768:	69740000 	ldmdbvs	r4!, {}^	@ <UNPREDICTABLE>
 76c:	682e656d 	stmdavs	lr!, {r0, r2, r3, r5, r6, r8, sl, sp, lr}
 770:	00000300 	andeq	r0, r0, r0, lsl #6
 774:	6874705f 	ldmdavs	r4!, {r0, r1, r2, r3, r4, r6, ip, sp, lr}^
 778:	64616572 	strbtvs	r6, [r1], #-1394	@ 0xfffffa8e
 77c:	65707974 	ldrbvs	r7, [r0, #-2420]!	@ 0xfffff68c
 780:	00682e73 	rsbeq	r2, r8, r3, ror lr
 784:	74000004 	strvc	r0, [r0], #-4
 788:	73657079 	cmnvc	r5, #121	@ 0x79
 78c:	0300682e 	tsteq	r0, #3014656	@ 0x2e0000
 790:	69740000 	ldmdbvs	r4!, {}^	@ <UNPREDICTABLE>
 794:	7073656d 	rsbsvc	r6, r3, sp, ror #10
 798:	682e6365 	stmdavs	lr!, {r0, r2, r5, r6, r8, r9, sp, lr}
 79c:	00000400 	andeq	r0, r0, r0, lsl #8
 7a0:	73696e75 	cmnvc	r9, #1872	@ 0x750
 7a4:	682e6474 	stmdavs	lr!, {r2, r4, r5, r6, sl, sp, lr}
 7a8:	00000500 	andeq	r0, r0, r0, lsl #10
 7ac:	00010500 	andeq	r0, r1, r0, lsl #10
 7b0:	02b40205 	adcseq	r0, r4, #1342177280	@ 0x50000000
 7b4:	0d030800 	stceq	8, cr0, [r3, #-0]
 7b8:	4b0e0501 	blmi	381bc4 <__max_heap_size+0x3817c4>
 7bc:	05311805 	ldreq	r1, [r1, #-2053]!	@ 0xfffff7fb
 7c0:	10054a08 	andne	r4, r5, r8, lsl #20
 7c4:	3f13053e 	svccc	0x0013053e
 7c8:	680c053e 	stmdavs	ip, {r1, r2, r3, r4, r5, r8, sl}
 7cc:	a1210105 			@ <UNDEFINED> instruction: 0xa1210105
 7d0:	054c0b05 	strbeq	r0, [ip, #-2821]	@ 0xfffff4fb
 7d4:	0c053401 	stceq	4, cr3, [r5], {1}
 7d8:	2101056a 	tstcs	r1, sl, ror #10
 7dc:	6a0c0569 	bvs	301d88 <__max_heap_size+0x301988>
 7e0:	69210105 	stmdbvs	r1!, {r0, r2, r8}
 7e4:	054c0c05 	strbeq	r0, [ip, #-3077]	@ 0xfffff3fb
 7e8:	05692101 	strbeq	r2, [r9, #-257]!	@ 0xfffffeff
 7ec:	01056a0c 	tsteq	r5, ip, lsl #20
 7f0:	0c056921 			@ <UNDEFINED> instruction: 0x0c056921
 7f4:	2101055b 	tstcs	r1, fp, asr r5
 7f8:	4c0c0569 	stcmi	5, cr0, [ip], {105}	@ 0x69
 7fc:	69210105 	stmdbvs	r1!, {r0, r2, r8}
 800:	055b0c05 	ldrbeq	r0, [fp, #-3077]	@ 0xfffff3fb
 804:	05692f01 	strbeq	r2, [r9, #-3841]!	@ 0xfffff0ff
 808:	01055b0c 	tsteq	r5, ip, lsl #22
 80c:	0c05772f 	stceq	7, cr7, [r5], {47}	@ 0x2f
 810:	2f01054c 	svccs	0x0001054c
 814:	5b0c0569 	blpl	301dc0 <__max_heap_size+0x3019c0>
 818:	022f0105 	eoreq	r0, pc, #1073741825	@ 0x40000001
 81c:	01010006 	tsteq	r1, r6

Disassembly of section .debug_str:

00000000 <.debug_str>:
       0:	52415f5f 	subpl	r5, r1, #380	@ 0x17c
       4:	45465f4d 	strbmi	r5, [r6, #-3917]	@ 0xfffff0b3
       8:	52555441 	subspl	r5, r5, #1090519040	@ 0x41000000
       c:	50465f45 	subpl	r5, r6, r5, asr #30
      10:	565f3631 			@ <UNDEFINED> instruction: 0x565f3631
      14:	4f544345 	svcmi	0x00544345
      18:	52415f52 	subpl	r5, r1, #328	@ 0x148
      1c:	4d485449 	stclmi	4, cr5, [r8, #-292]	@ 0xfffffedc
      20:	43495445 	cmpmi	r9, #1157627904	@ 0x45000000
      24:	535f5f00 	cmppl	pc, #0, 30
      28:	415f4749 	cmpmi	pc, r9, asr #14
      2c:	494d4f54 	stmdbmi	sp, {r2, r4, r6, r8, r9, sl, fp, lr}^
      30:	414d5f43 	cmpmi	sp, r3, asr #30
      34:	205f5f58 	subscs	r5, pc, r8, asr pc	@ <UNPREDICTABLE>
      38:	66377830 			@ <UNDEFINED> instruction: 0x66377830
      3c:	66666666 	strbtvs	r6, [r6], -r6, ror #12
      40:	5f006666 	svcpl	0x00006666
      44:	5f41545f 	svcpl	0x0041545f
      48:	54494246 	strbpl	r4, [r9], #-582	@ 0xfffffdba
      4c:	36205f5f 			@ <UNDEFINED> instruction: 0x36205f5f
      50:	5f5f0033 	svcpl	0x005f0033
      54:	41524655 	cmpmi	r2, r5, asr r6
      58:	495f5443 	ldmdbmi	pc, {r0, r1, r6, sl, ip, lr}^	@ <UNPREDICTABLE>
      5c:	5f544942 	svcpl	0x00544942
      60:	0030205f 	eorseq	r2, r0, pc, asr r0
      64:	4c465f5f 	stclmi	15, cr5, [r6], {95}	@ 0x5f
      68:	5f323354 	svcpl	0x00323354
      6c:	5f534148 	svcpl	0x00534148
      70:	49464e49 	stmdbmi	r6, {r0, r3, r6, r9, sl, fp, lr}^
      74:	5954494e 	ldmdbpl	r4, {r1, r2, r3, r6, r8, fp, lr}^
      78:	31205f5f 			@ <UNDEFINED> instruction: 0x31205f5f
      7c:	555f5f00 	ldrbpl	r5, [pc, #-3840]	@ fffff184 <_estack+0xdffe7184>
      80:	5f544e49 	svcpl	0x00544e49
      84:	54534146 	ldrbpl	r4, [r3], #-326	@ 0xfffffeba
      88:	59545f38 	ldmdbpl	r4, {r3, r4, r5, r8, r9, sl, fp, ip, lr}^
      8c:	5f5f4550 	svcpl	0x005f4550
      90:	736e7520 	cmnvc	lr, #32, 10	@ 0x8000000
      94:	656e6769 	strbvs	r6, [lr, #-1897]!	@ 0xfffff897
      98:	6e692064 	cdpvs	0, 6, cr2, cr9, cr4, {3}
      9c:	5f5f0074 	svcpl	0x005f0074
      a0:	36544c46 	ldrbcc	r4, [r4], -r6, asr #24
      a4:	414d5f34 	cmpmi	sp, r4, lsr pc
      a8:	58455f58 	stmdapl	r5, {r3, r4, r6, r8, r9, sl, fp, ip, lr}^
      ac:	205f5f50 	subscs	r5, pc, r0, asr pc	@ <UNPREDICTABLE>
      b0:	34323031 	ldrtcc	r3, [r2], #-49	@ 0xffffffcf
      b4:	544e4900 	strbpl	r4, [lr], #-2304	@ 0xfffff700
      b8:	41454c5f 	cmpmi	r5, pc, asr ip
      bc:	5f385453 	svcpl	0x00385453
      c0:	2058414d 	subscs	r4, r8, sp, asr #2
      c4:	495f5f28 	ldmdbmi	pc, {r3, r5, r8, r9, sl, fp, ip, lr}^	@ <UNPREDICTABLE>
      c8:	4c5f544e 	ldclmi	4, cr5, [pc], {78}	@ 0x4e
      cc:	54534145 	ldrbpl	r4, [r3], #-325	@ 0xfffffebb
      d0:	414d5f38 	cmpmi	sp, r8, lsr pc
      d4:	295f5f58 	ldmdbcs	pc, {r3, r4, r6, r8, r9, sl, fp, ip, lr}^	@ <UNPREDICTABLE>
      d8:	685f5f00 	ldmdavs	pc, {r8, r9, sl, fp, ip, lr}^	@ <UNPREDICTABLE>
      dc:	5f657661 	svcpl	0x00657661
      e0:	676e6f6c 	strbvs	r6, [lr, -ip, ror #30]!
      e4:	31203233 			@ <UNDEFINED> instruction: 0x31203233
      e8:	745f5f00 	ldrbvc	r5, [pc], #-3840	@ f0 <__max_stack_size-0x110>
      ec:	626d7568 	rsbvs	r7, sp, #104, 10	@ 0x1a000000
      f0:	205f5f32 	subscs	r5, pc, r2, lsr pc	@ <UNPREDICTABLE>
      f4:	5f5f0031 	svcpl	0x005f0031
      f8:	33544c46 	cmpcc	r4, #17920	@ 0x4600
      fc:	4d5f5832 	ldclmi	8, cr5, [pc, #-200]	@ 3c <__max_stack_size-0x1c4>
     100:	455f5841 	ldrbmi	r5, [pc, #-2113]	@ fffff8c7 <_estack+0xdffe78c7>
     104:	5f5f5058 	svcpl	0x005f5058
     108:	32303120 	eorscc	r3, r0, #32, 2
     10c:	5f5f0034 	svcpl	0x005f0034
     110:	5f544e49 	svcpl	0x00544e49
     114:	54534146 	ldrbpl	r4, [r3], #-326	@ 0xfffffeba
     118:	575f3631 			@ <UNDEFINED> instruction: 0x575f3631
     11c:	48544449 	ldmdami	r4, {r0, r3, r6, sl, lr}^
     120:	33205f5f 			@ <UNDEFINED> instruction: 0x33205f5f
     124:	5f5f0032 	svcpl	0x005f0032
     128:	5f434347 	svcpl	0x00434347
     12c:	4d4f5441 	stclmi	4, cr5, [pc, #-260]	@ 30 <__max_stack_size-0x1d0>
     130:	545f4349 	ldrbpl	r4, [pc], #-841	@ 138 <__max_stack_size-0xc8>
     134:	5f545345 	svcpl	0x00545345
     138:	5f444e41 	svcpl	0x00444e41
     13c:	5f544553 	svcpl	0x00544553
     140:	45555254 	ldrbmi	r5, [r5, #-596]	@ 0xfffffdac
     144:	204c4156 	subcs	r4, ip, r6, asr r1
     148:	4e490031 	mcrmi	0, 2, r0, cr9, cr1, {1}
     14c:	58414d54 	stmdapl	r1, {r2, r4, r6, r8, sl, fp, lr}^
     150:	4e494d5f 	mcrmi	13, 2, r4, cr9, cr15, {2}
     154:	492d2820 	pushmi	{r5, fp, sp}
     158:	414d544e 	cmpmi	sp, lr, asr #8
     15c:	414d5f58 	cmpmi	sp, r8, asr pc
     160:	202d2058 	eorcs	r2, sp, r8, asr r0
     164:	5f002931 	svcpl	0x00002931
     168:	414c555f 	cmpmi	ip, pc, asr r5
     16c:	4d554343 	ldclmi	3, cr4, [r5, #-268]	@ 0xfffffef4
     170:	5350455f 	cmppl	r0, #398458880	@ 0x17c00000
     174:	4e4f4c49 	cdpmi	12, 4, cr4, cr15, cr9, {2}
     178:	30205f5f 	eorcc	r5, r0, pc, asr pc
     17c:	2d503178 	ldclcs	1, cr3, [r0, #-480]	@ 0xfffffe20
     180:	4c553233 	ldclmi	2, cr3, [r5], {51}	@ 0x33
     184:	5f5f004b 	svcpl	0x005f004b
     188:	33544c46 	cmpcc	r4, #17920	@ 0x4600
     18c:	414d5f32 	cmpmi	sp, r2, lsr pc
     190:	445f544e 	ldrbmi	r5, [pc], #-1102	@ 198 <__max_stack_size-0x68>
     194:	5f5f4749 	svcpl	0x005f4749
     198:	00343220 	eorseq	r3, r4, r0, lsr #4
     19c:	53555f5f 	cmppl	r5, #380	@ 0x17c
     1a0:	42495f51 	submi	r5, r9, #324	@ 0x144
     1a4:	5f5f5449 	svcpl	0x005f5449
     1a8:	49003020 	stmdbmi	r0, {r5, ip, sp}
     1ac:	4c5f544e 	ldclmi	4, cr5, [pc], {78}	@ 0x4e
     1b0:	54534145 	ldrbpl	r4, [r3], #-325	@ 0xfffffebb
     1b4:	4d5f3436 	ldclmi	4, cr3, [pc, #-216]	@ e4 <__max_stack_size-0x11c>
     1b8:	28204e49 	stmdacs	r0!, {r0, r3, r6, r9, sl, fp, lr}
     1bc:	495f5f2d 	ldmdbmi	pc, {r0, r2, r3, r5, r8, r9, sl, fp, ip, lr}^	@ <UNPREDICTABLE>
     1c0:	4c5f544e 	ldclmi	4, cr5, [pc], {78}	@ 0x4e
     1c4:	54534145 	ldrbpl	r4, [r3], #-325	@ 0xfffffebb
     1c8:	4d5f3436 	ldclmi	4, cr3, [pc, #-216]	@ f8 <__max_stack_size-0x108>
     1cc:	5f5f5841 	svcpl	0x005f5841
     1d0:	31202d20 			@ <UNDEFINED> instruction: 0x31202d20
     1d4:	5f5f0029 	svcpl	0x005f0029
     1d8:	544e4955 	strbpl	r4, [lr], #-2389	@ 0xfffff6ab
     1dc:	28435f38 	stmdacs	r3, {r3, r4, r5, r8, r9, sl, fp, ip, lr}^
     1e0:	63202963 			@ <UNDEFINED> instruction: 0x63202963
     1e4:	415f5f00 	cmpmi	pc, r0, lsl #30
     1e8:	4e5f4d52 	mrcmi	13, 2, r4, cr15, cr2, {2}
     1ec:	5f4e4f45 	svcpl	0x004e4f45
     1f0:	5f5f005f 	svcpl	0x005f005f
     1f4:	455a4953 	ldrbmi	r4, [sl, #-2387]	@ 0xfffff6ad
     1f8:	575f464f 	ldrbpl	r4, [pc, -pc, asr #12]
     1fc:	5f544e49 	svcpl	0x00544e49
     200:	205f5f54 	subscs	r5, pc, r4, asr pc	@ <UNPREDICTABLE>
     204:	5f5f0034 	svcpl	0x005f0034
     208:	495f5151 	ldmdbmi	pc, {r0, r4, r6, r8, ip, lr}^	@ <UNPREDICTABLE>
     20c:	5f544942 	svcpl	0x00544942
     210:	0030205f 	eorseq	r2, r0, pc, asr r0
     214:	44555f5f 	ldrbmi	r5, [r5], #-3935	@ 0xfffff0a1
     218:	42495f51 	submi	r5, r9, #324	@ 0x144
     21c:	5f5f5449 	svcpl	0x005f5449
     220:	5f003020 	svcpl	0x00003020
     224:	746e695f 	strbtvc	r6, [lr], #-2399	@ 0xfffff6a1
     228:	5f5f3032 	svcpl	0x005f3032
     22c:	4e495500 	cdpmi	5, 4, cr5, cr9, cr0, {0}
     230:	5f343654 	svcpl	0x00343654
     234:	29782843 	ldmdbcs	r8!, {r0, r1, r6, fp, sp}^
     238:	555f5f20 	ldrbpl	r5, [pc, #-3872]	@ fffff320 <_estack+0xdffe7320>
     23c:	36544e49 	ldrbcc	r4, [r4], -r9, asr #28
     240:	28435f34 	stmdacs	r3, {r2, r4, r5, r8, r9, sl, fp, ip, lr}^
     244:	55002978 	strpl	r2, [r0, #-2424]	@ 0xfffff688
     248:	5f544e49 	svcpl	0x00544e49
     24c:	5341454c 	cmppl	r1, #76, 10	@ 0x13000000
     250:	5f323354 	svcpl	0x00323354
     254:	2058414d 	subscs	r4, r8, sp, asr #2
     258:	555f5f28 	ldrbpl	r5, [pc, #-3880]	@ fffff338 <_estack+0xdffe7338>
     25c:	5f544e49 	svcpl	0x00544e49
     260:	5341454c 	cmppl	r1, #76, 10	@ 0x13000000
     264:	5f323354 	svcpl	0x00323354
     268:	5f58414d 	svcpl	0x0058414d
     26c:	5f00295f 	svcpl	0x0000295f
     270:	544c465f 	strbpl	r4, [ip], #-1631	@ 0xfffff9a1
     274:	5f583233 	svcpl	0x00583233
     278:	49434544 	stmdbmi	r3, {r2, r6, r8, sl, lr}^
     27c:	5f4c414d 	svcpl	0x004c414d
     280:	5f474944 	svcpl	0x00474944
     284:	3731205f 			@ <UNDEFINED> instruction: 0x3731205f
     288:	585f5f00 	ldmdapl	pc, {r8, r9, sl, fp, ip, lr}^	@ <UNPREDICTABLE>
     28c:	565f4953 			@ <UNDEFINED> instruction: 0x565f4953
     290:	42495349 	submi	r5, r9, #603979777	@ 0x24000001
     294:	3020454c 	eorcc	r4, r0, ip, asr #10
     298:	445f5f00 	ldrbmi	r5, [pc], #-3840	@ 2a0 <__max_stack_size+0xa0>
     29c:	4d5f4c42 	ldclmi	12, cr4, [pc, #-264]	@ 19c <__max_stack_size-0x64>
     2a0:	455f4e49 	ldrbmi	r4, [pc, #-3657]	@ fffff45f <_estack+0xdffe745f>
     2a4:	5f5f5058 	svcpl	0x005f5058
     2a8:	312d2820 			@ <UNDEFINED> instruction: 0x312d2820
     2ac:	29313230 	ldmdbcs	r1!, {r4, r5, r9, ip, sp}
     2b0:	4c5f5f00 	ldclmi	15, cr5, [pc], {-0}
     2b4:	5f474e4f 	svcpl	0x00474e4f
     2b8:	474e4f4c 	strbmi	r4, [lr, -ip, asr #30]
     2bc:	4449575f 	strbmi	r5, [r9], #-1887	@ 0xfffff8a1
     2c0:	5f5f4854 	svcpl	0x005f4854
     2c4:	00343620 	eorseq	r3, r4, r0, lsr #12
     2c8:	43475f5f 	cmpmi	r7, #380	@ 0x17c
     2cc:	54415f43 	strbpl	r5, [r1], #-3907	@ 0xfffff0bd
     2d0:	43494d4f 	cmpmi	r9, #5056	@ 0x13c0
     2d4:	4148435f 	cmpmi	r8, pc, asr r3
     2d8:	5f363152 	svcpl	0x00363152
     2dc:	4f4c5f54 	svcmi	0x004c5f54
     2e0:	465f4b43 	ldrbmi	r4, [pc], -r3, asr #22
     2e4:	20454552 	subcs	r4, r5, r2, asr r5
     2e8:	5f5f0032 	svcpl	0x005f0032
     2ec:	5f4d5241 	svcpl	0x004d5241
     2f0:	54414546 	strbpl	r4, [r1], #-1350	@ 0xfffffaba
     2f4:	5f455255 	svcpl	0x00455255
     2f8:	5f454443 	svcpl	0x00454443
     2fc:	52504f43 	subspl	r4, r0, #268	@ 0x10c
     300:	4700434f 	strmi	r4, [r0, -pc, asr #6]
     304:	414f4950 	cmpmi	pc, r0, asr r9	@ <UNPREDICTABLE>
     308:	52444f5f 	subpl	r4, r4, #380	@ 0x17c
     30c:	46464f5f 			@ <UNDEFINED> instruction: 0x46464f5f
     310:	20544553 	subscs	r4, r4, r3, asr r5
     314:	31783028 	cmncc	r8, r8, lsr #32
     318:	294c5534 	stmdbcs	ip, {r2, r4, r5, r8, sl, ip, lr}^
     31c:	415f5f00 	cmpmi	pc, r0, lsl #30
     320:	535f4d52 	cmppl	pc, #5248	@ 0x1480
     324:	4f455a49 	svcmi	0x00455a49
     328:	43575f46 	cmpmi	r7, #280	@ 0x118
     32c:	5f524148 	svcpl	0x00524148
     330:	00342054 	eorseq	r2, r4, r4, asr r0
     334:	52415f5f 	subpl	r5, r1, #380	@ 0x17c
     338:	50465f4d 	subpl	r5, r6, sp, asr #30
     33c:	465f3631 			@ <UNDEFINED> instruction: 0x465f3631
     340:	414d524f 	cmpmi	sp, pc, asr #4
     344:	45495f54 	strbmi	r5, [r9, #-3924]	@ 0xfffff0ac
     348:	55004545 	strpl	r4, [r0, #-1349]	@ 0xfffffabb
     34c:	5f544e49 	svcpl	0x00544e49
     350:	5341454c 	cmppl	r1, #76, 10	@ 0x13000000
     354:	4d5f3854 	ldclmi	8, cr3, [pc, #-336]	@ 20c <__max_stack_size+0xc>
     358:	28205841 	stmdacs	r0!, {r0, r6, fp, ip, lr}
     35c:	49555f5f 	ldmdbmi	r5, {r0, r1, r2, r3, r4, r6, r8, r9, sl, fp, ip, lr}^
     360:	4c5f544e 	ldclmi	4, cr5, [pc], {78}	@ 0x4e
     364:	54534145 	ldrbpl	r4, [r3], #-325	@ 0xfffffebb
     368:	414d5f38 	cmpmi	sp, r8, lsr pc
     36c:	295f5f58 	ldmdbcs	pc, {r3, r4, r6, r8, r9, sl, fp, ip, lr}^	@ <UNPREDICTABLE>
     370:	415f5f00 	cmpmi	pc, r0, lsl #30
     374:	465f4d52 			@ <UNDEFINED> instruction: 0x465f4d52
     378:	55544145 	ldrbpl	r4, [r4, #-325]	@ 0xfffffebb
     37c:	435f4552 	cmpmi	pc, #343932928	@ 0x14800000
     380:	4c504d4f 	ldclmi	13, cr4, [r0], {79}	@ 0x4f
     384:	5f005845 	svcpl	0x00005845
     388:	464c4c5f 			@ <UNDEFINED> instruction: 0x464c4c5f
     38c:	54434152 	strbpl	r4, [r3], #-338	@ 0xfffffeae
     390:	4942495f 	stmdbmi	r2, {r0, r1, r2, r3, r4, r6, r8, fp, lr}^
     394:	205f5f54 	subscs	r5, pc, r4, asr pc	@ <UNPREDICTABLE>
     398:	5f5f0030 	svcpl	0x005f0030
     39c:	43554e47 	cmpmi	r5, #1136	@ 0x470
     3a0:	4552505f 	ldrbmi	r5, [r2, #-95]	@ 0xffffffa1
     3a4:	28514552 	ldmdacs	r1, {r1, r4, r6, r8, sl, lr}^
     3a8:	2c6a616d 	stclcs	1, cr6, [sl], #-436	@ 0xfffffe4c
     3ac:	296e696d 	stmdbcs	lr!, {r0, r2, r3, r5, r6, r8, fp, sp, lr}^
     3b0:	5f282820 	svcpl	0x00282820
     3b4:	554e475f 	strbpl	r4, [lr, #-1887]	@ 0xfffff8a1
     3b8:	205f5f43 	subscs	r5, pc, r3, asr #30
     3bc:	31203c3c 			@ <UNDEFINED> instruction: 0x31203c3c
     3c0:	2b202936 	blcs	80a8a0 <__max_heap_size+0x80a4a0>
     3c4:	475f5f20 	ldrbmi	r5, [pc, -r0, lsr #30]
     3c8:	5f43554e 	svcpl	0x0043554e
     3cc:	4f4e494d 	svcmi	0x004e494d
     3d0:	205f5f52 	subscs	r5, pc, r2, asr pc	@ <UNPREDICTABLE>
     3d4:	28203d3e 	stmdacs	r0!, {r1, r2, r3, r4, r5, r8, sl, fp, ip, sp}
     3d8:	6a616d28 	bvs	185b880 <__max_heap_size+0x185b480>
     3dc:	3c3c2029 	ldccc	0, cr2, [ip], #-164	@ 0xffffff5c
     3e0:	29363120 	ldmdbcs	r6!, {r5, r8, ip, sp}
     3e4:	28202b20 	stmdacs	r0!, {r5, r8, r9, fp, sp}
     3e8:	296e696d 	stmdbcs	lr!, {r0, r2, r3, r5, r6, r8, fp, sp, lr}^
     3ec:	5f5f0029 	svcpl	0x005f0029
     3f0:	5f4c4244 	svcpl	0x004c4244
     3f4:	5f58414d 	svcpl	0x0058414d
     3f8:	2828205f 	stmdacs	r8!, {r0, r1, r2, r3, r4, r6, sp}
     3fc:	62756f64 	rsbsvs	r6, r5, #100, 30	@ 0x190
     400:	3129656c 			@ <UNDEFINED> instruction: 0x3129656c
     404:	3739372e 	ldrcc	r3, [r9, -lr, lsr #14]!
     408:	31333936 	teqcc	r3, r6, lsr r9
     40c:	36383433 			@ <UNDEFINED> instruction: 0x36383433
     410:	35313332 	ldrcc	r3, [r1, #-818]!	@ 0xfffffcce
     414:	332b6537 			@ <UNDEFINED> instruction: 0x332b6537
     418:	294c3830 	stmdbcs	ip, {r4, r5, fp, ip, sp}^
     41c:	555f5f00 	ldrbpl	r5, [pc, #-3840]	@ fffff524 <_estack+0xdffe7524>
     420:	41524653 	cmpmi	r2, r3, asr r6
     424:	4d5f5443 	ldclmi	4, cr5, [pc, #-268]	@ 320 <__max_stack_size+0x120>
     428:	5f5f4e49 	svcpl	0x005f4e49
     42c:	302e3020 	eorcc	r3, lr, r0, lsr #32
     430:	00524855 	subseq	r4, r2, r5, asr r8
     434:	5f544e49 	svcpl	0x00544e49
     438:	54534146 	ldrbpl	r4, [r3], #-326	@ 0xfffffeba
     43c:	4d5f3436 	ldclmi	4, cr3, [pc, #-216]	@ 36c <__max_stack_size+0x16c>
     440:	28204e49 	stmdacs	r0!, {r0, r3, r6, r9, sl, fp, lr}
     444:	495f5f2d 	ldmdbmi	pc, {r0, r2, r3, r5, r8, r9, sl, fp, ip, lr}^	@ <UNPREDICTABLE>
     448:	465f544e 	ldrbmi	r5, [pc], -lr, asr #8
     44c:	36545341 	ldrbcc	r5, [r4], -r1, asr #6
     450:	414d5f34 	cmpmi	sp, r4, lsr pc
     454:	205f5f58 	subscs	r5, pc, r8, asr pc	@ <UNPREDICTABLE>
     458:	2931202d 	ldmdbcs	r1!, {r0, r2, r3, r5, sp}
     45c:	575f5f00 	ldrbpl	r5, [pc, -r0, lsl #30]
     460:	5f544e49 	svcpl	0x00544e49
     464:	5f4e494d 	svcpl	0x004e494d
     468:	5530205f 	ldrpl	r2, [r0, #-95]!	@ 0xffffffa1
     46c:	475f5f00 	ldrbmi	r5, [pc, -r0, lsl #30]
     470:	5f43554e 	svcpl	0x0043554e
     474:	4f4e494d 	svcmi	0x004e494d
     478:	205f5f52 	subscs	r5, pc, r2, asr pc	@ <UNPREDICTABLE>
     47c:	5f5f0032 	svcpl	0x005f0032
     480:	544e4955 	strbpl	r4, [lr], #-2389	@ 0xfffff6ab
     484:	41454c5f 	cmpmi	r5, pc, asr ip
     488:	5f385453 	svcpl	0x00385453
     48c:	5f58414d 	svcpl	0x0058414d
     490:	7830205f 	ldmdavc	r0!, {r0, r1, r2, r3, r4, r6, sp}
     494:	5f006666 	svcpl	0x00006666
     498:	4d52415f 	ldclmi	1, cr4, [r2, #-380]	@ 0xfffffe84
     49c:	4d53415f 	ldclmi	1, cr4, [r3, #-380]	@ 0xfffffe84
     4a0:	4e59535f 	mrcmi	3, 2, r5, cr9, cr15, {2}
     4a4:	5f584154 	svcpl	0x00584154
     4a8:	46494e55 			@ <UNDEFINED> instruction: 0x46494e55
     4ac:	5f444549 	svcpl	0x00444549
     4b0:	0031205f 	eorseq	r2, r1, pc, asr r0
     4b4:	5f474953 	svcpl	0x00474953
     4b8:	4d4f5441 	stclmi	4, cr5, [pc, #-260]	@ 3bc <__max_stack_size+0x1bc>
     4bc:	4d5f4349 	ldclmi	3, cr4, [pc, #-292]	@ 3a0 <__max_stack_size+0x1a0>
     4c0:	28205841 	stmdacs	r0!, {r0, r6, fp, ip, lr}
     4c4:	54535f5f 	ldrbpl	r5, [r3], #-3935	@ 0xfffff0a1
     4c8:	544e4944 	strbpl	r4, [lr], #-2372	@ 0xfffff6bc
     4cc:	5058455f 	subspl	r4, r8, pc, asr r5
     4d0:	544e4928 	strbpl	r4, [lr], #-2344	@ 0xfffff6d8
     4d4:	58414d5f 	stmdapl	r1, {r0, r1, r2, r3, r4, r6, r8, sl, fp, lr}^
     4d8:	5f002929 	svcpl	0x00002929
     4dc:	4d52415f 	ldclmi	1, cr4, [r2, #-380]	@ 0xfffffe84
     4e0:	4145465f 	cmpmi	r5, pc, asr r6
     4e4:	45525554 	ldrbmi	r5, [r2, #-1364]	@ 0xfffffaac
     4e8:	5952435f 	ldmdbpl	r2, {r0, r1, r2, r3, r4, r6, r8, r9, lr}^
     4ec:	004f5450 	subeq	r5, pc, r0, asr r4	@ <UNPREDICTABLE>
     4f0:	42445f5f 	submi	r5, r4, #380	@ 0x17c
     4f4:	4f4e5f4c 	svcmi	0x004e5f4c
     4f8:	4d5f4d52 	ldclmi	13, cr4, [pc, #-328]	@ 3b8 <__max_stack_size+0x1b8>
     4fc:	5f5f5841 	svcpl	0x005f5841
     500:	64282820 	strtvs	r2, [r8], #-2080	@ 0xfffff7e0
     504:	6c62756f 	stclvs	5, cr7, [r2], #-444	@ 0xfffffe44
     508:	2e312965 			@ <UNDEFINED> instruction: 0x2e312965
     50c:	36373937 			@ <UNDEFINED> instruction: 0x36373937
     510:	33313339 	teqcc	r1, #-469762048	@ 0xe4000000
     514:	32363834 	eorscc	r3, r6, #52, 16	@ 0x340000
     518:	37353133 			@ <UNDEFINED> instruction: 0x37353133
     51c:	30332b65 	eorscc	r2, r3, r5, ror #22
     520:	00294c38 	eoreq	r4, r9, r8, lsr ip
     524:	4c465f5f 	stclmi	15, cr5, [r6], {95}	@ 0x5f
     528:	5f323354 	svcpl	0x00323354
     52c:	495f5349 	ldmdbmi	pc, {r0, r3, r6, r8, r9, ip, lr}^	@ <UNPREDICTABLE>
     530:	365f4345 	ldrbcc	r4, [pc], -r5, asr #6
     534:	39353530 	ldmdbcc	r5!, {r4, r5, r8, sl, ip, sp}
     538:	31205f5f 			@ <UNDEFINED> instruction: 0x31205f5f
     53c:	555f5f00 	ldrbpl	r5, [pc, #-3840]	@ fffff644 <_estack+0xdffe7644>
     540:	31544e49 	cmpcc	r4, r9, asr #28
     544:	28435f36 	stmdacs	r3, {r1, r2, r4, r5, r8, r9, sl, fp, ip, lr}^
     548:	63202963 			@ <UNDEFINED> instruction: 0x63202963
     54c:	465f5f00 	ldrbmi	r5, [pc], -r0, lsl #30
     550:	31545341 	cmpcc	r4, r1, asr #6
     554:	5f002036 	svcpl	0x00002036
     558:	5a49535f 	bpl	12552dc <__max_heap_size+0x1254edc>
     55c:	5f464f45 	svcpl	0x00464f45
     560:	455a4953 	ldrbmi	r4, [sl, #-2387]	@ 0xfffff6ad
     564:	5f5f545f 	svcpl	0x005f545f
     568:	5f003420 	svcpl	0x00003420
     56c:	4148435f 	cmpmi	r8, pc, asr r3
     570:	5f363152 	svcpl	0x00363152
     574:	45505954 	ldrbmi	r5, [r0, #-2388]	@ 0xfffff6ac
     578:	73205f5f 			@ <UNDEFINED> instruction: 0x73205f5f
     57c:	74726f68 	ldrbtvc	r6, [r2], #-3944	@ 0xfffff098
     580:	736e7520 	cmnvc	lr, #32, 10	@ 0x8000000
     584:	656e6769 	strbvs	r6, [lr, #-1897]!	@ 0xfffff897
     588:	6e692064 	cdpvs	0, 6, cr2, cr9, cr4, {3}
     58c:	5f5f0074 	svcpl	0x005f0074
     590:	455a4953 	ldrbmi	r4, [sl, #-2387]	@ 0xfffff6ad
     594:	4c5f464f 	ldclmi	6, cr4, [pc], {79}	@ 0x4f
     598:	5f474e4f 	svcpl	0x00474e4f
     59c:	42554f44 	subsmi	r4, r5, #68, 30	@ 0x110
     5a0:	5f5f454c 	svcpl	0x005f454c
     5a4:	5f003820 	svcpl	0x00003820
     5a8:	42444c5f 	submi	r4, r4, #24320	@ 0x5f00
     5ac:	53495f4c 	cmppl	r9, #76, 30	@ 0x130
     5b0:	4345495f 	cmpmi	r5, #1556480	@ 0x17c000
     5b4:	3530365f 	ldrcc	r3, [r0, #-1631]!	@ 0xfffff9a1
     5b8:	5f5f3935 	svcpl	0x005f3935
     5bc:	5f003120 	svcpl	0x00003120
     5c0:	544e495f 	strbpl	r4, [lr], #-2399	@ 0xfffff6a1
     5c4:	5341465f 	cmppl	r1, #99614720	@ 0x5f00000
     5c8:	4d5f3854 	ldclmi	8, cr3, [pc, #-336]	@ 480 <__max_heap_size+0x80>
     5cc:	5f5f5841 	svcpl	0x005f5841
     5d0:	37783020 	ldrbcc	r3, [r8, -r0, lsr #32]!
     5d4:	66666666 	strbtvs	r6, [r6], -r6, ror #12
     5d8:	00666666 	rsbeq	r6, r6, r6, ror #12
     5dc:	524f5f5f 	subpl	r5, pc, #380	@ 0x17c
     5e0:	5f524544 	svcpl	0x00524544
     5e4:	5f474942 	svcpl	0x00474942
     5e8:	49444e45 	stmdbmi	r4, {r0, r2, r6, r9, sl, fp, lr}^
     5ec:	5f5f4e41 	svcpl	0x005f4e41
     5f0:	32333420 	eorscc	r3, r3, #32, 8	@ 0x20000000
     5f4:	5f5f0031 	svcpl	0x005f0031
     5f8:	464c4c55 			@ <UNDEFINED> instruction: 0x464c4c55
     5fc:	54434152 	strbpl	r4, [r3], #-338	@ 0xfffffeae
     600:	58414d5f 	stmdapl	r1, {r0, r1, r2, r3, r4, r6, r8, sl, fp, lr}^
     604:	30205f5f 	eorcc	r5, r0, pc, asr pc
     608:	46464658 			@ <UNDEFINED> instruction: 0x46464658
     60c:	46464646 	strbmi	r4, [r6], -r6, asr #12
     610:	46464646 	strbmi	r4, [r6], -r6, asr #12
     614:	46464646 	strbmi	r4, [r6], -r6, asr #12
     618:	362d5046 	strtcc	r5, [sp], -r6, asr #32
     61c:	4c4c5534 	stclmi	5, cr5, [ip], {52}	@ 0x34
     620:	5f5f0052 	svcpl	0x005f0052
     624:	5f434347 	svcpl	0x00434347
     628:	534e4f43 	cmppl	lr, #268	@ 0x10c
     62c:	43555254 	cmpmi	r5, #84, 4	@ 0x40000005
     630:	45564954 	ldrbmi	r4, [r6, #-2388]	@ 0xfffff6ac
     634:	5a49535f 	bpl	12553b8 <__max_heap_size+0x1254fb8>
     638:	34362045 	ldrtcc	r2, [r6], #-69	@ 0xffffffbb
     63c:	415f5f00 	cmpmi	pc, r0, lsl #30
     640:	465f4d52 			@ <UNDEFINED> instruction: 0x465f4d52
     644:	55544145 	ldrbpl	r4, [r4, #-325]	@ 0xfffffebb
     648:	445f4552 	ldrbmi	r4, [pc], #-1362	@ 650 <__max_heap_size+0x250>
     64c:	31205053 			@ <UNDEFINED> instruction: 0x31205053
     650:	6f687300 	svcvs	0x00687300
     654:	2b207472 	blcs	81d824 <__max_heap_size+0x81d424>
     658:	5f5f0031 	svcpl	0x005f0031
     65c:	5f415455 	svcpl	0x00415455
     660:	54494246 	strbpl	r4, [r9], #-582	@ 0xfffffdba
     664:	36205f5f 			@ <UNDEFINED> instruction: 0x36205f5f
     668:	5f5f0034 	svcpl	0x005f0034
     66c:	5f4c4244 	svcpl	0x004c4244
     670:	544e414d 	strbpl	r4, [lr], #-333	@ 0xfffffeb3
     674:	4749445f 			@ <UNDEFINED> instruction: 0x4749445f
     678:	35205f5f 	strcc	r5, [r0, #-3935]!	@ 0xfffff0a1
     67c:	5f5f0033 	svcpl	0x005f0033
     680:	544e4955 	strbpl	r4, [lr], #-2389	@ 0xfffff6ab
     684:	41454c5f 	cmpmi	r5, pc, asr ip
     688:	34365453 	ldrtcc	r5, [r6], #-1107	@ 0xfffffbad
     68c:	5059545f 	subspl	r5, r9, pc, asr r4
     690:	205f5f45 	subscs	r5, pc, r5, asr #30
     694:	676e6f6c 	strbvs	r6, [lr, -ip, ror #30]!
     698:	6e6f6c20 	cdpvs	12, 6, cr6, cr15, cr0, {1}
     69c:	6e752067 	cdpvs	0, 7, cr2, cr5, cr7, {3}
     6a0:	6e676973 			@ <UNDEFINED> instruction: 0x6e676973
     6a4:	69206465 	stmdbvs	r0!, {r0, r2, r5, r6, sl, sp, lr}
     6a8:	5f00746e 	svcpl	0x0000746e
     6ac:	544e495f 	strbpl	r4, [lr], #-2399	@ 0xfffff6a1
     6b0:	58414d5f 	stmdapl	r1, {r0, r1, r2, r3, r4, r6, r8, sl, fp, lr}^
     6b4:	30205f5f 	eorcc	r5, r0, pc, asr pc
     6b8:	66663778 			@ <UNDEFINED> instruction: 0x66663778
     6bc:	66666666 	strbtvs	r6, [r6], -r6, ror #12
     6c0:	5f5f0066 	svcpl	0x005f0066
     6c4:	4d4f5441 	stclmi	4, cr5, [pc, #-260]	@ 5c8 <__max_heap_size+0x1c8>
     6c8:	525f4349 	subspl	r4, pc, #603979777	@ 0x24000001
     6cc:	41454c45 	cmpmi	r5, r5, asr #24
     6d0:	33204553 			@ <UNDEFINED> instruction: 0x33204553
     6d4:	505f5f00 	subspl	r5, pc, r0, lsl #30
     6d8:	49445254 	stmdbmi	r4, {r2, r4, r6, r9, ip, lr}^
     6dc:	545f4646 	ldrbpl	r4, [pc], #-1606	@ 6e4 <__max_heap_size+0x2e4>
     6e0:	5f455059 	svcpl	0x00455059
     6e4:	6e69205f 	mcrvs	0, 3, r2, cr9, cr15, {2}
     6e8:	5f5f0074 	svcpl	0x005f0074
     6ec:	52414843 	subpl	r4, r1, #4390912	@ 0x430000
     6f0:	534e555f 	cmppl	lr, #398458880	@ 0x17c00000
     6f4:	454e4749 	strbmi	r4, [lr, #-1865]	@ 0xfffff8b7
     6f8:	205f5f44 	subscs	r5, pc, r4, asr #30
     6fc:	5f5f0031 	svcpl	0x005f0031
     700:	31544e49 	cmpcc	r4, r9, asr #28
     704:	59545f36 	ldmdbpl	r4, {r1, r2, r4, r5, r8, r9, sl, fp, ip, lr}^
     708:	5f5f4550 	svcpl	0x005f4550
     70c:	6f687320 	svcvs	0x00687320
     710:	69207472 	stmdbvs	r0!, {r1, r4, r5, r6, sl, ip, sp, lr}
     714:	5f00746e 	svcpl	0x0000746e
     718:	4d52415f 	ldclmi	1, cr4, [r2, #-380]	@ 0xfffffe84
     71c:	4145465f 	cmpmi	r5, pc, asr r6
     720:	45525554 	ldrbmi	r5, [r2, #-1364]	@ 0xfffffaac
     724:	4452515f 	ldrbmi	r5, [r2], #-351	@ 0xfffffea1
     728:	5f00584d 	svcpl	0x0000584d
     72c:	42444c5f 	submi	r4, r4, #24320	@ 0x5f00
     730:	49445f4c 	stmdbmi	r4, {r2, r3, r6, r8, r9, sl, fp, ip, lr}^
     734:	205f5f47 	subscs	r5, pc, r7, asr #30
     738:	5f003531 	svcpl	0x00003531
     73c:	5a49535f 	bpl	12554c0 <__max_heap_size+0x12550c0>
     740:	5f464f45 	svcpl	0x00464f45
     744:	474e4f4c 	strbmi	r4, [lr, -ip, asr #30]
     748:	34205f5f 	strtcc	r5, [r0], #-3935	@ 0xfffff0a1
     74c:	465f5f00 	ldrbmi	r5, [pc], -r0, lsl #30
     750:	3233544c 	eorscc	r5, r3, #76, 8	@ 0x4c000000
     754:	58414d5f 	stmdapl	r1, {r0, r1, r2, r3, r4, r6, r8, sl, fp, lr}^
     758:	33205f5f 			@ <UNDEFINED> instruction: 0x33205f5f
     75c:	3230342e 	eorscc	r3, r0, #771751936	@ 0x2e000000
     760:	34333238 	ldrtcc	r3, [r3], #-568	@ 0xfffffdc8
     764:	38333636 	ldmdacc	r3!, {r1, r2, r4, r5, r9, sl, ip, sp}
     768:	38383235 	ldmdacc	r8!, {r0, r2, r4, r5, r9, ip, sp}
     76c:	332b6536 			@ <UNDEFINED> instruction: 0x332b6536
     770:	32334638 	eorscc	r4, r3, #56, 12	@ 0x3800000
     774:	4c5f5f00 	ldclmi	15, cr5, [pc], {-0}
     778:	4343414c 	cmpmi	r3, #76, 2
     77c:	495f4d55 	ldmdbmi	pc, {r0, r2, r4, r6, r8, sl, fp, lr}^	@ <UNPREDICTABLE>
     780:	5f544942 	svcpl	0x00544942
     784:	3233205f 	eorscc	r2, r3, #95	@ 0x5f
     788:	415f5f00 	cmpmi	pc, r0, lsl #30
     78c:	494d4f54 	stmdbmi	sp, {r2, r4, r6, r8, r9, sl, fp, lr}^
     790:	45535f43 	ldrbmi	r5, [r3, #-3907]	@ 0xfffff0bd
     794:	53435f51 	cmppl	r3, #324	@ 0x144
     798:	00352054 	eorseq	r2, r5, r4, asr r0
     79c:	36544e49 	ldrbcc	r4, [r4], -r9, asr #28
     7a0:	28435f34 	stmdacs	r3, {r2, r4, r5, r8, r9, sl, fp, ip, lr}^
     7a4:	5f202978 	svcpl	0x00202978
     7a8:	544e495f 	strbpl	r4, [lr], #-2399	@ 0xfffff6a1
     7ac:	435f3436 	cmpmi	pc, #905969664	@ 0x36000000
     7b0:	00297828 	eoreq	r7, r9, r8, lsr #16
     7b4:	49535f5f 	ldmdbmi	r3, {r0, r1, r2, r3, r4, r6, r8, r9, sl, fp, ip, lr}^
     7b8:	464f455a 			@ <UNDEFINED> instruction: 0x464f455a
     7bc:	4f48535f 	svcmi	0x0048535f
     7c0:	5f5f5452 	svcpl	0x005f5452
     7c4:	5f003220 	svcpl	0x00003220
     7c8:	4c57454e 	ldclmi	5, cr4, [r7], {78}	@ 0x4e
     7cc:	565f4249 	ldrbpl	r4, [pc], -r9, asr #4
     7d0:	49535245 	ldmdbmi	r3, {r0, r2, r6, r9, ip, lr}^
     7d4:	485f4e4f 	ldmdami	pc, {r0, r1, r2, r3, r6, r9, sl, fp, lr}^	@ <UNPREDICTABLE>
     7d8:	31205f5f 			@ <UNDEFINED> instruction: 0x31205f5f
     7dc:	495f5f00 	ldmdbmi	pc, {r8, r9, sl, fp, ip, lr}^	@ <UNPREDICTABLE>
     7e0:	4c5f544e 	ldclmi	4, cr5, [pc], {78}	@ 0x4e
     7e4:	54534145 	ldrbpl	r4, [r3], #-325	@ 0xfffffebb
     7e8:	414d5f38 	cmpmi	sp, r8, lsr pc
     7ec:	205f5f58 	subscs	r5, pc, r8, asr pc	@ <UNPREDICTABLE>
     7f0:	66377830 			@ <UNDEFINED> instruction: 0x66377830
     7f4:	525f5f00 	subspl	r5, pc, #0, 30
     7f8:	53494745 	cmppl	r9, #18087936	@ 0x1140000
     7fc:	5f524554 	svcpl	0x00524554
     800:	46455250 			@ <UNDEFINED> instruction: 0x46455250
     804:	5f5f5849 	svcpl	0x005f5849
     808:	5f5f0020 	svcpl	0x005f0020
     80c:	36544c46 	ldrbcc	r4, [r4], -r6, asr #24
     810:	414d5f34 	cmpmi	sp, r4, lsr pc
     814:	445f544e 	ldrbmi	r5, [pc], #-1102	@ 81c <__max_heap_size+0x41c>
     818:	5f5f4749 	svcpl	0x005f4749
     81c:	00333520 	eorseq	r3, r3, r0, lsr #10
     820:	49555f5f 	ldmdbmi	r5, {r0, r1, r2, r3, r4, r6, r8, r9, sl, fp, ip, lr}^
     824:	414d544e 	cmpmi	sp, lr, asr #8
     828:	28435f58 	stmdacs	r3, {r3, r4, r6, r8, r9, sl, fp, ip, lr}^
     82c:	63202963 			@ <UNDEFINED> instruction: 0x63202963
     830:	20232320 	eorcs	r2, r3, r0, lsr #6
     834:	004c4c55 	subeq	r4, ip, r5, asr ip
     838:	33544e49 	cmpcc	r4, #1168	@ 0x490
     83c:	28435f32 	stmdacs	r3, {r1, r4, r5, r8, r9, sl, fp, ip, lr}^
     840:	5f202978 	svcpl	0x00202978
     844:	544e495f 	strbpl	r4, [lr], #-2399	@ 0xfffff6a1
     848:	435f3233 	cmpmi	pc, #805306371	@ 0x30000003
     84c:	00297828 	eoreq	r7, r9, r8, lsr #16
     850:	20746e69 	rsbscs	r6, r4, r9, ror #28
     854:	5200322b 	andpl	r3, r0, #-1342177278	@ 0xb0000002
     858:	415f4343 	cmpmi	pc, r3, asr #6
     85c:	45314248 	ldrmi	r4, [r1, #-584]!	@ 0xfffffdb8
     860:	475f524e 	ldrbmi	r5, [pc, -lr, asr #4]
     864:	414f4950 	cmpmi	pc, r0, asr r9	@ <UNPREDICTABLE>
     868:	5449425f 	strbpl	r4, [r9], #-607	@ 0xfffffda1
     86c:	28204f4e 	stmdacs	r0!, {r1, r2, r3, r6, r8, r9, sl, fp, lr}
     870:	5f002930 	svcpl	0x00002930
     874:	57454e5f 			@ <UNDEFINED> instruction: 0x57454e5f
     878:	5f42494c 	svcpl	0x0042494c
     87c:	0034205f 	eorseq	r2, r4, pc, asr r0
     880:	59425f5f 	stmdbpl	r2, {r0, r1, r2, r3, r4, r6, r8, r9, sl, fp, ip, lr}^
     884:	4f5f4554 	svcmi	0x005f4554
     888:	52454452 	subpl	r4, r5, #1375731712	@ 0x52000000
     88c:	5f205f5f 	svcpl	0x00205f5f
     890:	44524f5f 	ldrbmi	r4, [r2], #-3935	@ 0xfffff0a1
     894:	4c5f5245 	ldclmi	2, cr5, [pc], {69}	@ 0x45
     898:	4c545449 	ldclmi	4, cr5, [r4], {73}	@ 0x49
     89c:	4e455f45 	cdpmi	15, 4, cr5, cr5, cr5, {2}
     8a0:	4e414944 			@ <UNDEFINED> instruction: 0x4e414944
     8a4:	5f005f5f 	svcpl	0x00005f5f
     8a8:	544c465f 	strbpl	r4, [ip], #-1631	@ 0xfffff9a1
     8ac:	4d5f3233 	ldclmi	2, cr3, [pc, #-204]	@ 7e8 <__max_heap_size+0x3e8>
     8b0:	315f4e49 	cmpcc	pc, r9, asr #28
     8b4:	58455f30 	stmdapl	r5, {r4, r5, r8, r9, sl, fp, ip, lr}^
     8b8:	205f5f50 	subscs	r5, pc, r0, asr pc	@ <UNPREDICTABLE>
     8bc:	37332d28 	ldrcc	r2, [r3, -r8, lsr #26]!
     8c0:	5f5f0029 	svcpl	0x005f0029
     8c4:	32746e69 	rsbscc	r6, r4, #1680	@ 0x690
     8c8:	5f5f0030 	svcpl	0x005f0030
     8cc:	4152464c 	cmpmi	r2, ip, asr #12
     8d0:	495f5443 	ldmdbmi	pc, {r0, r1, r6, sl, ip, lr}^	@ <UNPREDICTABLE>
     8d4:	5f544942 	svcpl	0x00544942
     8d8:	0030205f 	eorseq	r2, r0, pc, asr r0
     8dc:	72616863 	rsbvc	r6, r1, #6488064	@ 0x630000
     8e0:	00302b20 	eorseq	r2, r0, r0, lsr #22
     8e4:	52415f5f 	subpl	r5, r1, #380	@ 0x17c
     8e8:	52415f4d 	subpl	r5, r1, #308	@ 0x134
     8ec:	37204843 	strcc	r4, [r0, -r3, asr #16]!
     8f0:	535f5f00 	cmppl	pc, #0, 30
     8f4:	5f434454 	svcpl	0x00434454
     8f8:	5f465455 	svcpl	0x00465455
     8fc:	5f5f3233 	svcpl	0x005f3233
     900:	55003120 	strpl	r3, [r0, #-288]	@ 0xfffffee0
     904:	5f544e49 	svcpl	0x00544e49
     908:	5341454c 	cmppl	r1, #76, 10	@ 0x13000000
     90c:	5f343654 	svcpl	0x00343654
     910:	2058414d 	subscs	r4, r8, sp, asr #2
     914:	555f5f28 	ldrbpl	r5, [pc, #-3880]	@ fffff9f4 <_estack+0xdffe79f4>
     918:	5f544e49 	svcpl	0x00544e49
     91c:	5341454c 	cmppl	r1, #76, 10	@ 0x13000000
     920:	5f343654 	svcpl	0x00343654
     924:	5f58414d 	svcpl	0x0058414d
     928:	5f00295f 	svcpl	0x0000295f
     92c:	544e495f 	strbpl	r4, [lr], #-2399	@ 0xfffff6a1
     930:	41454c5f 	cmpmi	r5, pc, asr ip
     934:	36315453 			@ <UNDEFINED> instruction: 0x36315453
     938:	58414d5f 	stmdapl	r1, {r0, r1, r2, r3, r4, r6, r8, sl, fp, lr}^
     93c:	30205f5f 	eorcc	r5, r0, pc, asr pc
     940:	66663778 			@ <UNDEFINED> instruction: 0x66663778
     944:	4e490066 	cdpmi	0, 4, cr0, cr9, cr6, {3}
     948:	52545054 	subspl	r5, r4, #84	@ 0x54
     94c:	58414d5f 	stmdapl	r1, {r0, r1, r2, r3, r4, r6, r8, sl, fp, lr}^
     950:	5f5f2820 	svcpl	0x005f2820
     954:	50544e49 	subspl	r4, r4, r9, asr #28
     958:	4d5f5254 	ldclmi	2, cr5, [pc, #-336]	@ 810 <__max_heap_size+0x410>
     95c:	5f5f5841 	svcpl	0x005f5841
     960:	5f5f0029 	svcpl	0x005f0029
     964:	41484353 	cmpmi	r8, r3, asr r3
     968:	414d5f52 	cmpmi	sp, r2, asr pc
     96c:	205f5f58 	subscs	r5, pc, r8, asr pc	@ <UNPREDICTABLE>
     970:	66377830 			@ <UNDEFINED> instruction: 0x66377830
     974:	465f5f00 	ldrbmi	r5, [pc], -r0, lsl #30
     978:	3436544c 	ldrtcc	r5, [r6], #-1100	@ 0xfffffbb4
     97c:	524f4e5f 	subpl	r4, pc, #1520	@ 0x5f0
     980:	414d5f4d 	cmpmi	sp, sp, asr #30
     984:	205f5f58 	subscs	r5, pc, r8, asr pc	@ <UNPREDICTABLE>
     988:	39372e31 	ldmdbcc	r7!, {r0, r4, r5, r9, sl, fp, sp}
     98c:	33393637 	teqcc	r9, #57671680	@ 0x3700000
     990:	38343331 	ldmdacc	r4!, {r0, r4, r5, r8, r9, ip, sp}
     994:	31333236 	teqcc	r3, r6, lsr r2
     998:	2b653735 	blcs	194e674 <__max_heap_size+0x194e274>
     99c:	46383033 			@ <UNDEFINED> instruction: 0x46383033
     9a0:	5f003436 	svcpl	0x00003436
     9a4:	4d52415f 	ldclmi	1, cr4, [r2, #-380]	@ 0xfffffe84
     9a8:	4145465f 	cmpmi	r5, pc, asr r6
     9ac:	45525554 	ldrbmi	r5, [r2, #-1364]	@ 0xfffffaac
     9b0:	4d554e5f 	ldclmi	14, cr4, [r5, #-380]	@ 0xfffffe84
     9b4:	43495245 	cmpmi	r9, #1342177284	@ 0x50000004
     9b8:	58414d5f 	stmdapl	r1, {r0, r1, r2, r3, r4, r6, r8, sl, fp, lr}^
     9bc:	004e494d 	subeq	r4, lr, sp, asr #18
     9c0:	4c555f5f 	ldclmi	15, cr5, [r5], {95}	@ 0x5f
     9c4:	4152464c 	cmpmi	r2, ip, asr #12
     9c8:	495f5443 	ldmdbmi	pc, {r0, r1, r6, sl, ip, lr}^	@ <UNPREDICTABLE>
     9cc:	5f544942 	svcpl	0x00544942
     9d0:	0030205f 	eorseq	r2, r0, pc, asr r0
     9d4:	4c465f5f 	stclmi	15, cr5, [r6], {95}	@ 0x5f
     9d8:	5f343654 	svcpl	0x00343654
     9dc:	5f474944 	svcpl	0x00474944
     9e0:	3531205f 	ldrcc	r2, [r1, #-95]!	@ 0xffffffa1
     9e4:	465f5f00 	ldrbmi	r5, [pc], -r0, lsl #30
     9e8:	33545341 	cmpcc	r4, #67108865	@ 0x4000001
     9ec:	5f002032 	svcpl	0x00002032
     9f0:	4f54415f 	svcmi	0x0054415f
     9f4:	5f43494d 	svcpl	0x0043494d
     9f8:	414c4552 	cmpmi	ip, r2, asr r5
     9fc:	20444558 	subcs	r4, r4, r8, asr r5
     a00:	5f5f0030 	svcpl	0x005f0030
     a04:	5f4d5241 	svcpl	0x004d5241
     a08:	54414546 	strbpl	r4, [r1], #-1350	@ 0xfffffaba
     a0c:	5f455255 	svcpl	0x00455255
     a10:	36315046 	ldrtcc	r5, [r1], -r6, asr #32
     a14:	4c4d465f 	stclmi	6, cr4, [sp], {95}	@ 0x5f
     a18:	535f5f00 	cmppl	pc, #0, 30
     a1c:	5f455a49 	svcpl	0x00455a49
     a20:	5f58414d 	svcpl	0x0058414d
     a24:	7830205f 	ldmdavc	r0!, {r0, r1, r2, r3, r4, r6, sp}
     a28:	66666666 	strbtvs	r6, [r6], -r6, ror #12
     a2c:	66666666 	strbtvs	r6, [r6], -r6, ror #12
     a30:	555f0055 	ldrbpl	r0, [pc, #-85]	@ 9e3 <__max_heap_size+0x5e3>
     a34:	33544e49 	cmpcc	r4, #1168	@ 0x490
     a38:	5f545f32 	svcpl	0x00545f32
     a3c:	4c434544 	stclmi	5, cr4, [r3], {68}	@ 0x44
     a40:	44455241 	strbmi	r5, [r5], #-577	@ 0xfffffdbf
     a44:	5f5f0020 	svcpl	0x005f0020
     a48:	4343414c 	cmpmi	r3, #76, 2
     a4c:	4d5f4d55 	ldclmi	13, cr4, [pc, #-340]	@ 900 <__max_heap_size+0x500>
     a50:	5f5f4e49 	svcpl	0x005f4e49
     a54:	302d2820 	eorcc	r2, sp, r0, lsr #16
     a58:	33503158 	cmpcc	r0, #88, 2
     a5c:	2d4b4c31 	stclcs	12, cr4, [fp, #-196]	@ 0xffffff3c
     a60:	50315830 	eorspl	r5, r1, r0, lsr r8
     a64:	4b4c3133 	blmi	130cf38 <__max_heap_size+0x130cb38>
     a68:	5f5f0029 	svcpl	0x005f0029
     a6c:	414c4c55 	cmpmi	ip, r5, asr ip
     a70:	4d554343 	ldclmi	3, cr4, [r5, #-268]	@ 0xfffffef4
     a74:	58414d5f 	stmdapl	r1, {r0, r1, r2, r3, r4, r6, r8, sl, fp, lr}^
     a78:	30205f5f 	eorcc	r5, r0, pc, asr pc
     a7c:	46464658 			@ <UNDEFINED> instruction: 0x46464658
     a80:	46464646 	strbmi	r4, [r6], -r6, asr #12
     a84:	46464646 	strbmi	r4, [r6], -r6, asr #12
     a88:	46464646 	strbmi	r4, [r6], -r6, asr #12
     a8c:	332d5046 			@ <UNDEFINED> instruction: 0x332d5046
     a90:	4c4c5532 	stclmi	5, cr5, [ip], {50}	@ 0x32
     a94:	5f5f004b 	svcpl	0x005f004b
     a98:	43414c55 	cmpmi	r1, #21760	@ 0x5500
     a9c:	5f4d5543 	svcpl	0x004d5543
     aa0:	5f4e494d 	svcpl	0x004e494d
     aa4:	2e30205f 	mrccs	0, 1, r2, cr0, cr15, {2}
     aa8:	4b4c5530 	blmi	1315f70 <__max_heap_size+0x1315b70>
     aac:	415f5f00 	cmpmi	pc, r0, lsl #30
     ab0:	465f4d52 			@ <UNDEFINED> instruction: 0x465f4d52
     ab4:	00342050 	eorseq	r2, r4, r0, asr r0
     ab8:	4c465f5f 	stclmi	15, cr5, [r6], {95}	@ 0x5f
     abc:	41485f54 	cmpmi	r8, r4, asr pc
     ac0:	4e495f53 	mcrmi	15, 2, r5, cr9, cr3, {2}
     ac4:	494e4946 	stmdbmi	lr, {r1, r2, r6, r8, fp, lr}^
     ac8:	5f5f5954 	svcpl	0x005f5954
     acc:	5f003120 	svcpl	0x00003120
     ad0:	57454e5f 			@ <UNDEFINED> instruction: 0x57454e5f
     ad4:	5f42494c 	svcpl	0x0042494c
     ad8:	4f4e494d 	svcmi	0x004e494d
     adc:	205f5f52 	subscs	r5, pc, r2, asr pc	@ <UNPREDICTABLE>
     ae0:	5f5f0034 	svcpl	0x005f0034
     ae4:	33544c46 	cmpcc	r4, #17920	@ 0x4600
     ae8:	50455f32 	subpl	r5, r5, r2, lsr pc
     aec:	4f4c4953 	svcmi	0x004c4953
     af0:	205f5f4e 	subscs	r5, pc, lr, asr #30
     af4:	39312e31 	ldmdbcc	r1!, {r0, r4, r5, r9, sl, fp, sp}
     af8:	32393032 	eorscc	r3, r9, #50	@ 0x32
     afc:	35353938 	ldrcc	r3, [r5, #-2360]!	@ 0xfffff6c8
     b00:	31383730 	teqcc	r8, r0, lsr r7
     b04:	2d653532 	stclcs	5, cr3, [r5, #-200]!	@ 0xffffff38
     b08:	32334637 	eorscc	r4, r3, #57671680	@ 0x3700000
     b0c:	555f5f00 	ldrbpl	r5, [pc, #-3840]	@ fffffc14 <_estack+0xdffe7c14>
     b10:	495f4144 	ldmdbmi	pc, {r2, r6, r8, lr}^	@ <UNPREDICTABLE>
     b14:	5f544942 	svcpl	0x00544942
     b18:	3233205f 	eorscc	r2, r3, #95	@ 0x5f
     b1c:	415f5f00 	cmpmi	pc, r0, lsl #30
     b20:	465f4d52 			@ <UNDEFINED> instruction: 0x465f4d52
     b24:	55544145 	ldrbpl	r4, [r4, #-325]	@ 0xfffffebb
     b28:	425f4552 	subsmi	r4, pc, #343932928	@ 0x14800000
     b2c:	5f004954 	svcpl	0x00004954
     b30:	544e495f 	strbpl	r4, [lr], #-2399	@ 0xfffff6a1
     b34:	5341465f 	cmppl	r1, #99614720	@ 0x5f00000
     b38:	5f343654 	svcpl	0x00343654
     b3c:	45505954 	ldrbmi	r5, [r0, #-2388]	@ 0xfffff6ac
     b40:	6c205f5f 	stcvs	15, cr5, [r0], #-380	@ 0xfffffe84
     b44:	20676e6f 	rsbcs	r6, r7, pc, ror #28
     b48:	676e6f6c 	strbvs	r6, [lr, -ip, ror #30]!
     b4c:	746e6920 	strbtvc	r6, [lr], #-2336	@ 0xfffff6e0
     b50:	495f5f00 	ldmdbmi	pc, {r8, r9, sl, fp, ip, lr}^	@ <UNPREDICTABLE>
     b54:	5f38544e 	svcpl	0x0038544e
     b58:	29632843 	stmdbcs	r3!, {r0, r1, r6, fp, sp}^
     b5c:	5f006320 	svcpl	0x00006320
     b60:	5f50465f 	svcpl	0x0050465f
     b64:	54534146 	ldrbpl	r4, [r3], #-326	@ 0xfffffeba
     b68:	414d465f 	cmpmi	sp, pc, asr r6
     b6c:	20323346 	eorscs	r3, r2, r6, asr #6
     b70:	5f5f0031 	svcpl	0x005f0031
     b74:	5f4d5241 	svcpl	0x004d5241
     b78:	49423233 	stmdbmi	r2, {r0, r1, r4, r5, r9, ip, sp}^
     b7c:	54535f54 	ldrbpl	r5, [r3], #-3924	@ 0xfffff0ac
     b80:	20455441 	subcs	r5, r5, r1, asr #8
     b84:	5f5f0031 	svcpl	0x005f0031
     b88:	49504446 	ldmdbmi	r0, {r1, r2, r6, sl, lr}^
     b8c:	005f5f43 	subseq	r5, pc, r3, asr #30
     b90:	4e495f5f 	mcrmi	15, 2, r5, cr9, cr15, {2}
     b94:	454c5f54 	strbmi	r5, [ip, #-3924]	@ 0xfffff0ac
     b98:	31545341 	cmpcc	r4, r1, asr #6
     b9c:	49575f36 	ldmdbmi	r7, {r1, r2, r4, r5, r8, r9, sl, fp, ip, lr}^
     ba0:	5f485444 	svcpl	0x00485444
     ba4:	3631205f 			@ <UNDEFINED> instruction: 0x3631205f
     ba8:	49555f00 	ldmdbmi	r5, {r8, r9, sl, fp, ip, lr}^
     bac:	3631544e 	ldrtcc	r5, [r1], -lr, asr #8
     bb0:	445f545f 	ldrbmi	r5, [pc], #-1119	@ bb8 <__max_heap_size+0x7b8>
     bb4:	414c4345 	cmpmi	ip, r5, asr #6
     bb8:	20444552 	subcs	r4, r4, r2, asr r5
     bbc:	4c5f5f00 	ldclmi	15, cr5, [pc], {-0}
     bc0:	54534145 	ldrbpl	r4, [r3], #-325	@ 0xfffffebb
     bc4:	22203436 	eorcs	r3, r0, #905969664	@ 0x36000000
     bc8:	00226c6c 	eoreq	r6, r2, ip, ror #24
     bcc:	52415f5f 	subpl	r5, r1, #380	@ 0x17c
     bd0:	50465f4d 	subpl	r5, r6, sp, asr #30
     bd4:	465f3631 			@ <UNDEFINED> instruction: 0x465f3631
     bd8:	414d524f 	cmpmi	sp, pc, asr #4
     bdc:	4c415f54 	stclmi	15, cr5, [r1], {84}	@ 0x54
     be0:	4e524554 	mrcmi	5, 2, r4, cr2, cr4, {2}
     be4:	56495441 	strbpl	r5, [r9], -r1, asr #8
     be8:	5f5f0045 	svcpl	0x005f0045
     bec:	414c4c55 	cmpmi	ip, r5, asr ip
     bf0:	4d554343 	ldclmi	3, cr4, [r5, #-268]	@ 0xfffffef4
     bf4:	4e494d5f 	mcrmi	13, 2, r4, cr9, cr15, {2}
     bf8:	30205f5f 	eorcc	r5, r0, pc, asr pc
     bfc:	4c55302e 	ldclmi	0, cr3, [r5], {46}	@ 0x2e
     c00:	5f004b4c 	svcpl	0x00004b4c
     c04:	5f434347 	svcpl	0x00434347
     c08:	50415257 	subpl	r5, r1, r7, asr r2
     c0c:	4454535f 	ldrbmi	r5, [r4], #-863	@ 0xfffffca1
     c10:	5f544e49 	svcpl	0x00544e49
     c14:	5f002048 	svcpl	0x00002048
     c18:	4d52415f 	ldclmi	1, cr4, [r2, #-380]	@ 0xfffffe84
     c1c:	4145465f 	cmpmi	r5, pc, asr r6
     c20:	45525554 	ldrbmi	r5, [r2, #-1364]	@ 0xfffffaac
     c24:	544f445f 	strbpl	r4, [pc], #-1119	@ c2c <__max_heap_size+0x82c>
     c28:	444f5250 	strbmi	r5, [pc], #-592	@ c30 <__max_heap_size+0x830>
     c2c:	415f5f00 	cmpmi	pc, r0, lsl #30
     c30:	4e5f4d52 	mrcmi	13, 2, r4, cr15, cr2, {2}
     c34:	004e4f45 	subeq	r4, lr, r5, asr #30
     c38:	6c6f6f62 	stclvs	15, cr6, [pc], #-392	@ ab8 <__max_heap_size+0x6b8>
     c3c:	6f425f20 	svcvs	0x00425f20
     c40:	5f006c6f 	svcpl	0x00006c6f
     c44:	4d52415f 	ldclmi	1, cr4, [r2, #-380]	@ 0xfffffe84
     c48:	4145465f 	cmpmi	r5, pc, asr r6
     c4c:	45525554 	ldrbmi	r5, [r2, #-1364]	@ 0xfffffaac
     c50:	4148535f 	cmpmi	r8, pc, asr r3
     c54:	5f5f0032 	svcpl	0x005f0032
     c58:	5f4d5241 	svcpl	0x004d5241
     c5c:	54414546 	strbpl	r4, [r1], #-1350	@ 0xfffffaba
     c60:	5f455255 	svcpl	0x00455255
     c64:	45534d43 	ldrbmi	r4, [r3, #-3395]	@ 0xfffff2bd
     c68:	555f5f00 	ldrbpl	r5, [pc, #-3840]	@ fffffd70 <_estack+0xdffe7d70>
     c6c:	50544e49 	subspl	r4, r4, r9, asr #28
     c70:	545f5254 	ldrbpl	r5, [pc], #-596	@ c78 <__max_heap_size+0x878>
     c74:	5f455059 	svcpl	0x00455059
     c78:	6e75205f 	mrcvs	0, 3, r2, cr5, cr15, {2}
     c7c:	6e676973 			@ <UNDEFINED> instruction: 0x6e676973
     c80:	69206465 	stmdbvs	r0!, {r0, r2, r5, r6, sl, sp, lr}
     c84:	5f00746e 	svcpl	0x0000746e
     c88:	544c465f 	strbpl	r4, [ip], #-1631	@ 0xfffff9a1
     c8c:	485f3233 	ldmdami	pc, {r0, r1, r4, r5, r9, ip, sp}^	@ <UNPREDICTABLE>
     c90:	445f5341 	ldrbmi	r5, [pc], #-833	@ c98 <__max_heap_size+0x898>
     c94:	524f4e45 	subpl	r4, pc, #1104	@ 0x450
     c98:	205f5f4d 	subscs	r5, pc, sp, asr #30
     c9c:	5f5f0031 	svcpl	0x005f0031
     ca0:	36544c46 	ldrbcc	r4, [r4], -r6, asr #24
     ca4:	45445f34 	strbmi	r5, [r4, #-3892]	@ 0xfffff0cc
     ca8:	4d524f4e 	ldclmi	15, cr4, [r2, #-312]	@ 0xfffffec8
     cac:	4e494d5f 	mcrmi	13, 2, r4, cr9, cr15, {2}
     cb0:	34205f5f 	strtcc	r5, [r0], #-3935	@ 0xfffff0a1
     cb4:	3034392e 	eorscc	r3, r4, lr, lsr #18
     cb8:	34363536 	ldrtcc	r3, [r6], #-1334	@ 0xfffffaca
     cbc:	31343835 	teqcc	r4, r5, lsr r8
     cc0:	35363432 	ldrcc	r3, [r6, #-1074]!	@ 0xfffffbce
     cc4:	332d6534 			@ <UNDEFINED> instruction: 0x332d6534
     cc8:	36463432 			@ <UNDEFINED> instruction: 0x36463432
     ccc:	5f5f0034 	svcpl	0x005f0034
     cd0:	5f434347 	svcpl	0x00434347
     cd4:	45564148 	ldrbmi	r4, [r6, #-328]	@ 0xfffffeb8
     cd8:	4e59535f 	mrcmi	3, 2, r5, cr9, cr15, {2}
     cdc:	4f435f43 	svcmi	0x00435f43
     ce0:	5241504d 	subpl	r5, r1, #77	@ 0x4d
     ce4:	4e415f45 	cdpmi	15, 4, cr5, cr1, cr5, {2}
     ce8:	57535f44 	ldrbpl	r5, [r3, -r4, asr #30]
     cec:	315f5041 	cmpcc	pc, r1, asr #32
     cf0:	5f003120 	svcpl	0x00003120
     cf4:	5f41535f 	svcpl	0x0041535f
     cf8:	54494249 	strbpl	r4, [r9], #-585	@ 0xfffffdb7
     cfc:	31205f5f 			@ <UNDEFINED> instruction: 0x31205f5f
     d00:	5f5f0036 	svcpl	0x005f0036
     d04:	52464c4c 	subpl	r4, r6, #76, 24	@ 0x4c00
     d08:	5f544341 	svcpl	0x00544341
     d0c:	5f58414d 	svcpl	0x0058414d
     d10:	5830205f 	ldmdapl	r0!, {r0, r1, r2, r3, r4, r6, sp}
     d14:	46464637 			@ <UNDEFINED> instruction: 0x46464637
     d18:	46464646 	strbmi	r4, [r6], -r6, asr #12
     d1c:	46464646 	strbmi	r4, [r6], -r6, asr #12
     d20:	46464646 	strbmi	r4, [r6], -r6, asr #12
     d24:	33362d50 	teqcc	r6, #80, 26	@ 0x1400
     d28:	00524c4c 	subseq	r4, r2, ip, asr #24
     d2c:	4e495f5f 	mcrmi	15, 2, r5, cr9, cr15, {2}
     d30:	41465f54 	cmpmi	r6, r4, asr pc
     d34:	34365453 	ldrtcc	r5, [r6], #-1107	@ 0xfffffbad
     d38:	58414d5f 	stmdapl	r1, {r0, r1, r2, r3, r4, r6, r8, sl, fp, lr}^
     d3c:	30205f5f 	eorcc	r5, r0, pc, asr pc
     d40:	66663778 			@ <UNDEFINED> instruction: 0x66663778
     d44:	66666666 	strbtvs	r6, [r6], -r6, ror #12
     d48:	66666666 	strbtvs	r6, [r6], -r6, ror #12
     d4c:	66666666 	strbtvs	r6, [r6], -r6, ror #12
     d50:	004c4c66 	subeq	r4, ip, r6, ror #24
     d54:	53535f5f 	cmppl	r3, #380	@ 0x17c
     d58:	4f465f50 	svcmi	0x00465f50
     d5c:	46495452 			@ <UNDEFINED> instruction: 0x46495452
     d60:	454c5f59 	strbmi	r5, [ip, #-3929]	@ 0xfffff0a7
     d64:	204c4556 	subcs	r4, ip, r6, asr r5
     d68:	5f5f0030 	svcpl	0x005f0030
     d6c:	465f5046 	ldrbmi	r5, [pc], -r6, asr #32
     d70:	5f545341 	svcpl	0x00545341
     d74:	46414d46 	strbmi	r4, [r1], -r6, asr #26
     d78:	5f003120 	svcpl	0x00003120
     d7c:	544c465f 	strbpl	r4, [ip], #-1631	@ 0xfffff9a1
     d80:	4749445f 			@ <UNDEFINED> instruction: 0x4749445f
     d84:	36205f5f 			@ <UNDEFINED> instruction: 0x36205f5f
     d88:	445f5f00 	ldrbmi	r5, [pc], #-3840	@ d90 <__max_heap_size+0x990>
     d8c:	455f4c42 	ldrbmi	r4, [pc, #-3138]	@ 152 <__max_stack_size-0xae>
     d90:	4c495350 	stclmi	3, cr5, [r9], {80}	@ 0x50
     d94:	5f5f4e4f 	svcpl	0x005f4e4f
     d98:	64282820 	strtvs	r2, [r8], #-2080	@ 0xfffff7e0
     d9c:	6c62756f 	stclvs	5, cr7, [r2], #-444	@ 0xfffffe44
     da0:	2e322965 			@ <UNDEFINED> instruction: 0x2e322965
     da4:	34303232 	ldrtcc	r3, [r0], #-562	@ 0xfffffdce
     da8:	34303634 	ldrtcc	r3, [r0], #-1588	@ 0xfffff9cc
     dac:	30353239 	eorscc	r3, r5, r9, lsr r2
     db0:	31333133 	teqcc	r3, r3, lsr r1
     db4:	36312d65 	ldrtcc	r2, [r1], -r5, ror #26
     db8:	5f00294c 	svcpl	0x0000294c
     dbc:	4343475f 	cmpmi	r3, #24903680	@ 0x17c0000
     dc0:	4f54415f 	svcmi	0x0054415f
     dc4:	5f43494d 	svcpl	0x0043494d
     dc8:	4c4f4f42 	stclmi	15, cr4, [pc], {66}	@ 0x42
     dcc:	434f4c5f 	cmpmi	pc, #24320	@ 0x5f00
     dd0:	52465f4b 	subpl	r5, r6, #300	@ 0x12c
     dd4:	32204545 	eorcc	r4, r0, #289406976	@ 0x11400000
     dd8:	475f5f00 	ldrbmi	r5, [pc, -r0, lsl #30]
     ddc:	485f4343 	ldmdami	pc, {r0, r1, r6, r8, r9, lr}^	@ <UNPREDICTABLE>
     de0:	5f455641 	svcpl	0x00455641
     de4:	434e5953 	cmpmi	lr, #1359872	@ 0x14c000
     de8:	4d4f435f 	stclmi	3, cr4, [pc, #-380]	@ c74 <__max_heap_size+0x874>
     dec:	45524150 	ldrbmi	r4, [r2, #-336]	@ 0xfffffeb0
     df0:	444e415f 	strbmi	r4, [lr], #-351	@ 0xfffffea1
     df4:	4157535f 	cmpmi	r7, pc, asr r3
     df8:	20325f50 	eorscs	r5, r2, r0, asr pc
     dfc:	682f0031 	stmdavs	pc!, {r0, r4, r5}	@ <UNPREDICTABLE>
     e00:	2f656d6f 	svccs	0x00656d6f
     e04:	2f6a6172 	svccs	0x006a6172
     e08:	6b736544 	blvs	1cda320 <__max_heap_size+0x1cd9f20>
     e0c:	2f706f74 	svccs	0x00706f74
     e10:	65626d45 	strbvs	r6, [r2, #-3397]!	@ 0xfffff2bb
     e14:	64656464 	strbtvs	r6, [r5], #-1124	@ 0xfffffb9c
     e18:	76697244 	strbtvc	r7, [r9], -r4, asr #4
     e1c:	2f737265 	svccs	0x00737265
     e20:	4244454c 	submi	r4, r4, #76, 10	@ 0x13000000
     e24:	00657261 	rsbeq	r7, r5, r1, ror #4
     e28:	41445f5f 	cmpmi	r4, pc, asr pc
     e2c:	4942465f 	stmdbmi	r2, {r0, r1, r2, r3, r4, r6, r9, sl, lr}^
     e30:	205f5f54 	subscs	r5, pc, r4, asr pc	@ <UNPREDICTABLE>
     e34:	5f003133 	svcpl	0x00003133
     e38:	4d52415f 	ldclmi	1, cr4, [r2, #-380]	@ 0xfffffe84
     e3c:	5a49535f 	bpl	1255bc0 <__max_heap_size+0x12557c0>
     e40:	5f464f45 	svcpl	0x00464f45
     e44:	494e494d 	stmdbmi	lr, {r0, r2, r3, r6, r8, fp, lr}^
     e48:	5f4c414d 	svcpl	0x004c414d
     e4c:	4d554e45 	ldclmi	14, cr4, [r5, #-276]	@ 0xfffffeec
     e50:	5f003120 	svcpl	0x00003120
     e54:	4553555f 	ldrbmi	r5, [r3, #-1375]	@ 0xfffffaa1
     e58:	4e495f53 	mcrmi	15, 2, r5, cr9, cr3, {2}
     e5c:	49465449 	stmdbmi	r6, {r0, r3, r6, sl, ip, lr}^
     e60:	5f5f494e 	svcpl	0x005f494e
     e64:	5f003120 	svcpl	0x00003120
     e68:	4343475f 	cmpmi	r3, #24903680	@ 0x17c0000
     e6c:	4345495f 	cmpmi	r5, #1556480	@ 0x17c000
     e70:	3935355f 	ldmdbcc	r5!, {r0, r1, r2, r3, r4, r6, r8, sl, ip, sp}
     e74:	47003020 	strmi	r3, [r0, -r0, lsr #32]
     e78:	414f4950 	cmpmi	pc, r0, asr r9	@ <UNPREDICTABLE>
     e7c:	52444f5f 	subpl	r4, r4, #380	@ 0x17c
     e80:	50472820 	subpl	r2, r7, r0, lsr #16
     e84:	5f414f49 	svcpl	0x00414f49
     e88:	45534142 	ldrbmi	r4, [r3, #-322]	@ 0xfffffebe
     e8c:	47202b20 	strmi	r2, [r0, -r0, lsr #22]!
     e90:	414f4950 	cmpmi	pc, r0, asr r9	@ <UNPREDICTABLE>
     e94:	52444f5f 	subpl	r4, r4, #380	@ 0x17c
     e98:	46464f5f 			@ <UNDEFINED> instruction: 0x46464f5f
     e9c:	29544553 	ldmdbcs	r4, {r0, r1, r4, r6, r8, sl, lr}^
     ea0:	555f5f00 	ldrbpl	r5, [pc, #-3840]	@ ffffffa8 <_estack+0xdffe7fa8>
     ea4:	43434153 	cmpmi	r3, #-1073741804	@ 0xc0000014
     ea8:	455f4d55 	ldrbmi	r4, [pc, #-3413]	@ 15b <__max_stack_size-0xa5>
     eac:	4c495350 	stclmi	3, cr5, [r9], {80}	@ 0x50
     eb0:	5f5f4e4f 	svcpl	0x005f4e4f
     eb4:	31783020 	cmncc	r8, r0, lsr #32
     eb8:	55382d50 	ldrpl	r2, [r8, #-3408]!	@ 0xfffff2b0
     ebc:	5f004b48 	svcpl	0x00004b48
     ec0:	6e695f5f 	mcrvs	15, 3, r5, cr9, cr15, {2}
     ec4:	745f3874 	ldrbvc	r3, [pc], #-2164	@ ecc <__max_heap_size+0xacc>
     ec8:	6665645f 			@ <UNDEFINED> instruction: 0x6665645f
     ecc:	64656e69 	strbtvs	r6, [r5], #-3689	@ 0xfffff197
     ed0:	5f003120 	svcpl	0x00003120
     ed4:	5254505f 	subspl	r5, r4, #95	@ 0x5f
     ed8:	46464944 	strbmi	r4, [r6], -r4, asr #18
     edc:	58414d5f 	stmdapl	r1, {r0, r1, r2, r3, r4, r6, r8, sl, fp, lr}^
     ee0:	30205f5f 	eorcc	r5, r0, pc, asr pc
     ee4:	66663778 			@ <UNDEFINED> instruction: 0x66663778
     ee8:	66666666 	strbtvs	r6, [r6], -r6, ror #12
     eec:	5f5f0066 	svcpl	0x005f0066
     ef0:	33544c46 	cmpcc	r4, #17920	@ 0x4600
     ef4:	41485f32 	cmpmi	r8, r2, lsr pc
     ef8:	55515f53 	ldrbpl	r5, [r1, #-3923]	@ 0xfffff0ad
     efc:	5f544549 	svcpl	0x00544549
     f00:	5f4e414e 	svcpl	0x004e414e
     f04:	0031205f 	eorseq	r2, r1, pc, asr r0
     f08:	544e4955 	strbpl	r4, [lr], #-2389	@ 0xfffff6ab
     f0c:	4d5f3233 	ldclmi	2, cr3, [pc, #-204]	@ e48 <__max_heap_size+0xa48>
     f10:	28205841 	stmdacs	r0!, {r0, r6, fp, ip, lr}
     f14:	49555f5f 	ldmdbmi	r5, {r0, r1, r2, r3, r4, r6, r8, r9, sl, fp, ip, lr}^
     f18:	3233544e 	eorscc	r5, r3, #1308622848	@ 0x4e000000
     f1c:	58414d5f 	stmdapl	r1, {r0, r1, r2, r3, r4, r6, r8, sl, fp, lr}^
     f20:	00295f5f 	eoreq	r5, r9, pc, asr pc
     f24:	4c555f5f 	ldclmi	15, cr5, [r5], {95}	@ 0x5f
     f28:	55434341 	strbpl	r4, [r3, #-833]	@ 0xfffffcbf
     f2c:	414d5f4d 	cmpmi	sp, sp, asr #30
     f30:	205f5f58 	subscs	r5, pc, r8, asr pc	@ <UNPREDICTABLE>
     f34:	46465830 			@ <UNDEFINED> instruction: 0x46465830
     f38:	46464646 	strbmi	r4, [r6], -r6, asr #12
     f3c:	46464646 	strbmi	r4, [r6], -r6, asr #12
     f40:	46464646 	strbmi	r4, [r6], -r6, asr #12
     f44:	2d504646 	ldclcs	6, cr4, [r0, #-280]	@ 0xfffffee8
     f48:	4c553233 	ldclmi	2, cr3, [r5], {51}	@ 0x33
     f4c:	5f5f004b 	svcpl	0x005f004b
     f50:	41524655 	cmpmi	r2, r5, asr r6
     f54:	4d5f5443 	ldclmi	4, cr5, [pc, #-268]	@ e50 <__max_heap_size+0xa50>
     f58:	5f5f5841 	svcpl	0x005f5841
     f5c:	46583020 	ldrbmi	r3, [r8], -r0, lsr #32
     f60:	50464646 	subpl	r4, r6, r6, asr #12
     f64:	5536312d 	ldrpl	r3, [r6, #-301]!	@ 0xfffffed3
     f68:	5f5f0052 	svcpl	0x005f0052
     f6c:	41524653 	cmpmi	r2, r3, asr r6
     f70:	4d5f5443 	ldclmi	4, cr5, [pc, #-268]	@ e6c <__max_heap_size+0xa6c>
     f74:	5f5f5841 	svcpl	0x005f5841
     f78:	37583020 	ldrbcc	r3, [r8, -r0, lsr #32]
     f7c:	372d5046 	strcc	r5, [sp, -r6, asr #32]!
     f80:	5f005248 	svcpl	0x00005248
     f84:	4e49555f 	mcrmi	5, 2, r5, cr9, cr15, {2}
     f88:	41465f54 	cmpmi	r6, r4, asr pc
     f8c:	34365453 	ldrtcc	r5, [r6], #-1107	@ 0xfffffbad
     f90:	5059545f 	subspl	r5, r9, pc, asr r4
     f94:	205f5f45 	subscs	r5, pc, r5, asr #30
     f98:	676e6f6c 	strbvs	r6, [lr, -ip, ror #30]!
     f9c:	6e6f6c20 	cdpvs	12, 6, cr6, cr15, cr0, {1}
     fa0:	6e752067 	cdpvs	0, 7, cr2, cr5, cr7, {3}
     fa4:	6e676973 			@ <UNDEFINED> instruction: 0x6e676973
     fa8:	69206465 	stmdbvs	r0!, {r0, r2, r5, r6, sl, sp, lr}
     fac:	5f00746e 	svcpl	0x0000746e
     fb0:	554e475f 	strbpl	r4, [lr, #-1887]	@ 0xfffff8a1
     fb4:	205f5f43 	subscs	r5, pc, r3, asr #30
     fb8:	5f003431 	svcpl	0x00003431
     fbc:	5f535953 	svcpl	0x00535953
     fc0:	54414546 	strbpl	r4, [r1], #-1350	@ 0xfffffaba
     fc4:	53455255 	cmppl	r5, #1342177285	@ 0x50000005
     fc8:	0020485f 	eoreq	r4, r0, pc, asr r8
     fcc:	4e495f5f 	mcrmi	15, 2, r5, cr9, cr15, {2}
     fd0:	5f343654 	svcpl	0x00343654
     fd4:	5f58414d 	svcpl	0x0058414d
     fd8:	7830205f 	ldmdavc	r0!, {r0, r1, r2, r3, r4, r6, sp}
     fdc:	66666637 			@ <UNDEFINED> instruction: 0x66666637
     fe0:	66666666 	strbtvs	r6, [r6], -r6, ror #12
     fe4:	66666666 	strbtvs	r6, [r6], -r6, ror #12
     fe8:	66666666 	strbtvs	r6, [r6], -r6, ror #12
     fec:	5f004c4c 	svcpl	0x00004c4c
     ff0:	544e495f 	strbpl	r4, [lr], #-2399	@ 0xfffff6a1
     ff4:	414d5f38 	cmpmi	sp, r8, lsr pc
     ff8:	205f5f58 	subscs	r5, pc, r8, asr pc	@ <UNPREDICTABLE>
     ffc:	66377830 			@ <UNDEFINED> instruction: 0x66377830
    1000:	555f5f00 	ldrbpl	r5, [pc, #-3840]	@ 108 <__max_stack_size-0xf8>
    1004:	4152464c 	cmpmi	r2, ip, asr #12
    1008:	455f5443 	ldrbmi	r5, [pc, #-1091]	@ bcd <__max_heap_size+0x7cd>
    100c:	4c495350 	stclmi	3, cr5, [r9], {80}	@ 0x50
    1010:	5f5f4e4f 	svcpl	0x005f4e4f
    1014:	31783020 	cmncc	r8, r0, lsr #32
    1018:	32332d50 	eorscc	r2, r3, #80, 26	@ 0x1400
    101c:	00524c55 	subseq	r4, r2, r5, asr ip
    1020:	4e495f5f 	mcrmi	15, 2, r5, cr9, cr15, {2}
    1024:	454c5f54 	strbmi	r5, [ip, #-3924]	@ 0xfffff0ac
    1028:	33545341 	cmpcc	r4, #67108865	@ 0x4000001
    102c:	59545f32 	ldmdbpl	r4, {r1, r4, r5, r8, r9, sl, fp, ip, lr}^
    1030:	5f5f4550 	svcpl	0x005f4550
    1034:	6e6f6c20 	cdpvs	12, 6, cr6, cr15, cr0, {1}
    1038:	6e692067 	cdpvs	0, 6, cr2, cr9, cr7, {3}
    103c:	5f5f0074 	svcpl	0x005f0074
    1040:	52464c55 	subpl	r4, r6, #21760	@ 0x5500
    1044:	5f544341 	svcpl	0x00544341
    1048:	54494249 	strbpl	r4, [r9], #-585	@ 0xfffffdb7
    104c:	30205f5f 	eorcc	r5, r0, pc, asr pc
    1050:	4c5f5f00 	ldclmi	15, cr5, [pc], {-0}
    1054:	4343414c 	cmpmi	r3, #76, 2
    1058:	465f4d55 			@ <UNDEFINED> instruction: 0x465f4d55
    105c:	5f544942 	svcpl	0x00544942
    1060:	3133205f 	teqcc	r3, pc, asr r0
    1064:	555f5f00 	ldrbpl	r5, [pc, #-3840]	@ 16c <__max_stack_size-0x94>
    1068:	5f544e49 	svcpl	0x00544e49
    106c:	5341454c 	cmppl	r1, #76, 10	@ 0x13000000
    1070:	5f343654 	svcpl	0x00343654
    1074:	5f58414d 	svcpl	0x0058414d
    1078:	7830205f 	ldmdavc	r0!, {r0, r1, r2, r3, r4, r6, sp}
    107c:	66666666 	strbtvs	r6, [r6], -r6, ror #12
    1080:	66666666 	strbtvs	r6, [r6], -r6, ror #12
    1084:	66666666 	strbtvs	r6, [r6], -r6, ror #12
    1088:	66666666 	strbtvs	r6, [r6], -r6, ror #12
    108c:	004c4c55 	subeq	r4, ip, r5, asr ip
    1090:	4c465f5f 	stclmi	15, cr5, [r6], {95}	@ 0x5f
    1094:	41525f54 	cmpmi	r2, r4, asr pc
    1098:	5f584944 	svcpl	0x00584944
    109c:	0032205f 	eorseq	r2, r2, pc, asr r0
    10a0:	4c555f5f 	ldclmi	15, cr5, [r5], {95}	@ 0x5f
    10a4:	4152464c 	cmpmi	r2, ip, asr #12
    10a8:	4d5f5443 	ldclmi	4, cr5, [pc, #-268]	@ fa4 <__max_heap_size+0xba4>
    10ac:	5f5f4e49 	svcpl	0x005f4e49
    10b0:	302e3020 	eorcc	r3, lr, r0, lsr #32
    10b4:	524c4c55 	subpl	r4, ip, #21760	@ 0x5500
    10b8:	445f5f00 	ldrbmi	r5, [pc], #-3840	@ 10c0 <__max_heap_size+0xcc0>
    10bc:	485f4c42 	ldmdami	pc, {r1, r6, sl, fp, lr}^	@ <UNPREDICTABLE>
    10c0:	515f5341 	cmppl	pc, r1, asr #6
    10c4:	54454955 	strbpl	r4, [r5], #-2389	@ 0xfffff6ab
    10c8:	4e414e5f 	mcrmi	14, 2, r4, cr1, cr15, {2}
    10cc:	31205f5f 			@ <UNDEFINED> instruction: 0x31205f5f
    10d0:	555f5f00 	ldrbpl	r5, [pc, #-3840]	@ 1d8 <__max_stack_size-0x28>
    10d4:	55434341 	strbpl	r4, [r3, #-833]	@ 0xfffffcbf
    10d8:	494d5f4d 	stmdbmi	sp, {r0, r2, r3, r6, r8, r9, sl, fp, ip, lr}^
    10dc:	205f5f4e 	subscs	r5, pc, lr, asr #30
    10e0:	55302e30 	ldrpl	r2, [r0, #-3632]!	@ 0xfffff1d0
    10e4:	4950004b 	ldmdbmi	r0, {r0, r1, r3, r6}^
    10e8:	2820354e 	stmdacs	r0!, {r1, r2, r3, r6, r8, sl, ip, sp}
    10ec:	5f002935 	svcpl	0x00002935
    10f0:	52464c5f 	subpl	r4, r6, #24320	@ 0x5f00
    10f4:	5f544341 	svcpl	0x00544341
    10f8:	49535045 	ldmdbmi	r3, {r0, r2, r6, ip, lr}^
    10fc:	5f4e4f4c 	svcpl	0x004e4f4c
    1100:	7830205f 	ldmdavc	r0!, {r0, r1, r2, r3, r4, r6, sp}
    1104:	332d5031 			@ <UNDEFINED> instruction: 0x332d5031
    1108:	00524c31 	subseq	r4, r2, r1, lsr ip
    110c:	4e495f5f 	mcrmi	15, 2, r5, cr9, cr15, {2}
    1110:	41465f54 	cmpmi	r6, r4, asr pc
    1114:	5f385453 	svcpl	0x00385453
    1118:	45505954 	ldrbmi	r5, [r0, #-2388]	@ 0xfffff6ac
    111c:	69205f5f 	stmdbvs	r0!, {r0, r1, r2, r3, r4, r6, r8, r9, sl, fp, ip, lr}
    1120:	4900746e 	stmdbmi	r0, {r1, r2, r3, r5, r6, sl, ip, sp, lr}
    1124:	4c5f544e 	ldclmi	4, cr5, [pc], {78}	@ 0x4e
    1128:	54534145 	ldrbpl	r4, [r3], #-325	@ 0xfffffebb
    112c:	4d5f3631 	ldclmi	6, cr3, [pc, #-196]	@ 1070 <__max_heap_size+0xc70>
    1130:	28205841 	stmdacs	r0!, {r0, r6, fp, ip, lr}
    1134:	4e495f5f 	mcrmi	15, 2, r5, cr9, cr15, {2}
    1138:	454c5f54 	strbmi	r5, [ip, #-3924]	@ 0xfffff0ac
    113c:	31545341 	cmpcc	r4, r1, asr #6
    1140:	414d5f36 	cmpmi	sp, r6, lsr pc
    1144:	295f5f58 	ldmdbcs	pc, {r3, r4, r6, r8, r9, sl, fp, ip, lr}^	@ <UNPREDICTABLE>
    1148:	465f5f00 	ldrbmi	r5, [pc], -r0, lsl #30
    114c:	3436544c 	ldrtcc	r5, [r6], #-1100	@ 0xfffffbb4
    1150:	5341485f 	cmppl	r1, #6225920	@ 0x5f0000
    1154:	464e495f 			@ <UNDEFINED> instruction: 0x464e495f
    1158:	54494e49 	strbpl	r4, [r9], #-3657	@ 0xfffff1b7
    115c:	205f5f59 	subscs	r5, pc, r9, asr pc	@ <UNPREDICTABLE>
    1160:	5f5f0031 	svcpl	0x005f0031
    1164:	33544c46 	cmpcc	r4, #17920	@ 0x4600
    1168:	445f5832 	ldrbmi	r5, [pc], #-2098	@ 1170 <__max_heap_size+0xd70>
    116c:	524f4e45 	subpl	r4, pc, #1104	@ 0x450
    1170:	494d5f4d 	stmdbmi	sp, {r0, r2, r3, r6, r8, r9, sl, fp, ip, lr}^
    1174:	205f5f4e 	subscs	r5, pc, lr, asr #30
    1178:	34392e34 	ldrtcc	r2, [r9], #-3636	@ 0xfffff1cc
    117c:	36353630 			@ <UNDEFINED> instruction: 0x36353630
    1180:	34383534 	ldrtcc	r3, [r8], #-1332	@ 0xfffffacc
    1184:	36343231 			@ <UNDEFINED> instruction: 0x36343231
    1188:	2d653435 	stclcs	4, cr3, [r5, #-212]!	@ 0xffffff2c
    118c:	46343233 			@ <UNDEFINED> instruction: 0x46343233
    1190:	00783233 	rsbseq	r3, r8, r3, lsr r2
    1194:	52415f5f 	subpl	r5, r1, #380	@ 0x17c
    1198:	45465f4d 	strbmi	r5, [r6, #-3917]	@ 0xfffff0b3
    119c:	52555441 	subspl	r5, r5, #1090519040	@ 0x41000000
    11a0:	50465f45 	subpl	r5, r6, r5, asr #30
    11a4:	535f3631 	cmppl	pc, #51380224	@ 0x3100000
    11a8:	414c4143 	cmpmi	ip, r3, asr #2
    11ac:	52415f52 	subpl	r5, r1, #328	@ 0x148
    11b0:	4d485449 	stclmi	4, cr5, [r8, #-292]	@ 0xfffffedc
    11b4:	43495445 	cmpmi	r9, #1157627904	@ 0x45000000
    11b8:	625f5f00 	subsvs	r5, pc, #0, 30
    11bc:	5f6c6f6f 	svcpl	0x006c6f6f
    11c0:	65757274 	ldrbvs	r7, [r5, #-628]!	@ 0xfffffd8c
    11c4:	6c61665f 	stclvs	6, cr6, [r1], #-380	@ 0xfffffe84
    11c8:	615f6573 	cmpvs	pc, r3, ror r5	@ <UNPREDICTABLE>
    11cc:	645f6572 	ldrbvs	r6, [pc], #-1394	@ 11d4 <__max_heap_size+0xdd4>
    11d0:	6e696665 	cdpvs	6, 6, cr6, cr9, cr5, {3}
    11d4:	31206465 			@ <UNDEFINED> instruction: 0x31206465
    11d8:	535f5f00 	cmppl	pc, #0, 30
    11dc:	55434341 	strbpl	r4, [r3, #-833]	@ 0xfffffcbf
    11e0:	42465f4d 	submi	r5, r6, #308	@ 0x134
    11e4:	5f5f5449 	svcpl	0x005f5449
    11e8:	5f003720 	svcpl	0x00003720
    11ec:	4843575f 	stmdami	r3, {r0, r1, r2, r3, r4, r6, r8, r9, sl, ip, lr}^
    11f0:	545f5241 	ldrbpl	r5, [pc], #-577	@ 11f8 <__max_heap_size+0xdf8>
    11f4:	5f455059 	svcpl	0x00455059
    11f8:	6e75205f 	mrcvs	0, 3, r2, cr5, cr15, {2}
    11fc:	6e676973 			@ <UNDEFINED> instruction: 0x6e676973
    1200:	69206465 	stmdbvs	r0!, {r0, r2, r5, r6, sl, sp, lr}
    1204:	5f00746e 	svcpl	0x0000746e
    1208:	4c42445f 	stclmi	4, cr4, [r2], {95}	@ 0x5f
    120c:	4e494d5f 	mcrmi	13, 2, r4, cr9, cr15, {2}
    1210:	28205f5f 	stmdacs	r0!, {r0, r1, r2, r3, r4, r6, r8, r9, sl, fp, ip, lr}
    1214:	756f6428 	strbvc	r6, [pc, #-1064]!	@ df4 <__max_heap_size+0x9f4>
    1218:	29656c62 	stmdbcs	r5!, {r1, r5, r6, sl, fp, sp, lr}^
    121c:	32322e32 	eorscc	r2, r2, #800	@ 0x320
    1220:	33373035 	teqcc	r7, #53	@ 0x35
    1224:	35383538 	ldrcc	r3, [r8, #-1336]!	@ 0xfffffac8
    1228:	30323730 	eorscc	r3, r2, r0, lsr r7
    122c:	2d653431 	stclcs	4, cr3, [r5, #-196]!	@ 0xffffff3c
    1230:	4c383033 	ldcmi	0, cr3, [r8], #-204	@ 0xffffff34
    1234:	5f5f0029 	svcpl	0x005f0029
    1238:	36544c46 	ldrbcc	r4, [r4], -r6, asr #24
    123c:	494d5f34 	stmdbmi	sp, {r2, r4, r5, r8, r9, sl, fp, ip, lr}^
    1240:	205f5f4e 	subscs	r5, pc, lr, asr #30
    1244:	32322e32 	eorscc	r2, r2, #800	@ 0x320
    1248:	33373035 	teqcc	r7, #53	@ 0x35
    124c:	35383538 	ldrcc	r3, [r8, #-1336]!	@ 0xfffffac8
    1250:	30323730 	eorscc	r3, r2, r0, lsr r7
    1254:	2d653431 	stclcs	4, cr3, [r5, #-196]!	@ 0xffffff3c
    1258:	46383033 			@ <UNDEFINED> instruction: 0x46383033
    125c:	5f003436 	svcpl	0x00003436
    1260:	4152465f 	cmpmi	r2, pc, asr r6
    1264:	4d5f5443 	ldclmi	4, cr5, [pc, #-268]	@ 1160 <__max_heap_size+0xd60>
    1268:	5f5f4e49 	svcpl	0x005f4e49
    126c:	302d2820 	eorcc	r2, sp, r0, lsr #16
    1270:	2d52352e 	ldclcs	5, cr3, [r2, #-184]	@ 0xffffff48
    1274:	52352e30 	eorspl	r2, r5, #48, 28	@ 0x300
    1278:	5f5f0029 	svcpl	0x005f0029
    127c:	5f434347 	svcpl	0x00434347
    1280:	4d4f5441 	stclmi	4, cr5, [pc, #-260]	@ 1184 <__max_heap_size+0xd84>
    1284:	495f4349 	ldmdbmi	pc, {r0, r3, r6, r8, r9, lr}^	@ <UNPREDICTABLE>
    1288:	4c5f544e 	ldclmi	4, cr5, [pc], {78}	@ 0x4e
    128c:	5f4b434f 	svcpl	0x004b434f
    1290:	45455246 	strbmi	r5, [r5, #-582]	@ 0xfffffdba
    1294:	5f003220 	svcpl	0x00003220
    1298:	544e495f 	strbpl	r4, [lr], #-2399	@ 0xfffff6a1
    129c:	5f58414d 	svcpl	0x0058414d
    12a0:	5f58414d 	svcpl	0x0058414d
    12a4:	7830205f 	ldmdavc	r0!, {r0, r1, r2, r3, r4, r6, sp}
    12a8:	66666637 			@ <UNDEFINED> instruction: 0x66666637
    12ac:	66666666 	strbtvs	r6, [r6], -r6, ror #12
    12b0:	66666666 	strbtvs	r6, [r6], -r6, ror #12
    12b4:	66666666 	strbtvs	r6, [r6], -r6, ror #12
    12b8:	5f004c4c 	svcpl	0x00004c4c
    12bc:	544e4955 	strbpl	r4, [lr], #-2389	@ 0xfffff6ab
    12c0:	545f3436 	ldrbpl	r3, [pc], #-1078	@ 12c8 <__max_heap_size+0xec8>
    12c4:	4345445f 	cmpmi	r5, #1593835520	@ 0x5f000000
    12c8:	4552414c 	ldrbmi	r4, [r2, #-332]	@ 0xfffffeb4
    12cc:	5f002044 	svcpl	0x00002044
    12d0:	4341555f 	cmpmi	r1, #398458880	@ 0x17c00000
    12d4:	5f4d5543 	svcpl	0x004d5543
    12d8:	49535045 	ldmdbmi	r3, {r0, r2, r6, ip, lr}^
    12dc:	5f4e4f4c 	svcpl	0x004e4f4c
    12e0:	7830205f 	ldmdavc	r0!, {r0, r1, r2, r3, r4, r6, sp}
    12e4:	312d5031 			@ <UNDEFINED> instruction: 0x312d5031
    12e8:	004b5536 	subeq	r5, fp, r6, lsr r5
    12ec:	544e4955 	strbpl	r4, [lr], #-2389	@ 0xfffff6ab
    12f0:	5f58414d 	svcpl	0x0058414d
    12f4:	2058414d 	subscs	r4, r8, sp, asr #2
    12f8:	555f5f28 	ldrbpl	r5, [pc, #-3880]	@ 3d8 <__max_stack_size+0x1d8>
    12fc:	4d544e49 	ldclmi	14, cr4, [r4, #-292]	@ 0xfffffedc
    1300:	4d5f5841 	ldclmi	8, cr5, [pc, #-260]	@ 1204 <__max_heap_size+0xe04>
    1304:	5f5f5841 	svcpl	0x005f5841
    1308:	5f5f0029 	svcpl	0x005f0029
    130c:	55434341 	strbpl	r4, [r3, #-833]	@ 0xfffffcbf
    1310:	42495f4d 	submi	r5, r9, #308	@ 0x134
    1314:	5f5f5449 	svcpl	0x005f5449
    1318:	00363120 	eorseq	r3, r6, r0, lsr #2
    131c:	444c5f5f 	strbmi	r5, [ip], #-3935	@ 0xfffff0a1
    1320:	445f4c42 	ldrbmi	r4, [pc], #-3138	@ 1328 <__max_heap_size+0xf28>
    1324:	524f4e45 	subpl	r4, pc, #1104	@ 0x450
    1328:	494d5f4d 	stmdbmi	sp, {r0, r2, r3, r6, r8, r9, sl, fp, ip, lr}^
    132c:	205f5f4e 	subscs	r5, pc, lr, asr #30
    1330:	34392e34 	ldrtcc	r2, [r9], #-3636	@ 0xfffff1cc
    1334:	36353630 			@ <UNDEFINED> instruction: 0x36353630
    1338:	34383534 	ldrtcc	r3, [r8], #-1332	@ 0xfffffacc
    133c:	36343231 			@ <UNDEFINED> instruction: 0x36343231
    1340:	2d653435 	stclcs	4, cr3, [r5, #-212]!	@ 0xffffff2c
    1344:	4c343233 	ldcmi	2, cr3, [r4], #-204	@ 0xffffff34
    1348:	465f5f00 	ldrbmi	r5, [pc], -r0, lsl #30
    134c:	3436544c 	ldrtcc	r5, [r6], #-1100	@ 0xfffffbb4
    1350:	58414d5f 	stmdapl	r1, {r0, r1, r2, r3, r4, r6, r8, sl, fp, lr}^
    1354:	5f30315f 	svcpl	0x0030315f
    1358:	5f505845 	svcpl	0x00505845
    135c:	3033205f 	eorscc	r2, r3, pc, asr r0
    1360:	5f5f0038 	svcpl	0x005f0038
    1364:	43434153 	cmpmi	r3, #-1073741804	@ 0xc0000014
    1368:	495f4d55 	ldmdbmi	pc, {r0, r2, r4, r6, r8, sl, fp, lr}^	@ <UNPREDICTABLE>
    136c:	5f544942 	svcpl	0x00544942
    1370:	0038205f 	eorseq	r2, r8, pc, asr r0
    1374:	49535f5f 	ldmdbmi	r3, {r0, r1, r2, r3, r4, r6, r8, r9, sl, fp, ip, lr}^
    1378:	464f455a 			@ <UNDEFINED> instruction: 0x464f455a
    137c:	5254505f 	subspl	r5, r4, #95	@ 0x5f
    1380:	46464944 	strbmi	r4, [r6], -r4, asr #18
    1384:	5f5f545f 	svcpl	0x005f545f
    1388:	5f003420 	svcpl	0x00003420
    138c:	5246535f 	subpl	r5, r6, #2080374785	@ 0x7c000001
    1390:	5f544341 	svcpl	0x00544341
    1394:	5f4e494d 	svcpl	0x004e494d
    1398:	2d28205f 	stccs	0, cr2, [r8, #-380]!	@ 0xfffffe84
    139c:	48352e30 	ldmdami	r5!, {r4, r5, r9, sl, fp, sp}
    13a0:	2e302d52 	mrccs	13, 1, r2, cr0, cr2, {2}
    13a4:	29524835 	ldmdbcs	r2, {r0, r2, r4, r5, fp, lr}^
    13a8:	555f5f00 	ldrbpl	r5, [pc, #-3840]	@ 4b0 <__max_heap_size+0xb0>
    13ac:	495f4153 	ldmdbmi	pc, {r0, r1, r4, r6, r8, lr}^	@ <UNPREDICTABLE>
    13b0:	5f544942 	svcpl	0x00544942
    13b4:	3631205f 			@ <UNDEFINED> instruction: 0x3631205f
    13b8:	4e495500 	cdpmi	5, 4, cr5, cr9, cr0, {0}
    13bc:	5f363154 	svcpl	0x00363154
    13c0:	2058414d 	subscs	r4, r8, sp, asr #2
    13c4:	555f5f28 	ldrbpl	r5, [pc, #-3880]	@ 4a4 <__max_heap_size+0xa4>
    13c8:	31544e49 	cmpcc	r4, r9, asr #28
    13cc:	414d5f36 	cmpmi	sp, r6, lsr pc
    13d0:	295f5f58 	ldmdbcs	pc, {r3, r4, r6, r8, r9, sl, fp, ip, lr}^	@ <UNPREDICTABLE>
    13d4:	5f5f5f00 	svcpl	0x005f5f00
    13d8:	36746e69 	ldrbtcc	r6, [r4], -r9, ror #28
    13dc:	5f745f34 	svcpl	0x00745f34
    13e0:	69666564 	stmdbvs	r6!, {r2, r5, r6, r8, sl, sp, lr}^
    13e4:	2064656e 	rsbcs	r6, r4, lr, ror #10
    13e8:	5f5f0031 	svcpl	0x005f0031
    13ec:	5f4d5241 	svcpl	0x004d5241
    13f0:	48435241 	stmdami	r3, {r0, r6, r9, ip, lr}^
    13f4:	5458455f 	ldrbpl	r4, [r8], #-1375	@ 0xfffffaa1
    13f8:	4944495f 	stmdbmi	r4, {r0, r1, r2, r3, r4, r6, r8, fp, lr}^
    13fc:	205f5f56 	subscs	r5, pc, r6, asr pc	@ <UNPREDICTABLE>
    1400:	4e490031 	mcrmi	0, 2, r0, cr9, cr1, {1}
    1404:	5f363154 	svcpl	0x00363154
    1408:	29782843 	ldmdbcs	r8!, {r0, r1, r6, fp, sp}^
    140c:	495f5f20 	ldmdbmi	pc, {r5, r8, r9, sl, fp, ip, lr}^	@ <UNPREDICTABLE>
    1410:	3631544e 	ldrtcc	r5, [r1], -lr, asr #8
    1414:	7828435f 	stmdavc	r8!, {r0, r1, r2, r3, r4, r6, r8, r9, lr}
    1418:	5f5f0029 	svcpl	0x005f0029
    141c:	5f4d5241 	svcpl	0x004d5241
    1420:	54414546 	strbpl	r4, [r1], #-1350	@ 0xfffffaba
    1424:	5f455255 	svcpl	0x00455255
    1428:	4c414e55 	stclmi	14, cr4, [r1], {85}	@ 0x55
    142c:	454e4749 	strbmi	r4, [lr, #-1865]	@ 0xfffff8b7
    1430:	00312044 	eorseq	r2, r1, r4, asr #32
    1434:	69736e75 	ldmdbvs	r3!, {r0, r2, r4, r5, r6, r9, sl, fp, sp, lr}^
    1438:	64656e67 	strbtvs	r6, [r5], #-3687	@ 0xfffff199
    143c:	555f5f00 	ldrbpl	r5, [pc, #-3840]	@ 544 <__max_heap_size+0x144>
    1440:	43434153 	cmpmi	r3, #-1073741804	@ 0xc0000014
    1444:	4d5f4d55 	ldclmi	13, cr4, [pc, #-340]	@ 12f8 <__max_heap_size+0xef8>
    1448:	5f5f5841 	svcpl	0x005f5841
    144c:	46583020 	ldrbmi	r3, [r8], -r0, lsr #32
    1450:	50464646 	subpl	r4, r6, r6, asr #12
    1454:	4855382d 	ldmdami	r5, {r0, r2, r3, r5, fp, ip, sp}^
    1458:	5f5f004b 	svcpl	0x005f004b
    145c:	544e4955 	strbpl	r4, [lr], #-2389	@ 0xfffff6ab
    1460:	435f3233 	cmpmi	pc, #805306371	@ 0x30000003
    1464:	20296328 	eorcs	r6, r9, r8, lsr #6
    1468:	23232063 			@ <UNDEFINED> instruction: 0x23232063
    146c:	004c5520 	subeq	r5, ip, r0, lsr #10
    1470:	44555f5f 	ldrbmi	r5, [r5], #-3935	@ 0xfffff0a1
    1474:	42465f41 	submi	r5, r6, #260	@ 0x104
    1478:	5f5f5449 	svcpl	0x005f5449
    147c:	00323320 	eorseq	r3, r2, r0, lsr #6
    1480:	5f544e49 	svcpl	0x00544e49
    1484:	54534146 	ldrbpl	r4, [r3], #-326	@ 0xfffffeba
    1488:	4d5f3233 	ldclmi	2, cr3, [pc, #-204]	@ 13c4 <__max_heap_size+0xfc4>
    148c:	28204e49 	stmdacs	r0!, {r0, r3, r6, r9, sl, fp, lr}
    1490:	495f5f2d 	ldmdbmi	pc, {r0, r2, r3, r5, r8, r9, sl, fp, ip, lr}^	@ <UNPREDICTABLE>
    1494:	465f544e 	ldrbmi	r5, [pc], -lr, asr #8
    1498:	33545341 	cmpcc	r4, #67108865	@ 0x4000001
    149c:	414d5f32 	cmpmi	sp, r2, lsr pc
    14a0:	205f5f58 	subscs	r5, pc, r8, asr pc	@ <UNPREDICTABLE>
    14a4:	2931202d 	ldmdbcs	r1!, {r0, r2, r3, r5, sp}
    14a8:	54535f00 	ldrbpl	r5, [r3], #-3840	@ 0xfffff100
    14ac:	4f4f4244 	svcmi	0x004f4244
    14b0:	20485f4c 	subcs	r5, r8, ip, asr #30
    14b4:	545f5f00 	ldrbpl	r5, [pc], #-3840	@ 14bc <__max_heap_size+0x10bc>
    14b8:	424d5548 	submi	r5, sp, #72, 10	@ 0x12000000
    14bc:	5f5f4c45 	svcpl	0x005f4c45
    14c0:	49003120 	stmdbmi	r0, {r5, r8, ip, sp}
    14c4:	4c5f544e 	ldclmi	4, cr5, [pc], {78}	@ 0x4e
    14c8:	54534145 	ldrbpl	r4, [r3], #-325	@ 0xfffffebb
    14cc:	4d5f3233 	ldclmi	2, cr3, [pc, #-204]	@ 1408 <__max_heap_size+0x1008>
    14d0:	28205841 	stmdacs	r0!, {r0, r6, fp, ip, lr}
    14d4:	4e495f5f 	mcrmi	15, 2, r5, cr9, cr15, {2}
    14d8:	454c5f54 	strbmi	r5, [ip, #-3924]	@ 0xfffff0ac
    14dc:	33545341 	cmpcc	r4, #67108865	@ 0x4000001
    14e0:	414d5f32 	cmpmi	sp, r2, lsr pc
    14e4:	295f5f58 	ldmdbcs	pc, {r3, r4, r6, r8, r9, sl, fp, ip, lr}^	@ <UNPREDICTABLE>
    14e8:	445f5f00 	ldrbmi	r5, [pc], #-3840	@ 14f0 <__max_heap_size+0x10f0>
    14ec:	42495f41 	submi	r5, r9, #260	@ 0x104
    14f0:	5f5f5449 	svcpl	0x005f5449
    14f4:	00323320 	eorseq	r3, r2, r0, lsr #6
    14f8:	49425f5f 	stmdbmi	r2, {r0, r1, r2, r3, r4, r6, r8, r9, sl, fp, ip, lr}^
    14fc:	53454747 	cmppl	r5, #18612224	@ 0x11c0000
    1500:	4c415f54 	stclmi	15, cr5, [r1], {84}	@ 0x54
    1504:	4d4e4749 	stclmi	7, cr4, [lr, #-292]	@ 0xfffffedc
    1508:	5f544e45 	svcpl	0x00544e45
    150c:	0038205f 	eorseq	r2, r8, pc, asr r0
    1510:	414c5f5f 	cmpmi	ip, pc, asr pc
    1514:	4d554343 	ldclmi	3, cr4, [r5, #-268]	@ 0xfffffef4
    1518:	4942495f 	stmdbmi	r2, {r0, r1, r2, r3, r4, r6, r8, fp, lr}^
    151c:	205f5f54 	subscs	r5, pc, r4, asr pc	@ <UNPREDICTABLE>
    1520:	5f003233 	svcpl	0x00003233
    1524:	5f535953 	svcpl	0x00535953
    1528:	4454535f 	ldrbmi	r5, [r4], #-863	@ 0xfffffca1
    152c:	5f544e49 	svcpl	0x00544e49
    1530:	5f002048 	svcpl	0x00002048
    1534:	4653555f 			@ <UNDEFINED> instruction: 0x4653555f
    1538:	54434152 	strbpl	r4, [r3], #-338	@ 0xfffffeae
    153c:	58414d5f 	stmdapl	r1, {r0, r1, r2, r3, r4, r6, r8, sl, fp, lr}^
    1540:	30205f5f 	eorcc	r5, r0, pc, asr pc
    1544:	50464658 	subpl	r4, r6, r8, asr r6
    1548:	4855382d 	ldmdami	r5, {r0, r2, r3, r5, fp, ip, sp}^
    154c:	5f5f0052 	svcpl	0x005f0052
    1550:	544e4955 	strbpl	r4, [lr], #-2389	@ 0xfffff6ab
    1554:	5341465f 	cmppl	r1, #99614720	@ 0x5f00000
    1558:	4d5f3854 	ldclmi	8, cr3, [pc, #-336]	@ 1410 <__max_heap_size+0x1010>
    155c:	5f5f5841 	svcpl	0x005f5841
    1560:	66783020 	ldrbtvs	r3, [r8], -r0, lsr #32
    1564:	66666666 	strbtvs	r6, [r6], -r6, ror #12
    1568:	55666666 	strbpl	r6, [r6, #-1638]!	@ 0xfffff99a
    156c:	4f5f5f00 	svcmi	0x005f5f00
    1570:	52454452 	subpl	r4, r5, #1375731712	@ 0x52000000
    1574:	54494c5f 	strbpl	r4, [r9], #-3167	@ 0xfffff3a1
    1578:	5f454c54 	svcpl	0x00454c54
    157c:	49444e45 	stmdbmi	r4, {r0, r2, r6, r9, sl, fp, lr}^
    1580:	5f5f4e41 	svcpl	0x005f4e41
    1584:	33323120 	teqcc	r2, #32, 2
    1588:	43520034 	cmpmi	r2, #52	@ 0x34
    158c:	41425f43 	cmpmi	r2, r3, asr #30
    1590:	28204553 	stmdacs	r0!, {r0, r1, r4, r6, r8, sl, lr}
    1594:	30347830 	eorscc	r7, r4, r0, lsr r8
    1598:	38333230 	ldmdacc	r3!, {r4, r5, r9, ip, sp}
    159c:	4c553030 	ldclmi	0, cr3, [r5], {48}	@ 0x30
    15a0:	5f5f0029 	svcpl	0x005f0029
    15a4:	45564148 	ldrbmi	r4, [r6, #-328]	@ 0xfffffeb8
    15a8:	4550535f 	ldrbmi	r5, [r0, #-863]	@ 0xfffffca1
    15ac:	414c5543 	cmpmi	ip, r3, asr #10
    15b0:	4e4f4954 			@ <UNDEFINED> instruction: 0x4e4f4954
    15b4:	4641535f 			@ <UNDEFINED> instruction: 0x4641535f
    15b8:	41565f45 	cmpmi	r6, r5, asr #30
    15bc:	2045554c 	subcs	r5, r5, ip, asr #10
    15c0:	5f5f0031 	svcpl	0x005f0031
    15c4:	43414c4c 	cmpmi	r1, #76, 24	@ 0x4c00
    15c8:	5f4d5543 	svcpl	0x004d5543
    15cc:	5f4e494d 	svcpl	0x004e494d
    15d0:	2d28205f 	stccs	0, cr2, [r8, #-380]!	@ 0xfffffe84
    15d4:	50315830 	eorspl	r5, r1, r0, lsr r8
    15d8:	4c4c3133 	stclmi	1, cr3, [ip], {51}	@ 0x33
    15dc:	58302d4b 	ldmdapl	r0!, {r0, r1, r3, r6, r8, sl, fp, sp}
    15e0:	31335031 	teqcc	r3, r1, lsr r0
    15e4:	294b4c4c 	stmdbcs	fp, {r2, r3, r6, sl, fp, lr}^
    15e8:	4c5f5f00 	ldclmi	15, cr5, [pc], {-0}
    15ec:	54534145 	ldrbpl	r4, [r3], #-325	@ 0xfffffebb
    15f0:	22203631 	eorcs	r3, r0, #51380224	@ 0x3100000
    15f4:	5f002268 	svcpl	0x00002268
    15f8:	5f41535f 	svcpl	0x0041535f
    15fc:	54494246 	strbpl	r4, [r9], #-582	@ 0xfffffdba
    1600:	31205f5f 			@ <UNDEFINED> instruction: 0x31205f5f
    1604:	5f5f0035 	svcpl	0x005f0035
    1608:	36544c46 	ldrbcc	r4, [r4], -r6, asr #24
    160c:	494d5f34 	stmdbmi	sp, {r2, r4, r5, r8, r9, sl, fp, ip, lr}^
    1610:	30315f4e 	eorscc	r5, r1, lr, asr #30
    1614:	5058455f 	subspl	r4, r8, pc, asr r5
    1618:	28205f5f 	stmdacs	r0!, {r0, r1, r2, r3, r4, r6, r8, r9, sl, fp, ip, lr}
    161c:	3730332d 	ldrcc	r3, [r0, -sp, lsr #6]!
    1620:	5f5f0029 	svcpl	0x005f0029
    1624:	5f4d5241 	svcpl	0x004d5241
    1628:	54414546 	strbpl	r4, [r1], #-1350	@ 0xfffffaba
    162c:	5f455255 	svcpl	0x00455255
    1630:	5f495442 	svcpl	0x00495442
    1634:	41464544 	cmpmi	r6, r4, asr #10
    1638:	00544c55 	subseq	r4, r4, r5, asr ip
    163c:	53425f5f 	cmppl	r2, #380	@ 0x17c
    1640:	49565f44 	ldmdbmi	r6, {r2, r6, r8, r9, sl, fp, ip, lr}^
    1644:	4c424953 			@ <UNDEFINED> instruction: 0x4c424953
    1648:	00302045 	eorseq	r2, r0, r5, asr #32
    164c:	41535f5f 	cmpmi	r3, pc, asr pc
    1650:	4d554343 	ldclmi	3, cr4, [r5, #-268]	@ 0xfffffef4
    1654:	5350455f 	cmppl	r0, #398458880	@ 0x17c00000
    1658:	4e4f4c49 	cdpmi	12, 4, cr4, cr15, cr9, {2}
    165c:	30205f5f 	eorcc	r5, r0, pc, asr pc
    1660:	2d503178 	ldclcs	1, cr3, [r0, #-480]	@ 0xfffffe20
    1664:	004b4837 	subeq	r4, fp, r7, lsr r8
    1668:	52415f5f 	subpl	r5, r1, #380	@ 0x17c
    166c:	45465f4d 	strbmi	r5, [r6, #-3917]	@ 0xfffff0b3
    1670:	52555441 	subspl	r5, r5, #1090519040	@ 0x41000000
    1674:	41505f45 	cmpmi	r0, r5, asr #30
    1678:	45445f43 	strbmi	r5, [r4, #-3907]	@ 0xfffff0bd
    167c:	4c554146 	ldclmi	1, cr4, [r5], {70}	@ 0x46
    1680:	5f5f0054 	svcpl	0x005f0054
    1684:	5f544e49 	svcpl	0x00544e49
    1688:	54534146 	ldrbpl	r4, [r3], #-326	@ 0xfffffeba
    168c:	545f3631 	ldrbpl	r3, [pc], #-1585	@ 1694 <__max_heap_size+0x1294>
    1690:	5f455059 	svcpl	0x00455059
    1694:	6e69205f 	mcrvs	0, 3, r2, cr9, cr15, {2}
    1698:	5f5f0074 	svcpl	0x005f0074
    169c:	5f554e47 	svcpl	0x00554e47
    16a0:	49534956 	ldmdbmi	r3, {r1, r2, r4, r6, r8, fp, lr}^
    16a4:	20454c42 	subcs	r4, r5, r2, asr #24
    16a8:	5f5f0030 	svcpl	0x005f0030
    16ac:	33544c46 	cmpcc	r4, #17920	@ 0x4600
    16b0:	45445f32 	strbmi	r5, [r4, #-3890]	@ 0xfffff0ce
    16b4:	414d4943 	cmpmi	sp, r3, asr #18
    16b8:	49445f4c 	stmdbmi	r4, {r2, r3, r6, r8, r9, sl, fp, ip, lr}^
    16bc:	205f5f47 	subscs	r5, pc, r7, asr #30
    16c0:	5f5f0039 	svcpl	0x005f0039
    16c4:	544e4955 	strbpl	r4, [lr], #-2389	@ 0xfffff6ab
    16c8:	545f3631 	ldrbpl	r3, [pc], #-1585	@ 16d0 <__max_heap_size+0x12d0>
    16cc:	5f455059 	svcpl	0x00455059
    16d0:	6873205f 	ldmdavs	r3!, {r0, r1, r2, r3, r4, r6, sp}^
    16d4:	2074726f 	rsbscs	r7, r4, pc, ror #4
    16d8:	69736e75 	ldmdbvs	r3!, {r0, r2, r4, r5, r6, r9, sl, fp, sp, lr}^
    16dc:	64656e67 	strbtvs	r6, [r5], #-3687	@ 0xfffff199
    16e0:	746e6920 	strbtvc	r6, [lr], #-2336	@ 0xfffff6e0
    16e4:	575f5f00 	ldrbpl	r5, [pc, -r0, lsl #30]
    16e8:	52414843 	subpl	r4, r1, #4390912	@ 0x430000
    16ec:	4449575f 	strbmi	r5, [r9], #-1887	@ 0xfffff8a1
    16f0:	5f5f4854 	svcpl	0x005f4854
    16f4:	00323320 	eorseq	r3, r2, r0, lsr #6
    16f8:	4e475f5f 	mcrmi	15, 2, r5, cr7, cr15, {2}
    16fc:	535f4355 	cmppl	pc, #1409286145	@ 0x54000001
    1700:	5f434454 	svcpl	0x00434454
    1704:	494c4e49 	stmdbmi	ip, {r0, r3, r6, r9, sl, fp, lr}^
    1708:	5f5f454e 	svcpl	0x005f454e
    170c:	5f003120 	svcpl	0x00003120
    1710:	5148555f 	cmppl	r8, pc, asr r5
    1714:	4942495f 	stmdbmi	r2, {r0, r1, r2, r3, r4, r6, r8, fp, lr}^
    1718:	205f5f54 	subscs	r5, pc, r4, asr pc	@ <UNPREDICTABLE>
    171c:	5f5f0030 	svcpl	0x005f0030
    1720:	41524655 	cmpmi	r2, r5, asr r6
    1724:	465f5443 	ldrbmi	r5, [pc], -r3, asr #8
    1728:	5f544942 	svcpl	0x00544942
    172c:	3631205f 			@ <UNDEFINED> instruction: 0x3631205f
    1730:	415f5f00 	cmpmi	pc, r0, lsl #30
    1734:	465f4d52 			@ <UNDEFINED> instruction: 0x465f4d52
    1738:	55544145 	ldrbpl	r4, [r4, #-325]	@ 0xfffffebb
    173c:	435f4552 	cmpmi	pc, #343932928	@ 0x14800000
    1740:	31205a4c 			@ <UNDEFINED> instruction: 0x31205a4c
    1744:	4c5f5f00 	ldclmi	15, cr5, [pc], {-0}
    1748:	5f474e4f 	svcpl	0x00474e4f
    174c:	474e4f4c 	strbmi	r4, [lr, -ip, asr #30]
    1750:	58414d5f 	stmdapl	r1, {r0, r1, r2, r3, r4, r6, r8, sl, fp, lr}^
    1754:	30205f5f 	eorcc	r5, r0, pc, asr pc
    1758:	66663778 			@ <UNDEFINED> instruction: 0x66663778
    175c:	66666666 	strbtvs	r6, [r6], -r6, ror #12
    1760:	66666666 	strbtvs	r6, [r6], -r6, ror #12
    1764:	66666666 	strbtvs	r6, [r6], -r6, ror #12
    1768:	004c4c66 	subeq	r4, ip, r6, ror #24
    176c:	41465f5f 	cmpmi	r6, pc, asr pc
    1770:	34365453 	ldrtcc	r5, [r6], #-1107	@ 0xfffffbad
    1774:	6c6c2220 	stclvs	2, cr2, [ip], #-128	@ 0xffffff80
    1778:	5f5f0022 	svcpl	0x005f0022
    177c:	544e4955 	strbpl	r4, [lr], #-2389	@ 0xfffff6ab
    1780:	41454c5f 	cmpmi	r5, pc, asr ip
    1784:	36315453 			@ <UNDEFINED> instruction: 0x36315453
    1788:	5059545f 	subspl	r5, r9, pc, asr r4
    178c:	205f5f45 	subscs	r5, pc, r5, asr #30
    1790:	726f6873 	rsbvc	r6, pc, #7536640	@ 0x730000
    1794:	6e752074 	mrcvs	0, 3, r2, cr5, cr4, {3}
    1798:	6e676973 			@ <UNDEFINED> instruction: 0x6e676973
    179c:	69206465 	stmdbvs	r0!, {r0, r2, r5, r6, sl, sp, lr}
    17a0:	5f00746e 	svcpl	0x0000746e
    17a4:	544c465f 	strbpl	r4, [ip], #-1631	@ 0xfffff9a1
    17a8:	58414d5f 	stmdapl	r1, {r0, r1, r2, r3, r4, r6, r8, sl, fp, lr}^
    17ac:	5f30315f 	svcpl	0x0030315f
    17b0:	5f505845 	svcpl	0x00505845
    17b4:	3833205f 	ldmdacc	r3!, {r0, r1, r2, r3, r4, r6, sp}
    17b8:	544e4900 	strbpl	r4, [lr], #-2304	@ 0xfffff700
    17bc:	41454c5f 	cmpmi	r5, pc, asr ip
    17c0:	5f385453 	svcpl	0x00385453
    17c4:	204e494d 	subcs	r4, lr, sp, asr #18
    17c8:	5f5f2d28 	svcpl	0x005f2d28
    17cc:	5f544e49 	svcpl	0x00544e49
    17d0:	5341454c 	cmppl	r1, #76, 10	@ 0x13000000
    17d4:	4d5f3854 	ldclmi	8, cr3, [pc, #-336]	@ 168c <__max_heap_size+0x128c>
    17d8:	5f5f5841 	svcpl	0x005f5841
    17dc:	31202d20 			@ <UNDEFINED> instruction: 0x31202d20
    17e0:	5f5f0029 	svcpl	0x005f0029
    17e4:	43414c4c 	cmpmi	r1, #76, 24	@ 0x4c00
    17e8:	5f4d5543 	svcpl	0x004d5543
    17ec:	5f58414d 	svcpl	0x0058414d
    17f0:	5830205f 	ldmdapl	r0!, {r0, r1, r2, r3, r4, r6, sp}
    17f4:	46464637 			@ <UNDEFINED> instruction: 0x46464637
    17f8:	46464646 	strbmi	r4, [r6], -r6, asr #12
    17fc:	46464646 	strbmi	r4, [r6], -r6, asr #12
    1800:	46464646 	strbmi	r4, [r6], -r6, asr #12
    1804:	31332d50 	teqcc	r3, r0, asr sp
    1808:	004b4c4c 	subeq	r4, fp, ip, asr #24
    180c:	4c4c5f5f 	stclmi	15, cr5, [ip], {95}	@ 0x5f
    1810:	55434341 	strbpl	r4, [r3, #-833]	@ 0xfffffcbf
    1814:	50455f4d 	subpl	r5, r5, sp, asr #30
    1818:	4f4c4953 	svcmi	0x004c4953
    181c:	205f5f4e 	subscs	r5, pc, lr, asr #30
    1820:	50317830 	eorspl	r7, r1, r0, lsr r8
    1824:	4c31332d 	ldcmi	3, cr3, [r1], #-180	@ 0xffffff4c
    1828:	5f004b4c 	svcpl	0x00004b4c
    182c:	4153555f 	cmpmi	r3, pc, asr r5
    1830:	4d554343 	ldclmi	3, cr4, [r5, #-268]	@ 0xfffffef4
    1834:	4e494d5f 	mcrmi	13, 2, r4, cr9, cr15, {2}
    1838:	30205f5f 	eorcc	r5, r0, pc, asr pc
    183c:	4855302e 	ldmdami	r5, {r1, r2, r3, r5, ip, sp}^
    1840:	5f5f004b 	svcpl	0x005f004b
    1844:	33544c46 	cmpcc	r4, #17920	@ 0x4600
    1848:	4d5f5832 	ldclmi	8, cr5, [pc, #-200]	@ 1788 <__max_heap_size+0x1388>
    184c:	5f544e41 	svcpl	0x00544e41
    1850:	5f474944 	svcpl	0x00474944
    1854:	3335205f 	teqcc	r5, #95	@ 0x5f
    1858:	4e5f5f00 	cdpmi	15, 5, cr5, cr15, cr0, {0}
    185c:	4e495f4f 	cdpmi	15, 4, cr5, cr9, cr15, {2}
    1860:	454e494c 	strbmi	r4, [lr, #-2380]	@ 0xfffff6b4
    1864:	31205f5f 			@ <UNDEFINED> instruction: 0x31205f5f
    1868:	415f5f00 	cmpmi	pc, r0, lsl #30
    186c:	465f4d52 			@ <UNDEFINED> instruction: 0x465f4d52
    1870:	55544145 	ldrbpl	r4, [r4, #-325]	@ 0xfffffebb
    1874:	435f4552 	cmpmi	pc, #343932928	@ 0x14800000
    1878:	4f52504f 	svcmi	0x0052504f
    187c:	5f5f0043 	svcpl	0x005f0043
    1880:	52464c55 	subpl	r4, r6, #21760	@ 0x5500
    1884:	5f544341 	svcpl	0x00544341
    1888:	5f4e494d 	svcpl	0x004e494d
    188c:	2e30205f 	mrccs	0, 1, r2, cr0, cr15, {2}
    1890:	524c5530 	subpl	r5, ip, #48, 10	@ 0xc000000
    1894:	465f5f00 	ldrbmi	r5, [pc], -r0, lsl #30
    1898:	4d5f544c 	ldclmi	4, cr5, [pc, #-304]	@ 1770 <__max_heap_size+0x1370>
    189c:	5f544e41 	svcpl	0x00544e41
    18a0:	5f474944 	svcpl	0x00474944
    18a4:	3432205f 	ldrtcc	r2, [r2], #-95	@ 0xffffffa1
    18a8:	415f5f00 	cmpmi	pc, r0, lsl #30
    18ac:	415f4d52 	cmpmi	pc, r2, asr sp	@ <UNPREDICTABLE>
    18b0:	00484352 	subeq	r4, r8, r2, asr r3
    18b4:	4c465f5f 	stclmi	15, cr5, [r6], {95}	@ 0x5f
    18b8:	5f343654 	svcpl	0x00343654
    18bc:	49434544 	stmdbmi	r3, {r2, r6, r8, sl, lr}^
    18c0:	5f4c414d 	svcpl	0x004c414d
    18c4:	5f474944 	svcpl	0x00474944
    18c8:	3731205f 			@ <UNDEFINED> instruction: 0x3731205f
    18cc:	475f5f00 	ldrbmi	r5, [pc, -r0, lsl #30]
    18d0:	485f4343 	ldmdami	pc, {r0, r1, r6, r8, r9, lr}^	@ <UNPREDICTABLE>
    18d4:	5f455641 	svcpl	0x00455641
    18d8:	434e5953 	cmpmi	lr, #1359872	@ 0x14c000
    18dc:	4d4f435f 	stclmi	3, cr4, [pc, #-380]	@ 1768 <__max_heap_size+0x1368>
    18e0:	45524150 	ldrbmi	r4, [r2, #-336]	@ 0xfffffeb0
    18e4:	444e415f 	strbmi	r4, [lr], #-351	@ 0xfffffea1
    18e8:	4157535f 	cmpmi	r7, pc, asr r3
    18ec:	20345f50 	eorscs	r5, r4, r0, asr pc
    18f0:	5f5f0031 	svcpl	0x005f0031
    18f4:	33544c46 	cmpcc	r4, #17920	@ 0x4600
    18f8:	494d5f32 	stmdbmi	sp, {r1, r4, r5, r8, r9, sl, fp, ip, lr}^
    18fc:	58455f4e 	stmdapl	r5, {r1, r2, r3, r6, r8, r9, sl, fp, ip, lr}^
    1900:	205f5f50 	subscs	r5, pc, r0, asr pc	@ <UNPREDICTABLE>
    1904:	32312d28 	eorscc	r2, r1, #40, 26	@ 0xa00
    1908:	5f002935 	svcpl	0x00002935
    190c:	4341555f 	cmpmi	r1, #398458880	@ 0x17c00000
    1910:	5f4d5543 	svcpl	0x004d5543
    1914:	54494249 	strbpl	r4, [r9], #-585	@ 0xfffffdb7
    1918:	31205f5f 			@ <UNDEFINED> instruction: 0x31205f5f
    191c:	5f5f0036 	svcpl	0x005f0036
    1920:	544e4955 	strbpl	r4, [lr], #-2389	@ 0xfffff6ab
    1924:	5341465f 	cmppl	r1, #99614720	@ 0x5f00000
    1928:	5f363154 	svcpl	0x00363154
    192c:	5f58414d 	svcpl	0x0058414d
    1930:	7830205f 	ldmdavc	r0!, {r0, r1, r2, r3, r4, r6, sp}
    1934:	66666666 	strbtvs	r6, [r6], -r6, ror #12
    1938:	66666666 	strbtvs	r6, [r6], -r6, ror #12
    193c:	5f5f0055 	svcpl	0x005f0055
    1940:	544e4955 	strbpl	r4, [lr], #-2389	@ 0xfffff6ab
    1944:	5341465f 	cmppl	r1, #99614720	@ 0x5f00000
    1948:	5f363154 	svcpl	0x00363154
    194c:	45505954 	ldrbmi	r5, [r0, #-2388]	@ 0xfffff6ac
    1950:	75205f5f 	strvc	r5, [r0, #-3935]!	@ 0xfffff0a1
    1954:	6769736e 	strbvs	r7, [r9, -lr, ror #6]!
    1958:	2064656e 	rsbcs	r6, r4, lr, ror #10
    195c:	00746e69 	rsbseq	r6, r4, r9, ror #28
    1960:	4c465f5f 	stclmi	15, cr5, [r6], {95}	@ 0x5f
    1964:	5f323354 	svcpl	0x00323354
    1968:	5f58414d 	svcpl	0x0058414d
    196c:	5f505845 	svcpl	0x00505845
    1970:	3231205f 	eorscc	r2, r1, #95	@ 0x5f
    1974:	5f5f0038 	svcpl	0x005f0038
    1978:	5f4c4244 	svcpl	0x004c4244
    197c:	5f4e494d 	svcpl	0x004e494d
    1980:	455f3031 	ldrbmi	r3, [pc, #-49]	@ 1957 <__max_heap_size+0x1557>
    1984:	5f5f5058 	svcpl	0x005f5058
    1988:	332d2820 			@ <UNDEFINED> instruction: 0x332d2820
    198c:	00293730 	eoreq	r3, r9, r0, lsr r7
    1990:	53555f5f 	cmppl	r5, #380	@ 0x17c
    1994:	55434341 	strbpl	r4, [r3, #-833]	@ 0xfffffcbf
    1998:	42495f4d 	submi	r5, r9, #308	@ 0x134
    199c:	5f5f5449 	svcpl	0x005f5449
    19a0:	5f003820 	svcpl	0x00003820
    19a4:	57454e5f 			@ <UNDEFINED> instruction: 0x57454e5f
    19a8:	5f42494c 	svcpl	0x0042494c
    19ac:	43544150 	cmpmi	r4, #80, 2
    19b0:	56454c48 	strbpl	r4, [r5], -r8, asr #24
    19b4:	5f5f4c45 	svcpl	0x005f4c45
    19b8:	5f003020 	svcpl	0x00003020
    19bc:	5548545f 	strbpl	r5, [r8, #-1119]	@ 0xfffffba1
    19c0:	495f424d 	ldmdbmi	pc, {r0, r2, r3, r6, r9, lr}^	@ <UNPREDICTABLE>
    19c4:	5245544e 	subpl	r5, r5, #1308622848	@ 0x4e000000
    19c8:	4b524f57 	blmi	149572c <__max_heap_size+0x149532c>
    19cc:	31205f5f 			@ <UNDEFINED> instruction: 0x31205f5f
    19d0:	465f5f00 	ldrbmi	r5, [pc], -r0, lsl #30
    19d4:	54434152 	strbpl	r4, [r3], #-338	@ 0xfffffeae
    19d8:	4942465f 	stmdbmi	r2, {r0, r1, r2, r3, r4, r6, r9, sl, lr}^
    19dc:	205f5f54 	subscs	r5, pc, r4, asr pc	@ <UNPREDICTABLE>
    19e0:	5f003531 	svcpl	0x00003531
    19e4:	5858475f 	ldmdapl	r8, {r0, r1, r2, r3, r4, r6, r8, r9, sl, lr}^
    19e8:	4942415f 	stmdbmi	r2, {r0, r1, r2, r3, r4, r6, r8, lr}^
    19ec:	5245565f 	subpl	r5, r5, #99614720	@ 0x5f00000
    19f0:	4e4f4953 			@ <UNDEFINED> instruction: 0x4e4f4953
    19f4:	31303120 	teqcc	r0, r0, lsr #2
    19f8:	5f5f0039 	svcpl	0x005f0039
    19fc:	36544c46 	ldrbcc	r4, [r4], -r6, asr #24
    1a00:	41485f34 	cmpmi	r8, r4, lsr pc
    1a04:	45445f53 	strbmi	r5, [r4, #-3923]	@ 0xfffff0ad
    1a08:	4d524f4e 	ldclmi	15, cr4, [r2, #-312]	@ 0xfffffec8
    1a0c:	31205f5f 			@ <UNDEFINED> instruction: 0x31205f5f
    1a10:	5f5f5f00 	svcpl	0x005f5f00
    1a14:	5f746e69 	svcpl	0x00746e69
    1a18:	7361656c 	cmnvc	r1, #108, 10	@ 0x1b000000
    1a1c:	5f343674 	svcpl	0x00343674
    1a20:	65645f74 	strbvs	r5, [r4, #-3956]!	@ 0xfffff08c
    1a24:	656e6966 	strbvs	r6, [lr, #-2406]!	@ 0xfffff69a
    1a28:	00312064 	eorseq	r2, r1, r4, rrx
    1a2c:	4c465f5f 	stclmi	15, cr5, [r6], {95}	@ 0x5f
    1a30:	56455f54 			@ <UNDEFINED> instruction: 0x56455f54
    1a34:	4d5f4c41 	ldclmi	12, cr4, [pc, #-260]	@ 1938 <__max_heap_size+0x1538>
    1a38:	4f485445 	svcmi	0x00485445
    1a3c:	205f5f44 	subscs	r5, pc, r4, asr #30
    1a40:	5f5f0030 	svcpl	0x005f0030
    1a44:	33544c46 	cmpcc	r4, #17920	@ 0x4600
    1a48:	485f5832 	ldmdami	pc, {r1, r4, r5, fp, ip, lr}^	@ <UNPREDICTABLE>
    1a4c:	445f5341 	ldrbmi	r5, [pc], #-833	@ 1a54 <__max_heap_size+0x1654>
    1a50:	524f4e45 	subpl	r4, pc, #1104	@ 0x450
    1a54:	205f5f4d 	subscs	r5, pc, sp, asr #30
    1a58:	495f0031 	ldmdbmi	pc, {r0, r4, r5}^	@ <UNPREDICTABLE>
    1a5c:	5450544e 	ldrbpl	r5, [r0], #-1102	@ 0xfffffbb2
    1a60:	51455f52 	cmppl	r5, r2, asr pc
    1a64:	544e495f 	strbpl	r4, [lr], #-2399	@ 0xfffff6a1
    1a68:	5f5f0020 	svcpl	0x005f0020
    1a6c:	5f544e49 	svcpl	0x00544e49
    1a70:	5341454c 	cmppl	r1, #76, 10	@ 0x13000000
    1a74:	5f343654 	svcpl	0x00343654
    1a78:	5f58414d 	svcpl	0x0058414d
    1a7c:	7830205f 	ldmdavc	r0!, {r0, r1, r2, r3, r4, r6, sp}
    1a80:	66666637 			@ <UNDEFINED> instruction: 0x66666637
    1a84:	66666666 	strbtvs	r6, [r6], -r6, ror #12
    1a88:	66666666 	strbtvs	r6, [r6], -r6, ror #12
    1a8c:	66666666 	strbtvs	r6, [r6], -r6, ror #12
    1a90:	49004c4c 	stmdbmi	r0, {r2, r3, r6, sl, fp, lr}
    1a94:	3233544e 	eorscc	r5, r3, #1308622848	@ 0x4e000000
    1a98:	4e494d5f 	mcrmi	13, 2, r4, cr9, cr15, {2}
    1a9c:	5f2d2820 	svcpl	0x002d2820
    1aa0:	544e495f 	strbpl	r4, [lr], #-2399	@ 0xfffff6a1
    1aa4:	4d5f3233 	ldclmi	2, cr3, [pc, #-204]	@ 19e0 <__max_heap_size+0x15e0>
    1aa8:	5f5f5841 	svcpl	0x005f5841
    1aac:	31202d20 			@ <UNDEFINED> instruction: 0x31202d20
    1ab0:	5f5f0029 	svcpl	0x005f0029
    1ab4:	55434341 	strbpl	r4, [r3, #-833]	@ 0xfffffcbf
    1ab8:	42465f4d 	submi	r5, r6, #308	@ 0x134
    1abc:	5f5f5449 	svcpl	0x005f5449
    1ac0:	00353120 	eorseq	r3, r5, r0, lsr #2
    1ac4:	5359535f 	cmppl	r9, #2080374785	@ 0x7c000001
    1ac8:	4e495f5f 	mcrmi	15, 2, r5, cr9, cr15, {2}
    1acc:	50555354 	subspl	r5, r5, r4, asr r3
    1ad0:	0020485f 	eoreq	r4, r0, pc, asr r8
    1ad4:	43475f5f 	cmpmi	r7, #380	@ 0x17c
    1ad8:	54415f43 	strbpl	r5, [r1], #-3907	@ 0xfffff0bd
    1adc:	43494d4f 	cmpmi	r9, #5056	@ 0x13c0
    1ae0:	4843575f 	stmdami	r3, {r0, r1, r2, r3, r4, r6, r8, r9, sl, ip, lr}^
    1ae4:	545f5241 	ldrbpl	r5, [pc], #-577	@ 1aec <__max_heap_size+0x16ec>
    1ae8:	434f4c5f 	cmpmi	pc, #24320	@ 0x5f00
    1aec:	52465f4b 	subpl	r5, r6, #300	@ 0x12c
    1af0:	32204545 	eorcc	r4, r0, #289406976	@ 0x11400000
    1af4:	555f5f00 	ldrbpl	r5, [pc, #-3840]	@ bfc <__max_heap_size+0x7fc>
    1af8:	4343414c 	cmpmi	r3, #76, 2
    1afc:	495f4d55 	ldmdbmi	pc, {r0, r2, r4, r6, r8, sl, fp, lr}^	@ <UNPREDICTABLE>
    1b00:	5f544942 	svcpl	0x00544942
    1b04:	3233205f 	eorscc	r2, r3, #95	@ 0x5f
    1b08:	48435700 	stmdami	r3, {r8, r9, sl, ip, lr}^
    1b0c:	4d5f5241 	ldclmi	2, cr5, [pc, #-260]	@ 1a10 <__max_heap_size+0x1610>
    1b10:	28205841 	stmdacs	r0!, {r0, r6, fp, ip, lr}
    1b14:	43575f5f 	cmpmi	r7, #380	@ 0x17c
    1b18:	5f524148 	svcpl	0x00524148
    1b1c:	5f58414d 	svcpl	0x0058414d
    1b20:	5f00295f 	svcpl	0x0000295f
    1b24:	464c4c5f 			@ <UNDEFINED> instruction: 0x464c4c5f
    1b28:	54434152 	strbpl	r4, [r3], #-338	@ 0xfffffeae
    1b2c:	4942465f 	stmdbmi	r2, {r0, r1, r2, r3, r4, r6, r9, sl, lr}^
    1b30:	205f5f54 	subscs	r5, pc, r4, asr pc	@ <UNPREDICTABLE>
    1b34:	5f003336 	svcpl	0x00003336
    1b38:	544c465f 	strbpl	r4, [ip], #-1631	@ 0xfffff9a1
    1b3c:	5f583233 	svcpl	0x00583233
    1b40:	5f4e494d 	svcpl	0x004e494d
    1b44:	5f505845 	svcpl	0x00505845
    1b48:	2d28205f 	stccs	0, cr2, [r8, #-380]!	@ 0xfffffe84
    1b4c:	31323031 	teqcc	r2, r1, lsr r0
    1b50:	5f5f0029 	svcpl	0x005f0029
    1b54:	5f544e49 	svcpl	0x00544e49
    1b58:	5341454c 	cmppl	r1, #76, 10	@ 0x13000000
    1b5c:	575f3854 			@ <UNDEFINED> instruction: 0x575f3854
    1b60:	48544449 	ldmdami	r4, {r0, r3, r6, sl, lr}^
    1b64:	38205f5f 	stmdacc	r0!, {r0, r1, r2, r3, r4, r6, r8, r9, sl, fp, ip, lr}
    1b68:	555f5f00 	ldrbpl	r5, [pc, #-3840]	@ c70 <__max_heap_size+0x870>
    1b6c:	465f4153 			@ <UNDEFINED> instruction: 0x465f4153
    1b70:	5f544942 	svcpl	0x00544942
    1b74:	3631205f 			@ <UNDEFINED> instruction: 0x3631205f
    1b78:	555f5f00 	ldrbpl	r5, [pc, #-3840]	@ c80 <__max_heap_size+0x880>
    1b7c:	38544e49 	ldmdacc	r4, {r0, r3, r6, r9, sl, fp, lr}^
    1b80:	58414d5f 	stmdapl	r1, {r0, r1, r2, r3, r4, r6, r8, sl, fp, lr}^
    1b84:	30205f5f 	eorcc	r5, r0, pc, asr pc
    1b88:	00666678 	rsbeq	r6, r6, r8, ror r6
    1b8c:	49555f5f 	ldmdbmi	r5, {r0, r1, r2, r3, r4, r6, r8, r9, sl, fp, ip, lr}^
    1b90:	3631544e 	ldrtcc	r5, [r1], -lr, asr #8
    1b94:	58414d5f 	stmdapl	r1, {r0, r1, r2, r3, r4, r6, r8, sl, fp, lr}^
    1b98:	30205f5f 	eorcc	r5, r0, pc, asr pc
    1b9c:	66666678 			@ <UNDEFINED> instruction: 0x66666678
    1ba0:	4e490066 	cdpmi	0, 4, cr0, cr9, cr6, {3}
    1ba4:	454c5f54 	strbmi	r5, [ip, #-3924]	@ 0xfffff0ac
    1ba8:	33545341 	cmpcc	r4, #67108865	@ 0x4000001
    1bac:	494d5f32 	stmdbmi	sp, {r1, r4, r5, r8, r9, sl, fp, ip, lr}^
    1bb0:	2d28204e 	stccs	0, cr2, [r8, #-312]!	@ 0xfffffec8
    1bb4:	4e495f5f 	mcrmi	15, 2, r5, cr9, cr15, {2}
    1bb8:	454c5f54 	strbmi	r5, [ip, #-3924]	@ 0xfffff0ac
    1bbc:	33545341 	cmpcc	r4, #67108865	@ 0x4000001
    1bc0:	414d5f32 	cmpmi	sp, r2, lsr pc
    1bc4:	205f5f58 	subscs	r5, pc, r8, asr pc	@ <UNPREDICTABLE>
    1bc8:	2931202d 	ldmdbcs	r1!, {r0, r2, r3, r5, sp}
    1bcc:	4e495500 	cdpmi	5, 4, cr5, cr9, cr0, {0}
    1bd0:	5f343654 	svcpl	0x00343654
    1bd4:	2058414d 	subscs	r4, r8, sp, asr #2
    1bd8:	555f5f28 	ldrbpl	r5, [pc, #-3880]	@ cb8 <__max_heap_size+0x8b8>
    1bdc:	36544e49 	ldrbcc	r4, [r4], -r9, asr #28
    1be0:	414d5f34 	cmpmi	sp, r4, lsr pc
    1be4:	295f5f58 	ldmdbcs	pc, {r3, r4, r6, r8, r9, sl, fp, ip, lr}^	@ <UNPREDICTABLE>
    1be8:	415f5f00 	cmpmi	pc, r0, lsl #30
    1bec:	465f4d52 			@ <UNDEFINED> instruction: 0x465f4d52
    1bf0:	55544145 	ldrbpl	r4, [r4, #-325]	@ 0xfffffebb
    1bf4:	4c5f4552 	ldclmi	5, cr4, [pc], {82}	@ 0x52
    1bf8:	58455244 	stmdapl	r5, {r2, r6, r9, ip, lr}^
    1bfc:	5f5f5f00 	svcpl	0x005f5f00
    1c00:	5f746e69 	svcpl	0x00746e69
    1c04:	7361656c 	cmnvc	r1, #108, 10	@ 0x1b000000
    1c08:	5f363174 	svcpl	0x00363174
    1c0c:	65645f74 	strbvs	r5, [r4, #-3956]!	@ 0xfffff08c
    1c10:	656e6966 	strbvs	r6, [lr, #-2406]!	@ 0xfffff69a
    1c14:	00312064 	eorseq	r2, r1, r4, rrx
    1c18:	54535f5f 	ldrbpl	r5, [r3], #-3935	@ 0xfffff0a1
    1c1c:	565f4344 	ldrbpl	r4, [pc], -r4, asr #6
    1c20:	49535245 	ldmdbmi	r3, {r0, r2, r6, r9, ip, lr}^
    1c24:	5f5f4e4f 	svcpl	0x005f4e4f
    1c28:	31303220 	teqcc	r0, r0, lsr #4
    1c2c:	4c323131 	ldcmi	1, cr3, [r2], #-196	@ 0xffffff3c
    1c30:	495f5f00 	ldmdbmi	pc, {r8, r9, sl, fp, ip, lr}^	@ <UNPREDICTABLE>
    1c34:	414d544e 	cmpmi	sp, lr, asr #8
    1c38:	49575f58 	ldmdbmi	r7, {r3, r4, r6, r8, r9, sl, fp, ip, lr}^
    1c3c:	5f485444 	svcpl	0x00485444
    1c40:	3436205f 	ldrtcc	r2, [r6], #-95	@ 0xffffffa1
    1c44:	415f5f00 	cmpmi	pc, r0, lsl #30
    1c48:	465f4d52 			@ <UNDEFINED> instruction: 0x465f4d52
    1c4c:	55544145 	ldrbpl	r4, [r4, #-325]	@ 0xfffffebb
    1c50:	435f4552 	cmpmi	pc, #343932928	@ 0x14800000
    1c54:	5f004544 	svcpl	0x00004544
    1c58:	52464c5f 	subpl	r4, r6, #24320	@ 0x5f00
    1c5c:	5f544341 	svcpl	0x00544341
    1c60:	54494246 	strbpl	r4, [r9], #-582	@ 0xfffffdba
    1c64:	33205f5f 			@ <UNDEFINED> instruction: 0x33205f5f
    1c68:	5f5f0031 	svcpl	0x005f0031
    1c6c:	5f544e49 	svcpl	0x00544e49
    1c70:	5341454c 	cmppl	r1, #76, 10	@ 0x13000000
    1c74:	5f363154 	svcpl	0x00363154
    1c78:	45505954 	ldrbmi	r5, [r0, #-2388]	@ 0xfffff6ac
    1c7c:	73205f5f 			@ <UNDEFINED> instruction: 0x73205f5f
    1c80:	74726f68 	ldrbtvc	r6, [r2], #-3944	@ 0xfffff098
    1c84:	746e6920 	strbtvc	r6, [lr], #-2336	@ 0xfffff6e0
    1c88:	465f5f00 	ldrbmi	r5, [pc], -r0, lsl #30
    1c8c:	3436544c 	ldrtcc	r5, [r6], #-1100	@ 0xfffffbb4
    1c90:	5341485f 	cmppl	r1, #6225920	@ 0x5f0000
    1c94:	4955515f 	ldmdbmi	r5, {r0, r1, r2, r3, r4, r6, r8, ip, lr}^
    1c98:	4e5f5445 	cdpmi	4, 5, cr5, cr15, cr5, {2}
    1c9c:	5f5f4e41 	svcpl	0x005f4e41
    1ca0:	5f003120 	svcpl	0x00003120
    1ca4:	4343475f 	cmpmi	r3, #24903680	@ 0x17c0000
    1ca8:	4f54415f 	svcmi	0x0054415f
    1cac:	5f43494d 	svcpl	0x0043494d
    1cb0:	52414843 	subpl	r4, r1, #4390912	@ 0x430000
    1cb4:	434f4c5f 	cmpmi	pc, #24320	@ 0x5f00
    1cb8:	52465f4b 	subpl	r5, r6, #300	@ 0x12c
    1cbc:	32204545 	eorcc	r4, r0, #289406976	@ 0x11400000
    1cc0:	415f5f00 	cmpmi	pc, r0, lsl #30
    1cc4:	4c494654 	stclmi	6, cr4, [r9], {84}	@ 0x54
    1cc8:	49565f45 	ldmdbmi	r6, {r0, r2, r6, r8, r9, sl, fp, ip, lr}^
    1ccc:	4c424953 			@ <UNDEFINED> instruction: 0x4c424953
    1cd0:	00302045 	eorseq	r2, r0, r5, asr #32
    1cd4:	42445f5f 	submi	r5, r4, #380	@ 0x17c
    1cd8:	49445f4c 	stmdbmi	r4, {r2, r3, r6, r8, r9, sl, fp, ip, lr}^
    1cdc:	205f5f47 	subscs	r5, pc, r7, asr #30
    1ce0:	5f003531 	svcpl	0x00003531
    1ce4:	6e695f5f 	mcrvs	15, 3, r5, cr9, cr15, {2}
    1ce8:	656c5f74 	strbvs	r5, [ip, #-3956]!	@ 0xfffff08c
    1cec:	33747361 	cmncc	r4, #-2080374783	@ 0x84000001
    1cf0:	5f745f32 	svcpl	0x00745f32
    1cf4:	69666564 	stmdbvs	r6!, {r2, r5, r6, r8, sl, sp, lr}^
    1cf8:	2064656e 	rsbcs	r6, r4, lr, ror #10
    1cfc:	5f5f0031 	svcpl	0x005f0031
    1d00:	454d5241 	strbmi	r5, [sp, #-577]	@ 0xfffffdbf
    1d04:	205f5f4c 	subscs	r5, pc, ip, asr #30
    1d08:	5f5f0031 	svcpl	0x005f0031
    1d0c:	5f4d5241 	svcpl	0x004d5241
    1d10:	48435241 	stmdami	r3, {r0, r6, r9, ip, lr}^
    1d14:	4153495f 	cmpmi	r3, pc, asr r9
    1d18:	5548545f 	strbpl	r5, [r8, #-1119]	@ 0xfffffba1
    1d1c:	5f00424d 	svcpl	0x0000424d
    1d20:	43414c5f 	cmpmi	r1, #24320	@ 0x5f00
    1d24:	5f4d5543 	svcpl	0x004d5543
    1d28:	54494246 	strbpl	r4, [r9], #-582	@ 0xfffffdba
    1d2c:	33205f5f 			@ <UNDEFINED> instruction: 0x33205f5f
    1d30:	5f5f0031 	svcpl	0x005f0031
    1d34:	53524556 	cmppl	r2, #360710144	@ 0x15800000
    1d38:	5f4e4f49 	svcpl	0x004e4f49
    1d3c:	3122205f 			@ <UNDEFINED> instruction: 0x3122205f
    1d40:	2e322e34 	mrccs	14, 1, r2, cr2, cr4, {1}
    1d44:	30322031 	eorscc	r2, r2, r1, lsr r0
    1d48:	31313432 	teqcc	r1, r2, lsr r4
    1d4c:	00223931 	eoreq	r3, r2, r1, lsr r9
    1d50:	4c465f5f 	stclmi	15, cr5, [r6], {95}	@ 0x5f
    1d54:	494d5f54 	stmdbmi	sp, {r2, r4, r6, r8, r9, sl, fp, ip, lr}^
    1d58:	205f5f4e 	subscs	r5, pc, lr, asr #30
    1d5c:	37312e31 			@ <UNDEFINED> instruction: 0x37312e31
    1d60:	34393435 	ldrtcc	r3, [r9], #-1077	@ 0xfffffbcb
    1d64:	38303533 	ldmdacc	r0!, {r0, r1, r4, r5, r8, sl, ip, sp}
    1d68:	38323232 	ldmdacc	r2!, {r1, r4, r5, r9, ip, sp}
    1d6c:	2d653537 	stclcs	5, cr3, [r5, #-220]!	@ 0xffffff24
    1d70:	00463833 	subeq	r3, r6, r3, lsr r8
    1d74:	43475f5f 	cmpmi	r7, #380	@ 0x17c
    1d78:	54415f43 	strbpl	r5, [r1], #-3907	@ 0xfffff0bd
    1d7c:	43494d4f 	cmpmi	r9, #5056	@ 0x13c0
    1d80:	4e4f4c5f 	mcrmi	12, 2, r4, cr15, cr15, {2}
    1d84:	4f4c5f47 	svcmi	0x004c5f47
    1d88:	465f4b43 	ldrbmi	r4, [pc], -r3, asr #22
    1d8c:	20454552 	subcs	r4, r5, r2, asr r5
    1d90:	5f5f0032 	svcpl	0x005f0032
    1d94:	33544c46 	cmpcc	r4, #17920	@ 0x4600
    1d98:	445f5832 	ldrbmi	r5, [pc], #-2098	@ 1da0 <__max_heap_size+0x19a0>
    1d9c:	5f5f4749 	svcpl	0x005f4749
    1da0:	00353120 	eorseq	r3, r5, r0, lsr #2
    1da4:	43415f5f 	cmpmi	r1, #380	@ 0x17c
    1da8:	5f4d5543 	svcpl	0x004d5543
    1dac:	49535045 	ldmdbmi	r3, {r0, r2, r6, ip, lr}^
    1db0:	5f4e4f4c 	svcpl	0x004e4f4c
    1db4:	7830205f 	ldmdavc	r0!, {r0, r1, r2, r3, r4, r6, sp}
    1db8:	312d5031 			@ <UNDEFINED> instruction: 0x312d5031
    1dbc:	49004b35 	stmdbmi	r0, {r0, r2, r4, r5, r8, r9, fp, lr}
    1dc0:	3631544e 	ldrtcc	r5, [r1], -lr, asr #8
    1dc4:	58414d5f 	stmdapl	r1, {r0, r1, r2, r3, r4, r6, r8, sl, fp, lr}^
    1dc8:	5f5f2820 	svcpl	0x005f2820
    1dcc:	31544e49 	cmpcc	r4, r9, asr #28
    1dd0:	414d5f36 	cmpmi	sp, r6, lsr pc
    1dd4:	295f5f58 	ldmdbcs	pc, {r3, r4, r6, r8, r9, sl, fp, ip, lr}^	@ <UNPREDICTABLE>
    1dd8:	555f5f00 	ldrbpl	r5, [pc, #-3840]	@ ee0 <__max_heap_size+0xae0>
    1ddc:	465f5144 	ldrbmi	r5, [pc], -r4, asr #2
    1de0:	5f544942 	svcpl	0x00544942
    1de4:	3436205f 	ldrtcc	r2, [r6], #-95	@ 0xffffffa1
    1de8:	495f5f00 	ldmdbmi	pc, {r8, r9, sl, fp, ip, lr}^	@ <UNPREDICTABLE>
    1dec:	465f544e 	ldrbmi	r5, [pc], -lr, asr #8
    1df0:	31545341 	cmpcc	r4, r1, asr #6
    1df4:	414d5f36 	cmpmi	sp, r6, lsr pc
    1df8:	205f5f58 	subscs	r5, pc, r8, asr pc	@ <UNPREDICTABLE>
    1dfc:	66377830 			@ <UNDEFINED> instruction: 0x66377830
    1e00:	66666666 	strbtvs	r6, [r6], -r6, ror #12
    1e04:	5f006666 	svcpl	0x00006666
    1e08:	746e695f 	strbtvc	r6, [lr], #-2399	@ 0xfffff6a1
    1e0c:	7361665f 	cmnvc	r1, #99614720	@ 0x5f00000
    1e10:	5f343674 	svcpl	0x00343674
    1e14:	65645f74 	strbvs	r5, [r4, #-3956]!	@ 0xfffff08c
    1e18:	656e6966 	strbvs	r6, [lr, #-2406]!	@ 0xfffff69a
    1e1c:	00312064 	eorseq	r2, r1, r4, rrx
    1e20:	52415f5f 	subpl	r5, r1, #380	@ 0x17c
    1e24:	52415f4d 	subpl	r5, r1, #308	@ 0x134
    1e28:	495f4843 	ldmdbmi	pc, {r0, r1, r6, fp, lr}^	@ <UNPREDICTABLE>
    1e2c:	545f4153 	ldrbpl	r4, [pc], #-339	@ 1e34 <__max_heap_size+0x1a34>
    1e30:	424d5548 	submi	r5, sp, #72, 10	@ 0x12000000
    1e34:	5f003220 	svcpl	0x00003220
    1e38:	544c465f 	strbpl	r4, [ip], #-1631	@ 0xfffff9a1
    1e3c:	445f3233 	ldrbmi	r3, [pc], #-563	@ 1e44 <__max_heap_size+0x1a44>
    1e40:	5f5f4749 	svcpl	0x005f4749
    1e44:	55003620 	strpl	r3, [r0, #-1568]	@ 0xfffff9e0
    1e48:	31544e49 	cmpcc	r4, r9, asr #28
    1e4c:	28435f36 	stmdacs	r3, {r1, r2, r4, r5, r8, r9, sl, fp, ip, lr}^
    1e50:	5f202978 	svcpl	0x00202978
    1e54:	4e49555f 	mcrmi	5, 2, r5, cr9, cr15, {2}
    1e58:	5f363154 	svcpl	0x00363154
    1e5c:	29782843 	ldmdbcs	r8!, {r0, r1, r6, fp, sp}^
    1e60:	555f5f00 	ldrbpl	r5, [pc, #-3840]	@ f68 <__max_heap_size+0xb68>
    1e64:	465f5154 			@ <UNDEFINED> instruction: 0x465f5154
    1e68:	5f544942 	svcpl	0x00544942
    1e6c:	3231205f 	eorscc	r2, r1, #95	@ 0x5f
    1e70:	5f5f0038 	svcpl	0x005f0038
    1e74:	52414843 	subpl	r4, r1, #4390912	@ 0x430000
    1e78:	5449425f 	strbpl	r4, [r9], #-607	@ 0xfffffda1
    1e7c:	38205f5f 	stmdacc	r0!, {r0, r1, r2, r3, r4, r6, r8, r9, sl, fp, ip, lr}
    1e80:	465f5f00 	ldrbmi	r5, [pc], -r0, lsl #30
    1e84:	3233544c 	eorscc	r5, r3, #76, 8	@ 0x4c000000
    1e88:	53495f58 	cmppl	r9, #88, 30	@ 0x160
    1e8c:	4345495f 	cmpmi	r5, #1556480	@ 0x17c000
    1e90:	3530365f 	ldrcc	r3, [r0, #-1631]!	@ 0xfffff9a1
    1e94:	5f5f3935 	svcpl	0x005f3935
    1e98:	5f003120 	svcpl	0x00003120
    1e9c:	544e495f 	strbpl	r4, [lr], #-2399	@ 0xfffff6a1
    1ea0:	41454c5f 	cmpmi	r5, pc, asr ip
    1ea4:	5f385453 	svcpl	0x00385453
    1ea8:	45505954 	ldrbmi	r5, [r0, #-2388]	@ 0xfffff6ac
    1eac:	73205f5f 			@ <UNDEFINED> instruction: 0x73205f5f
    1eb0:	656e6769 	strbvs	r6, [lr, #-1897]!	@ 0xfffff897
    1eb4:	68632064 	stmdavs	r3!, {r2, r5, r6, sp}^
    1eb8:	5f007261 	svcpl	0x00007261
    1ebc:	544e495f 	strbpl	r4, [lr], #-2399	@ 0xfffff6a1
    1ec0:	5f525450 	svcpl	0x00525450
    1ec4:	54444957 	strbpl	r4, [r4], #-2391	@ 0xfffff6a9
    1ec8:	205f5f48 	subscs	r5, pc, r8, asr #30
    1ecc:	5f003233 	svcpl	0x00003233
    1ed0:	4e49555f 	mcrmi	5, 2, r5, cr9, cr15, {2}
    1ed4:	454c5f54 	strbmi	r5, [ip, #-3924]	@ 0xfffff0ac
    1ed8:	38545341 	ldmdacc	r4, {r0, r6, r8, r9, ip, lr}^
    1edc:	5059545f 	subspl	r5, r9, pc, asr r4
    1ee0:	205f5f45 	subscs	r5, pc, r5, asr #30
    1ee4:	69736e75 	ldmdbvs	r3!, {r0, r2, r4, r5, r6, r9, sl, fp, sp, lr}^
    1ee8:	64656e67 	strbtvs	r6, [r5], #-3687	@ 0xfffff199
    1eec:	61686320 	cmnvs	r8, r0, lsr #6
    1ef0:	5f5f0072 	svcpl	0x005f0072
    1ef4:	4c42444c 	stclmi	4, cr4, [r2], {76}	@ 0x4c
    1ef8:	58414d5f 	stmdapl	r1, {r0, r1, r2, r3, r4, r6, r8, sl, fp, lr}^
    1efc:	31205f5f 			@ <UNDEFINED> instruction: 0x31205f5f
    1f00:	3739372e 	ldrcc	r3, [r9, -lr, lsr #14]!
    1f04:	31333936 	teqcc	r3, r6, lsr r9
    1f08:	36383433 			@ <UNDEFINED> instruction: 0x36383433
    1f0c:	35313332 	ldrcc	r3, [r1, #-818]!	@ 0xfffffcce
    1f10:	332b6537 			@ <UNDEFINED> instruction: 0x332b6537
    1f14:	004c3830 	subeq	r3, ip, r0, lsr r8
    1f18:	49465f5f 	stmdbmi	r6, {r0, r1, r2, r3, r4, r6, r8, r9, sl, fp, ip, lr}^
    1f1c:	4554494e 	ldrbmi	r4, [r4, #-2382]	@ 0xfffff6b2
    1f20:	54414d5f 	strbpl	r4, [r1], #-3423	@ 0xfffff2a1
    1f24:	4e4f5f48 	cdpmi	15, 4, cr5, cr15, cr8, {2}
    1f28:	5f5f594c 	svcpl	0x005f594c
    1f2c:	5f003020 	svcpl	0x00003020
    1f30:	4341535f 	cmpmi	r1, #2080374785	@ 0x7c000001
    1f34:	5f4d5543 	svcpl	0x004d5543
    1f38:	5f58414d 	svcpl	0x0058414d
    1f3c:	5830205f 	ldmdapl	r0!, {r0, r1, r2, r3, r4, r6, sp}
    1f40:	46464637 			@ <UNDEFINED> instruction: 0x46464637
    1f44:	48372d50 	ldmdami	r7!, {r4, r6, r8, sl, fp, sp}
    1f48:	5f5f004b 	svcpl	0x005f004b
    1f4c:	5f6d7261 	svcpl	0x006d7261
    1f50:	0031205f 	eorseq	r2, r1, pc, asr r0
    1f54:	57454e5f 			@ <UNDEFINED> instruction: 0x57454e5f
    1f58:	5f42494c 	svcpl	0x0042494c
    1f5c:	53524556 	cmppl	r2, #360710144	@ 0x15800000
    1f60:	204e4f49 	subcs	r4, lr, r9, asr #30
    1f64:	342e3422 	strtcc	r3, [lr], #-1058	@ 0xfffffbde
    1f68:	0022302e 	eoreq	r3, r2, lr, lsr #32
    1f6c:	444c5f5f 	strbmi	r5, [ip], #-3935	@ 0xfffff0a1
    1f70:	4d5f4c42 	ldclmi	12, cr4, [pc, #-264]	@ 1e70 <__max_heap_size+0x1a70>
    1f74:	5f544e41 	svcpl	0x00544e41
    1f78:	5f474944 	svcpl	0x00474944
    1f7c:	3335205f 	teqcc	r5, #95	@ 0x5f
    1f80:	545f5f00 	ldrbpl	r5, [pc], #-3840	@ 1f88 <__max_heap_size+0x1b88>
    1f84:	42495f51 	submi	r5, r9, #324	@ 0x144
    1f88:	5f5f5449 	svcpl	0x005f5449
    1f8c:	5f003020 	svcpl	0x00003020
    1f90:	4148555f 	cmpmi	r8, pc, asr r5
    1f94:	4942465f 	stmdbmi	r2, {r0, r1, r2, r3, r4, r6, r9, sl, lr}^
    1f98:	205f5f54 	subscs	r5, pc, r4, asr pc	@ <UNPREDICTABLE>
    1f9c:	5f5f0038 	svcpl	0x005f0038
    1fa0:	5f434347 	svcpl	0x00434347
    1fa4:	5f4d5341 	svcpl	0x004d5341
    1fa8:	47414c46 	strbmi	r4, [r1, -r6, asr #24]
    1fac:	54554f5f 	ldrbpl	r4, [r5], #-3935	@ 0xfffff0a1
    1fb0:	53545550 	cmppl	r4, #80, 10	@ 0x14000000
    1fb4:	31205f5f 			@ <UNDEFINED> instruction: 0x31205f5f
    1fb8:	4e495500 	cdpmi	5, 4, cr5, cr9, cr0, {0}
    1fbc:	435f3854 	cmpmi	pc, #84, 16	@ 0x540000
    1fc0:	20297828 	eorcs	r7, r9, r8, lsr #16
    1fc4:	49555f5f 	ldmdbmi	r5, {r0, r1, r2, r3, r4, r6, r8, r9, sl, fp, ip, lr}^
    1fc8:	5f38544e 	svcpl	0x0038544e
    1fcc:	29782843 	ldmdbcs	r8!, {r0, r1, r6, fp, sp}^
    1fd0:	544e4900 	strbpl	r4, [lr], #-2304	@ 0xfffff700
    1fd4:	5341465f 	cmppl	r1, #99614720	@ 0x5f00000
    1fd8:	5f363154 	svcpl	0x00363154
    1fdc:	2058414d 	subscs	r4, r8, sp, asr #2
    1fe0:	495f5f28 	ldmdbmi	pc, {r3, r5, r8, r9, sl, fp, ip, lr}^	@ <UNPREDICTABLE>
    1fe4:	465f544e 	ldrbmi	r5, [pc], -lr, asr #8
    1fe8:	31545341 	cmpcc	r4, r1, asr #6
    1fec:	414d5f36 	cmpmi	sp, r6, lsr pc
    1ff0:	295f5f58 	ldmdbcs	pc, {r3, r4, r6, r8, r9, sl, fp, ip, lr}^	@ <UNPREDICTABLE>
    1ff4:	455f5f00 	ldrbmi	r5, [pc, #-3840]	@ 10fc <__max_heap_size+0xcfc>
    1ff8:	5f5f464c 	svcpl	0x005f464c
    1ffc:	5f003120 	svcpl	0x00003120
    2000:	4d52415f 	ldclmi	1, cr4, [r2, #-380]	@ 0xfffffe84
    2004:	4352415f 	cmpmi	r2, #-1073741801	@ 0xc0000017
    2008:	52505f48 	subspl	r5, r0, #72, 30	@ 0x120
    200c:	4c49464f 	stclmi	6, cr4, [r9], {79}	@ 0x4f
    2010:	5f5f0045 	svcpl	0x005f0045
    2014:	31544e49 	cmpcc	r4, r9, asr #28
    2018:	28435f36 	stmdacs	r3, {r1, r2, r4, r5, r8, r9, sl, fp, ip, lr}^
    201c:	63202963 			@ <UNDEFINED> instruction: 0x63202963
    2020:	475f5f00 	ldrbmi	r5, [pc, -r0, lsl #30]
    2024:	485f4343 	ldmdami	pc, {r0, r1, r6, r8, r9, lr}^	@ <UNPREDICTABLE>
    2028:	5f455641 	svcpl	0x00455641
    202c:	52415744 	subpl	r5, r1, #68, 14	@ 0x1100000
    2030:	435f3246 	cmpmi	pc, #1610612740	@ 0x60000004
    2034:	415f4946 	cmpmi	pc, r6, asr #18
    2038:	31204d53 			@ <UNDEFINED> instruction: 0x31204d53
    203c:	555f5f00 	ldrbpl	r5, [pc, #-3840]	@ 1144 <__max_heap_size+0xd44>
    2040:	36544e49 	ldrbcc	r4, [r4], -r9, asr #28
    2044:	414d5f34 	cmpmi	sp, r4, lsr pc
    2048:	205f5f58 	subscs	r5, pc, r8, asr pc	@ <UNPREDICTABLE>
    204c:	66667830 			@ <UNDEFINED> instruction: 0x66667830
    2050:	66666666 	strbtvs	r6, [r6], -r6, ror #12
    2054:	66666666 	strbtvs	r6, [r6], -r6, ror #12
    2058:	66666666 	strbtvs	r6, [r6], -r6, ror #12
    205c:	4c556666 	ldclmi	6, cr6, [r5], {102}	@ 0x66
    2060:	5f5f004c 	svcpl	0x005f004c
    2064:	4343414c 	cmpmi	r3, #76, 2
    2068:	4d5f4d55 	ldclmi	13, cr4, [pc, #-340]	@ 1f1c <__max_heap_size+0x1b1c>
    206c:	5f5f5841 	svcpl	0x005f5841
    2070:	37583020 	ldrbcc	r3, [r8, -r0, lsr #32]
    2074:	46464646 	strbmi	r4, [r6], -r6, asr #12
    2078:	46464646 	strbmi	r4, [r6], -r6, asr #12
    207c:	46464646 	strbmi	r4, [r6], -r6, asr #12
    2080:	50464646 	subpl	r4, r6, r6, asr #12
    2084:	4c31332d 	ldcmi	3, cr3, [r1], #-180	@ 0xffffff4c
    2088:	5f5f004b 	svcpl	0x005f004b
    208c:	5f544e49 	svcpl	0x00544e49
    2090:	54534146 	ldrbpl	r4, [r3], #-326	@ 0xfffffeba
    2094:	4d5f3233 	ldclmi	2, cr3, [pc, #-204]	@ 1fd0 <__max_heap_size+0x1bd0>
    2098:	5f5f5841 	svcpl	0x005f5841
    209c:	37783020 	ldrbcc	r3, [r8, -r0, lsr #32]!
    20a0:	66666666 	strbtvs	r6, [r6], -r6, ror #12
    20a4:	00666666 	rsbeq	r6, r6, r6, ror #12
    20a8:	53555f5f 	cmppl	r5, #380	@ 0x17c
    20ac:	43415246 	cmpmi	r1, #1610612740	@ 0x60000004
    20b0:	50455f54 	subpl	r5, r5, r4, asr pc
    20b4:	4f4c4953 	svcmi	0x004c4953
    20b8:	205f5f4e 	subscs	r5, pc, lr, asr #30
    20bc:	50317830 	eorspl	r7, r1, r0, lsr r8
    20c0:	4855382d 	ldmdami	r5, {r0, r2, r3, r5, fp, ip, sp}^
    20c4:	5f5f0052 	svcpl	0x005f0052
    20c8:	4d4f5441 	stclmi	4, cr5, [pc, #-260]	@ 1fcc <__max_heap_size+0x1bcc>
    20cc:	415f4349 	cmpmi	pc, r9, asr #6
    20d0:	49555143 	ldmdbmi	r5, {r0, r1, r6, r8, ip, lr}^
    20d4:	32204552 	eorcc	r4, r0, #343932928	@ 0x14800000
    20d8:	52545000 	subspl	r5, r4, #0
    20dc:	46464944 	strbmi	r4, [r6], -r4, asr #18
    20e0:	58414d5f 	stmdapl	r1, {r0, r1, r2, r3, r4, r6, r8, sl, fp, lr}^
    20e4:	5f5f2820 	svcpl	0x005f2820
    20e8:	44525450 	ldrbmi	r5, [r2], #-1104	@ 0xfffffbb0
    20ec:	5f464649 	svcpl	0x00464649
    20f0:	5f58414d 	svcpl	0x0058414d
    20f4:	5f00295f 	svcpl	0x0000295f
    20f8:	544e4955 	strbpl	r4, [lr], #-2389	@ 0xfffff6ab
    20fc:	5f58414d 	svcpl	0x0058414d
    2100:	45445f54 	strbmi	r5, [r4, #-3924]	@ 0xfffff0ac
    2104:	52414c43 	subpl	r4, r1, #17152	@ 0x4300
    2108:	00204445 	eoreq	r4, r0, r5, asr #8
    210c:	52415f5f 	subpl	r5, r1, #380	@ 0x17c
    2110:	45465f4d 	strbmi	r5, [r6, #-3917]	@ 0xfffff0b3
    2114:	52555441 	subspl	r5, r5, #1090519040	@ 0x41000000
    2118:	4f435f45 	svcmi	0x00435f45
    211c:	434f5250 	cmpmi	pc, #80, 4
    2120:	00353120 	eorseq	r3, r5, r0, lsr #2
    2124:	54535f5f 	ldrbpl	r5, [r3], #-3935	@ 0xfffff0a1
    2128:	5f5f4344 	svcpl	0x005f4344
    212c:	5f003120 	svcpl	0x00003120
    2130:	4341555f 	cmpmi	r1, #398458880	@ 0x17c00000
    2134:	5f4d5543 	svcpl	0x004d5543
    2138:	54494246 	strbpl	r4, [r9], #-582	@ 0xfffffdba
    213c:	31205f5f 			@ <UNDEFINED> instruction: 0x31205f5f
    2140:	5f5f0036 	svcpl	0x005f0036
    2144:	32746e69 	rsbscc	r6, r4, #1680	@ 0x690
    2148:	322b2030 	eorcc	r2, fp, #48	@ 0x30
    214c:	445f5f00 	ldrbmi	r5, [pc], #-3840	@ 2154 <__max_heap_size+0x1d54>
    2150:	4d5f4c42 	ldclmi	12, cr4, [pc, #-264]	@ 2050 <__max_heap_size+0x1c50>
    2154:	455f5841 	ldrbmi	r5, [pc, #-2113]	@ 191b <__max_heap_size+0x151b>
    2158:	5f5f5058 	svcpl	0x005f5058
    215c:	32303120 	eorscc	r3, r0, #32, 2
    2160:	49530034 	ldmdbmi	r3, {r2, r4, r5}^
    2164:	54415f47 	strbpl	r5, [r1], #-3911	@ 0xfffff0b9
    2168:	43494d4f 	cmpmi	r9, #5056	@ 0x13c0
    216c:	4e494d5f 	mcrmi	13, 2, r4, cr9, cr15, {2}
    2170:	5f2d2820 	svcpl	0x002d2820
    2174:	4454535f 	ldrbmi	r5, [r4], #-863	@ 0xfffffca1
    2178:	5f544e49 	svcpl	0x00544e49
    217c:	28505845 	ldmdacs	r0, {r0, r2, r6, fp, ip, lr}^
    2180:	5f544e49 	svcpl	0x00544e49
    2184:	2958414d 	ldmdbcs	r8, {r0, r2, r3, r6, r8, lr}^
    2188:	31202d20 			@ <UNDEFINED> instruction: 0x31202d20
    218c:	5f5f0029 	svcpl	0x005f0029
    2190:	4d4f5441 	stclmi	4, cr5, [pc, #-260]	@ 2094 <__max_heap_size+0x1c94>
    2194:	435f4349 	cmpmi	pc, #603979777	@ 0x24000001
    2198:	55534e4f 	ldrbpl	r4, [r3, #-3663]	@ 0xfffff1b1
    219c:	3120454d 			@ <UNDEFINED> instruction: 0x3120454d
    21a0:	495f5f00 	ldmdbmi	pc, {r8, r9, sl, fp, ip, lr}^	@ <UNPREDICTABLE>
    21a4:	465f544e 	ldrbmi	r5, [pc], -lr, asr #8
    21a8:	33545341 	cmpcc	r4, #67108865	@ 0x4000001
    21ac:	49575f32 	ldmdbmi	r7, {r1, r4, r5, r8, r9, sl, fp, ip, lr}^
    21b0:	5f485444 	svcpl	0x00485444
    21b4:	3233205f 	eorscc	r2, r3, #95	@ 0x5f
    21b8:	415f5f00 	cmpmi	pc, r0, lsl #30
    21bc:	425f4d52 	subsmi	r4, pc, #5248	@ 0x1480
    21c0:	5f363146 	svcpl	0x00363146
    21c4:	4d524f46 	ldclmi	15, cr4, [r2, #-280]	@ 0xfffffee8
    21c8:	415f5441 	cmpmi	pc, r1, asr #8
    21cc:	5245544c 	subpl	r5, r5, #76, 8	@ 0x4c000000
    21d0:	4954414e 	ldmdbmi	r4, {r1, r2, r3, r6, r8, lr}^
    21d4:	49004556 	stmdbmi	r0, {r1, r2, r4, r6, r8, sl, lr}
    21d8:	465f544e 	ldrbmi	r5, [pc], -lr, asr #8
    21dc:	31545341 	cmpcc	r4, r1, asr #6
    21e0:	494d5f36 	stmdbmi	sp, {r1, r2, r4, r5, r8, r9, sl, fp, ip, lr}^
    21e4:	2d28204e 	stccs	0, cr2, [r8, #-312]!	@ 0xfffffec8
    21e8:	4e495f5f 	mcrmi	15, 2, r5, cr9, cr15, {2}
    21ec:	41465f54 	cmpmi	r6, r4, asr pc
    21f0:	36315453 			@ <UNDEFINED> instruction: 0x36315453
    21f4:	58414d5f 	stmdapl	r1, {r0, r1, r2, r3, r4, r6, r8, sl, fp, lr}^
    21f8:	2d205f5f 	stccs	15, cr5, [r0, #-380]!	@ 0xfffffe84
    21fc:	00293120 	eoreq	r3, r9, r0, lsr #2
    2200:	49575f5f 	ldmdbmi	r7, {r0, r1, r2, r3, r4, r6, r8, r9, sl, fp, ip, lr}^
    2204:	545f544e 	ldrbpl	r5, [pc], #-1102	@ 220c <__max_heap_size+0x1e0c>
    2208:	5f455059 	svcpl	0x00455059
    220c:	6e75205f 	mrcvs	0, 3, r2, cr5, cr15, {2}
    2210:	6e676973 			@ <UNDEFINED> instruction: 0x6e676973
    2214:	69206465 	stmdbvs	r0!, {r0, r2, r5, r6, sl, sp, lr}
    2218:	5f00746e 	svcpl	0x0000746e
    221c:	4e4f4c5f 	mcrmi	12, 2, r4, cr15, cr15, {2}
    2220:	414d5f47 	cmpmi	sp, r7, asr #30
    2224:	205f5f58 	subscs	r5, pc, r8, asr pc	@ <UNPREDICTABLE>
    2228:	66377830 			@ <UNDEFINED> instruction: 0x66377830
    222c:	66666666 	strbtvs	r6, [r6], -r6, ror #12
    2230:	004c6666 	subeq	r6, ip, r6, ror #12
    2234:	4e495f5f 	mcrmi	15, 2, r5, cr9, cr15, {2}
    2238:	5f363154 	svcpl	0x00363154
    223c:	5f58414d 	svcpl	0x0058414d
    2240:	7830205f 	ldmdavc	r0!, {r0, r1, r2, r3, r4, r6, sp}
    2244:	66666637 			@ <UNDEFINED> instruction: 0x66666637
    2248:	555f5f00 	ldrbpl	r5, [pc, #-3840]	@ 1350 <__max_heap_size+0xf50>
    224c:	4152464c 	cmpmi	r2, ip, asr #12
    2250:	465f5443 	ldrbmi	r5, [pc], -r3, asr #8
    2254:	5f544942 	svcpl	0x00544942
    2258:	3233205f 	eorscc	r2, r3, #95	@ 0x5f
    225c:	535f5f00 	cmppl	pc, #0, 30
    2260:	52414843 	subpl	r4, r1, #4390912	@ 0x430000
    2264:	4449575f 	strbmi	r5, [r9], #-1887	@ 0xfffff8a1
    2268:	5f5f4854 	svcpl	0x005f4854
    226c:	5f003820 	svcpl	0x00003820
    2270:	4343415f 	cmpmi	r3, #-1073741801	@ 0xc0000017
    2274:	4d5f4d55 	ldclmi	13, cr4, [pc, #-340]	@ 2128 <__max_heap_size+0x1d28>
    2278:	5f5f4e49 	svcpl	0x005f4e49
    227c:	302d2820 	eorcc	r2, sp, r0, lsr #16
    2280:	31503158 	cmpcc	r0, r8, asr r1
    2284:	302d4b35 	eorcc	r4, sp, r5, lsr fp
    2288:	31503158 	cmpcc	r0, r8, asr r1
    228c:	00294b35 	eoreq	r4, r9, r5, lsr fp
    2290:	49535f5f 	ldmdbmi	r3, {r0, r1, r2, r3, r4, r6, r8, r9, sl, fp, ip, lr}^
    2294:	464f455a 			@ <UNDEFINED> instruction: 0x464f455a
    2298:	554f445f 	strbpl	r4, [pc, #-1119]	@ 1e41 <__max_heap_size+0x1a41>
    229c:	5f454c42 	svcpl	0x00454c42
    22a0:	0038205f 	eorseq	r2, r8, pc, asr r0
    22a4:	4e475f5f 	mcrmi	15, 2, r5, cr7, cr15, {2}
    22a8:	505f4355 	subspl	r4, pc, r5, asr r3	@ <UNPREDICTABLE>
    22ac:	48435441 	stmdami	r3, {r0, r6, sl, ip, lr}^
    22b0:	4556454c 	ldrbmi	r4, [r6, #-1356]	@ 0xfffffab4
    22b4:	205f5f4c 	subscs	r5, pc, ip, asr #30
    22b8:	4e490031 	mcrmi	0, 2, r0, cr9, cr1, {1}
    22bc:	5f343654 	svcpl	0x00343654
    22c0:	204e494d 	subcs	r4, lr, sp, asr #18
    22c4:	5f5f2d28 	svcpl	0x005f2d28
    22c8:	36544e49 	ldrbcc	r4, [r4], -r9, asr #28
    22cc:	414d5f34 	cmpmi	sp, r4, lsr pc
    22d0:	205f5f58 	subscs	r5, pc, r8, asr pc	@ <UNPREDICTABLE>
    22d4:	2931202d 	ldmdbcs	r1!, {r0, r2, r3, r5, sp}
    22d8:	475f5f00 	ldrbmi	r5, [pc, -r0, lsl #30]
    22dc:	545f5858 	ldrbpl	r5, [pc], #-2136	@ 22e4 <__max_heap_size+0x1ee4>
    22e0:	49455059 	stmdbmi	r5, {r0, r3, r4, r6, ip, lr}^
    22e4:	5f4f464e 	svcpl	0x004f464e
    22e8:	41555145 	cmpmi	r5, r5, asr #2
    22ec:	5954494c 	ldmdbpl	r4, {r2, r3, r6, r8, fp, lr}^
    22f0:	4c4e495f 			@ <UNDEFINED> instruction: 0x4c4e495f
    22f4:	20454e49 	subcs	r4, r5, r9, asr #28
    22f8:	5f5f0030 	svcpl	0x005f0030
    22fc:	43415246 	cmpmi	r1, #1610612740	@ 0x60000004
    2300:	414d5f54 	cmpmi	sp, r4, asr pc
    2304:	205f5f58 	subscs	r5, pc, r8, asr pc	@ <UNPREDICTABLE>
    2308:	46375830 			@ <UNDEFINED> instruction: 0x46375830
    230c:	2d504646 	ldclcs	6, cr4, [r0, #-280]	@ 0xfffffee8
    2310:	00523531 	subseq	r3, r2, r1, lsr r5
    2314:	4e495f5f 	mcrmi	15, 2, r5, cr9, cr15, {2}
    2318:	5f343654 	svcpl	0x00343654
    231c:	45505954 	ldrbmi	r5, [r0, #-2388]	@ 0xfffff6ac
    2320:	6c205f5f 	stcvs	15, cr5, [r0], #-380	@ 0xfffffe84
    2324:	20676e6f 	rsbcs	r6, r7, pc, ror #28
    2328:	676e6f6c 	strbvs	r6, [lr, -ip, ror #30]!
    232c:	746e6920 	strbtvc	r6, [lr], #-2336	@ 0xfffff6e0
    2330:	555f5f00 	ldrbpl	r5, [pc, #-3840]	@ 1438 <__max_heap_size+0x1038>
    2334:	4343414c 	cmpmi	r3, #76, 2
    2338:	465f4d55 			@ <UNDEFINED> instruction: 0x465f4d55
    233c:	5f544942 	svcpl	0x00544942
    2340:	3233205f 	eorscc	r2, r3, #95	@ 0x5f
    2344:	465f5f00 	ldrbmi	r5, [pc], -r0, lsl #30
    2348:	4e5f544c 	cdpmi	4, 5, cr5, cr15, cr12, {2}
    234c:	5f4d524f 	svcpl	0x004d524f
    2350:	5f58414d 	svcpl	0x0058414d
    2354:	2e33205f 	mrccs	0, 1, r2, cr3, cr15, {2}
    2358:	38323034 	ldmdacc	r2!, {r2, r4, r5, ip, sp}
    235c:	36343332 			@ <UNDEFINED> instruction: 0x36343332
    2360:	35383336 	ldrcc	r3, [r8, #-822]!	@ 0xfffffcca
    2364:	36383832 			@ <UNDEFINED> instruction: 0x36383832
    2368:	38332b65 	ldmdacc	r3!, {r0, r2, r5, r6, r8, r9, fp, sp}
    236c:	5f5f0046 	svcpl	0x005f0046
    2370:	41524655 	cmpmi	r2, r5, asr r6
    2374:	4d5f5443 	ldclmi	4, cr5, [pc, #-268]	@ 2270 <__max_heap_size+0x1e70>
    2378:	5f5f4e49 	svcpl	0x005f4e49
    237c:	302e3020 	eorcc	r3, lr, r0, lsr #32
    2380:	5f005255 	svcpl	0x00005255
    2384:	4d544e49 	ldclmi	14, cr4, [r4, #-292]	@ 0xfffffedc
    2388:	545f5841 	ldrbpl	r5, [pc], #-2113	@ 2390 <__max_heap_size+0x1f90>
    238c:	4345445f 	cmpmi	r5, #1593835520	@ 0x5f000000
    2390:	4552414c 	ldrbmi	r4, [r2, #-332]	@ 0xfffffeb4
    2394:	5f002044 	svcpl	0x00002044
    2398:	544e495f 	strbpl	r4, [lr], #-2399	@ 0xfffff6a1
    239c:	68222038 	stmdavs	r2!, {r3, r4, r5, sp}
    23a0:	5f002268 	svcpl	0x00002268
    23a4:	4d52415f 	ldclmi	1, cr4, [r2, #-380]	@ 0xfffffe84
    23a8:	4f454e5f 	svcmi	0x00454e5f
    23ac:	50465f4e 	subpl	r5, r6, lr, asr #30
    23b0:	4e495f00 	cdpmi	15, 4, cr5, cr9, cr0, {0}
    23b4:	5f363154 	svcpl	0x00363154
    23b8:	45445f54 	strbmi	r5, [r4, #-3924]	@ 0xfffff0ac
    23bc:	52414c43 	subpl	r4, r1, #17152	@ 0x4300
    23c0:	00204445 	eoreq	r4, r0, r5, asr #8
    23c4:	54535f5f 	ldrbpl	r5, [r3], #-3935	@ 0xfffff0a1
    23c8:	555f4344 	ldrbpl	r4, [pc, #-836]	@ 208c <__max_heap_size+0x1c8c>
    23cc:	315f4654 	cmpcc	pc, r4, asr r6	@ <UNPREDICTABLE>
    23d0:	205f5f36 	subscs	r5, pc, r6, lsr pc	@ <UNPREDICTABLE>
    23d4:	5f5f0031 	svcpl	0x005f0031
    23d8:	414c4c55 	cmpmi	ip, r5, asr ip
    23dc:	4d554343 	ldclmi	3, cr4, [r5, #-268]	@ 0xfffffef4
    23e0:	4942495f 	stmdbmi	r2, {r0, r1, r2, r3, r4, r6, r8, fp, lr}^
    23e4:	205f5f54 	subscs	r5, pc, r4, asr pc	@ <UNPREDICTABLE>
    23e8:	55003233 	strpl	r3, [r0, #-563]	@ 0xfffffdcd
    23ec:	33544e49 	cmpcc	r4, #1168	@ 0x490
    23f0:	28435f32 	stmdacs	r3, {r1, r4, r5, r8, r9, sl, fp, ip, lr}^
    23f4:	5f202978 	svcpl	0x00202978
    23f8:	4e49555f 	mcrmi	5, 2, r5, cr9, cr15, {2}
    23fc:	5f323354 	svcpl	0x00323354
    2400:	29782843 	ldmdbcs	r8!, {r0, r1, r6, fp, sp}^
    2404:	465f5f00 	ldrbmi	r5, [pc], -r0, lsl #30
    2408:	54434152 	strbpl	r4, [r3], #-338	@ 0xfffffeae
    240c:	4942495f 	stmdbmi	r2, {r0, r1, r2, r3, r4, r6, r8, fp, lr}^
    2410:	205f5f54 	subscs	r5, pc, r4, asr pc	@ <UNPREDICTABLE>
    2414:	5f5f0030 	svcpl	0x005f0030
    2418:	44495653 	strbmi	r5, [r9], #-1619	@ 0xfffff9ad
    241c:	5349565f 	cmppl	r9, #99614720	@ 0x5f00000
    2420:	454c4249 	strbmi	r4, [ip, #-585]	@ 0xfffffdb7
    2424:	5f003020 	svcpl	0x00003020
    2428:	42444c5f 	submi	r4, r4, #24320	@ 0x5f00
    242c:	494d5f4c 	stmdbmi	sp, {r2, r3, r6, r8, r9, sl, fp, ip, lr}^
    2430:	205f5f4e 	subscs	r5, pc, lr, asr #30
    2434:	32322e32 	eorscc	r2, r2, #800	@ 0x320
    2438:	33373035 	teqcc	r7, #53	@ 0x35
    243c:	35383538 	ldrcc	r3, [r8, #-1336]!	@ 0xfffffac8
    2440:	30323730 	eorscc	r3, r2, r0, lsr r7
    2444:	2d653431 	stclcs	4, cr3, [r5, #-196]!	@ 0xffffff3c
    2448:	4c383033 	ldcmi	0, cr3, [r8], #-204	@ 0xffffff34
    244c:	4c5f5f00 	ldclmi	15, cr5, [pc], {-0}
    2450:	5f4c4244 	svcpl	0x004c4244
    2454:	5f534148 	svcpl	0x00534148
    2458:	49464e49 	stmdbmi	r6, {r0, r3, r6, r9, sl, fp, lr}^
    245c:	5954494e 	ldmdbpl	r4, {r1, r2, r3, r6, r8, fp, lr}^
    2460:	31205f5f 			@ <UNDEFINED> instruction: 0x31205f5f
    2464:	475f5f00 	ldrbmi	r5, [pc, -r0, lsl #30]
    2468:	495f4343 	ldmdbmi	pc, {r0, r1, r6, r8, r9, lr}^	@ <UNPREDICTABLE>
    246c:	355f4345 	ldrbcc	r4, [pc, #-837]	@ 212f <__max_heap_size+0x1d2f>
    2470:	435f3935 	cmpmi	pc, #868352	@ 0xd4000
    2474:	4c504d4f 	ldclmi	13, cr4, [r0], {79}	@ 0x4f
    2478:	30205845 	eorcc	r5, r0, r5, asr #16
    247c:	555f5f00 	ldrbpl	r5, [pc, #-3840]	@ 1584 <__max_heap_size+0x1184>
    2480:	33544e49 	cmpcc	r4, #1168	@ 0x490
    2484:	414d5f32 	cmpmi	sp, r2, lsr pc
    2488:	205f5f58 	subscs	r5, pc, r8, asr pc	@ <UNPREDICTABLE>
    248c:	66667830 			@ <UNDEFINED> instruction: 0x66667830
    2490:	66666666 	strbtvs	r6, [r6], -r6, ror #12
    2494:	4c556666 	ldclmi	6, cr6, [r5], {102}	@ 0x66
    2498:	695f5f00 	ldmdbvs	pc, {r8, r9, sl, fp, ip, lr}^	@ <UNPREDICTABLE>
    249c:	665f746e 	ldrbvs	r7, [pc], -lr, ror #8
    24a0:	38747361 	ldmdacc	r4!, {r0, r5, r6, r8, r9, ip, sp, lr}^
    24a4:	645f745f 	ldrbvs	r7, [pc], #-1119	@ 24ac <__max_heap_size+0x20ac>
    24a8:	6e696665 	cdpvs	6, 6, cr6, cr9, cr5, {3}
    24ac:	31206465 			@ <UNDEFINED> instruction: 0x31206465
    24b0:	4c5f5f00 	ldclmi	15, cr5, [pc], {-0}
    24b4:	5f4c4244 	svcpl	0x004c4244
    24b8:	5f4e494d 	svcpl	0x004e494d
    24bc:	5f505845 	svcpl	0x00505845
    24c0:	2d28205f 	stccs	0, cr2, [r8, #-380]!	@ 0xfffffe84
    24c4:	31323031 	teqcc	r2, r1, lsr r0
    24c8:	43520029 	cmpmi	r2, #41	@ 0x29
    24cc:	4e415f43 	cdpmi	15, 4, cr5, cr1, cr3, {2}
    24d0:	4e453142 	cdpmi	1, 4, cr3, cr5, cr2, {2}
    24d4:	52282052 	eorpl	r2, r8, #82	@ 0x52
    24d8:	425f4343 	subsmi	r4, pc, #201326593	@ 0xc000001
    24dc:	20455341 	subcs	r5, r5, r1, asr #6
    24e0:	4352202b 	cmpmi	r2, #43	@ 0x2b
    24e4:	48415f43 	stmdami	r1, {r0, r1, r6, r8, r9, sl, fp, ip, lr}^
    24e8:	4e453142 	cdpmi	1, 4, cr3, cr5, cr2, {2}
    24ec:	464f5f52 			@ <UNDEFINED> instruction: 0x464f5f52
    24f0:	54455346 	strbpl	r5, [r5], #-838	@ 0xfffffcba
    24f4:	5f5f0029 	svcpl	0x005f0029
    24f8:	464c4c55 			@ <UNDEFINED> instruction: 0x464c4c55
    24fc:	54434152 	strbpl	r4, [r3], #-338	@ 0xfffffeae
    2500:	4942465f 	stmdbmi	r2, {r0, r1, r2, r3, r4, r6, r9, sl, lr}^
    2504:	205f5f54 	subscs	r5, pc, r4, asr pc	@ <UNPREDICTABLE>
    2508:	5f003436 	svcpl	0x00003436
    250c:	5a49535f 	bpl	1257290 <__max_heap_size+0x1256e90>
    2510:	5f464f45 	svcpl	0x00464f45
    2514:	41484357 	cmpmi	r8, r7, asr r3
    2518:	5f545f52 	svcpl	0x00545f52
    251c:	0034205f 	eorseq	r2, r4, pc, asr r0
    2520:	4c465f5f 	stclmi	15, cr5, [r6], {95}	@ 0x5f
    2524:	5f54414f 	svcpl	0x0054414f
    2528:	44524f57 	ldrbmi	r4, [r2], #-3927	@ 0xfffff0a9
    252c:	44524f5f 	ldrbmi	r4, [r2], #-3935	@ 0xfffff0a1
    2530:	5f5f5245 	svcpl	0x005f5245
    2534:	4f5f5f20 	svcmi	0x005f5f20
    2538:	52454452 	subpl	r4, r5, #1375731712	@ 0x52000000
    253c:	54494c5f 	strbpl	r4, [r9], #-3167	@ 0xfffff3a1
    2540:	5f454c54 	svcpl	0x00454c54
    2544:	49444e45 	stmdbmi	r4, {r0, r2, r6, r9, sl, fp, lr}^
    2548:	5f5f4e41 	svcpl	0x005f4e41
    254c:	415f5f00 	cmpmi	pc, r0, lsl #30
    2550:	4d554343 	ldclmi	3, cr4, [r5, #-268]	@ 0xfffffef4
    2554:	58414d5f 	stmdapl	r1, {r0, r1, r2, r3, r4, r6, r8, sl, fp, lr}^
    2558:	30205f5f 	eorcc	r5, r0, pc, asr pc
    255c:	46463758 			@ <UNDEFINED> instruction: 0x46463758
    2560:	46464646 	strbmi	r4, [r6], -r6, asr #12
    2564:	312d5046 			@ <UNDEFINED> instruction: 0x312d5046
    2568:	5f004b35 	svcpl	0x00004b35
    256c:	5a49535f 	bpl	12572f0 <__max_heap_size+0x1256ef0>
    2570:	49575f45 	ldmdbmi	r7, {r0, r2, r6, r8, r9, sl, fp, ip, lr}^
    2574:	5f485444 	svcpl	0x00485444
    2578:	3233205f 	eorscc	r2, r3, #95	@ 0x5f
    257c:	415f5f00 	cmpmi	pc, r0, lsl #30
    2580:	465f4d52 			@ <UNDEFINED> instruction: 0x465f4d52
    2584:	55544145 	ldrbpl	r4, [r4, #-325]	@ 0xfffffebb
    2588:	535f4552 	cmppl	pc, #343932928	@ 0x14800000
    258c:	31205441 			@ <UNDEFINED> instruction: 0x31205441
    2590:	4c5f5f00 	ldclmi	15, cr5, [pc], {-0}
    2594:	54534145 	ldrbpl	r4, [r3], #-325	@ 0xfffffebb
    2598:	68222038 	stmdavs	r2!, {r3, r4, r5, sp}
    259c:	5f002268 	svcpl	0x00002268
    25a0:	4749535f 			@ <UNDEFINED> instruction: 0x4749535f
    25a4:	4f54415f 	svcmi	0x0054415f
    25a8:	5f43494d 	svcpl	0x0043494d
    25ac:	5f4e494d 	svcpl	0x004e494d
    25b0:	2d28205f 	stccs	0, cr2, [r8, #-380]!	@ 0xfffffe84
    25b4:	49535f5f 	ldmdbmi	r3, {r0, r1, r2, r3, r4, r6, r8, r9, sl, fp, ip, lr}^
    25b8:	54415f47 	strbpl	r5, [r1], #-3911	@ 0xfffff0b9
    25bc:	43494d4f 	cmpmi	r9, #5056	@ 0x13c0
    25c0:	58414d5f 	stmdapl	r1, {r0, r1, r2, r3, r4, r6, r8, sl, fp, lr}^
    25c4:	2d205f5f 	stccs	15, cr5, [r0, #-380]!	@ 0xfffffe84
    25c8:	00293120 	eoreq	r3, r9, r0, lsr #2
    25cc:	4c4c5f5f 	stclmi	15, cr5, [ip], {95}	@ 0x5f
    25d0:	43415246 	cmpmi	r1, #1610612740	@ 0x60000004
    25d4:	50455f54 	subpl	r5, r5, r4, asr pc
    25d8:	4f4c4953 	svcmi	0x004c4953
    25dc:	205f5f4e 	subscs	r5, pc, lr, asr #30
    25e0:	50317830 	eorspl	r7, r1, r0, lsr r8
    25e4:	4c33362d 	ldcmi	6, cr3, [r3], #-180	@ 0xffffff4c
    25e8:	5f00524c 	svcpl	0x0000524c
    25ec:	4e4f4c5f 	mcrmi	12, 2, r4, cr15, cr15, {2}
    25f0:	49575f47 	ldmdbmi	r7, {r0, r1, r2, r6, r8, r9, sl, fp, ip, lr}^
    25f4:	5f485444 	svcpl	0x00485444
    25f8:	3233205f 	eorscc	r2, r3, #95	@ 0x5f
    25fc:	535f5f00 	cmppl	pc, #0, 30
    2600:	43415246 	cmpmi	r1, #1610612740	@ 0x60000004
    2604:	42465f54 	submi	r5, r6, #84, 30	@ 0x150
    2608:	5f5f5449 	svcpl	0x005f5449
    260c:	5f003720 	svcpl	0x00003720
    2610:	4148435f 	cmpmi	r8, pc, asr r3
    2614:	5f323352 	svcpl	0x00323352
    2618:	45505954 	ldrbmi	r5, [r0, #-2388]	@ 0xfffff6ac
    261c:	6c205f5f 	stcvs	15, cr5, [r0], #-380	@ 0xfffffe84
    2620:	20676e6f 	rsbcs	r6, r7, pc, ror #28
    2624:	69736e75 	ldmdbvs	r3!, {r0, r2, r4, r5, r6, r9, sl, fp, sp, lr}^
    2628:	64656e67 	strbtvs	r6, [r5], #-3687	@ 0xfffff199
    262c:	746e6920 	strbtvc	r6, [lr], #-2336	@ 0xfffff6e0
    2630:	535f5f00 	cmppl	pc, #0, 30
    2634:	43415246 	cmpmi	r1, #1610612740	@ 0x60000004
    2638:	42495f54 	submi	r5, r9, #84, 30	@ 0x150
    263c:	5f5f5449 	svcpl	0x005f5449
    2640:	5f003020 	svcpl	0x00003020
    2644:	5f51485f 	svcpl	0x0051485f
    2648:	54494249 	strbpl	r4, [r9], #-585	@ 0xfffffdb7
    264c:	30205f5f 	eorcc	r5, r0, pc, asr pc
    2650:	695f5f00 	ldmdbvs	pc, {r8, r9, sl, fp, ip, lr}^	@ <UNPREDICTABLE>
    2654:	665f746e 	ldrbvs	r7, [pc], -lr, ror #8
    2658:	31747361 	cmncc	r4, r1, ror #6
    265c:	5f745f36 	svcpl	0x00745f36
    2660:	69666564 	stmdbvs	r6!, {r2, r5, r6, r8, sl, sp, lr}^
    2664:	2064656e 	rsbcs	r6, r4, lr, ror #10
    2668:	5f5f0031 	svcpl	0x005f0031
    266c:	52455355 	subpl	r5, r5, #1409286145	@ 0x54000001
    2670:	42414c5f 	submi	r4, r1, #24320	@ 0x5f00
    2674:	505f4c45 	subspl	r4, pc, r5, asr #24
    2678:	49464552 	stmdbmi	r6, {r1, r4, r6, r8, sl, lr}^
    267c:	205f5f58 	subscs	r5, pc, r8, asr pc	@ <UNPREDICTABLE>
    2680:	465f5f00 	ldrbmi	r5, [pc], -r0, lsl #30
    2684:	445f544c 	ldrbmi	r5, [pc], #-1100	@ 268c <__max_heap_size+0x228c>
    2688:	524f4e45 	subpl	r4, pc, #1104	@ 0x450
    268c:	494d5f4d 	stmdbmi	sp, {r0, r2, r3, r6, r8, r9, sl, fp, ip, lr}^
    2690:	205f5f4e 	subscs	r5, pc, lr, asr #30
    2694:	30342e31 	eorscc	r2, r4, r1, lsr lr
    2698:	38393231 	ldmdacc	r9!, {r0, r4, r5, r9, ip, sp}
    269c:	33343634 	teqcc	r4, #52, 12	@ 0x3400000
    26a0:	31383432 	teqcc	r8, r2, lsr r4
    26a4:	2d653137 	stclcs	1, cr3, [r5, #-220]!	@ 0xffffff24
    26a8:	00463534 	subeq	r3, r6, r4, lsr r5
    26ac:	49555f5f 	ldmdbmi	r5, {r0, r1, r2, r3, r4, r6, r8, r9, sl, fp, ip, lr}^
    26b0:	4c5f544e 	ldclmi	4, cr5, [pc], {78}	@ 0x4e
    26b4:	54534145 	ldrbpl	r4, [r3], #-325	@ 0xfffffebb
    26b8:	545f3233 	ldrbpl	r3, [pc], #-563	@ 26c0 <__max_heap_size+0x22c0>
    26bc:	5f455059 	svcpl	0x00455059
    26c0:	6f6c205f 	svcvs	0x006c205f
    26c4:	7520676e 	strvc	r6, [r0, #-1902]!	@ 0xfffff892
    26c8:	6769736e 	strbvs	r7, [r9, -lr, ror #6]!
    26cc:	2064656e 	rsbcs	r6, r4, lr, ror #10
    26d0:	00746e69 	rsbseq	r6, r4, r9, ror #28
    26d4:	51445f5f 	cmppl	r4, pc, asr pc
    26d8:	4942465f 	stmdbmi	r2, {r0, r1, r2, r3, r4, r6, r9, sl, lr}^
    26dc:	205f5f54 	subscs	r5, pc, r4, asr pc	@ <UNPREDICTABLE>
    26e0:	5f003336 	svcpl	0x00003336
    26e4:	4148555f 	cmpmi	r8, pc, asr r5
    26e8:	4942495f 	stmdbmi	r2, {r0, r1, r2, r3, r4, r6, r8, fp, lr}^
    26ec:	205f5f54 	subscs	r5, pc, r4, asr pc	@ <UNPREDICTABLE>
    26f0:	5f5f0038 	svcpl	0x005f0038
    26f4:	32746e69 	rsbscc	r6, r4, #1680	@ 0x690
    26f8:	205f5f30 	subscs	r5, pc, r0, lsr pc	@ <UNPREDICTABLE>
    26fc:	5f00322b 	svcpl	0x0000322b
    2700:	4d52415f 	ldclmi	1, cr4, [r2, #-380]	@ 0xfffffe84
    2704:	4145465f 	cmpmi	r5, pc, asr r6
    2708:	45525554 	ldrbmi	r5, [r2, #-1364]	@ 0xfffffaac
    270c:	52444c5f 	subpl	r4, r4, #24320	@ 0x5f00
    2710:	37205845 	strcc	r5, [r0, -r5, asr #16]!
    2714:	544e4900 	strbpl	r4, [lr], #-2304	@ 0xfffff700
    2718:	4d5f3631 	ldclmi	6, cr3, [pc, #-196]	@ 265c <__max_heap_size+0x225c>
    271c:	28204e49 	stmdacs	r0!, {r0, r3, r6, r9, sl, fp, lr}
    2720:	495f5f2d 	ldmdbmi	pc, {r0, r2, r3, r5, r8, r9, sl, fp, ip, lr}^	@ <UNPREDICTABLE>
    2724:	3631544e 	ldrtcc	r5, [r1], -lr, asr #8
    2728:	58414d5f 	stmdapl	r1, {r0, r1, r2, r3, r4, r6, r8, sl, fp, lr}^
    272c:	2d205f5f 	stccs	15, cr5, [r0, #-380]!	@ 0xfffffe84
    2730:	00293120 	eoreq	r3, r9, r0, lsr #2
    2734:	49535f5f 	ldmdbmi	r3, {r0, r1, r2, r3, r4, r6, r8, r9, sl, fp, ip, lr}^
    2738:	54415f47 	strbpl	r5, [r1], #-3911	@ 0xfffff0b9
    273c:	43494d4f 	cmpmi	r9, #5056	@ 0x13c0
    2740:	4449575f 	strbmi	r5, [r9], #-1887	@ 0xfffff8a1
    2744:	5f5f4854 	svcpl	0x005f4854
    2748:	00323320 	eorseq	r3, r2, r0, lsr #6
    274c:	52415f5f 	subpl	r5, r1, #380	@ 0x17c
    2750:	45465f4d 	strbmi	r5, [r6, #-3917]	@ 0xfffff0b3
    2754:	52555441 	subspl	r5, r5, #1090519040	@ 0x41000000
    2758:	46425f45 	strbmi	r5, [r2], -r5, asr #30
    275c:	565f3631 			@ <UNDEFINED> instruction: 0x565f3631
    2760:	4f544345 	svcmi	0x00544345
    2764:	52415f52 	subpl	r5, r1, #328	@ 0x148
    2768:	4d485449 	stclmi	4, cr5, [r8, #-292]	@ 0xfffffedc
    276c:	43495445 	cmpmi	r9, #1157627904	@ 0x45000000
    2770:	475f5f00 	ldrbmi	r5, [pc, -r0, lsl #30]
    2774:	5f43554e 	svcpl	0x0043554e
    2778:	52455250 	subpl	r5, r5, #80, 4
    277c:	5f5f5145 	svcpl	0x005f5145
    2780:	2c616d28 	stclcs	13, cr6, [r1], #-160	@ 0xffffff60
    2784:	2029696d 	eorcs	r6, r9, sp, ror #18
    2788:	4e475f5f 	mcrmi	15, 2, r5, cr7, cr15, {2}
    278c:	505f4355 	subspl	r4, pc, r5, asr r3	@ <UNPREDICTABLE>
    2790:	45524552 	ldrbmi	r4, [r2, #-1362]	@ 0xfffffaae
    2794:	616d2851 	cmnvs	sp, r1, asr r8
    2798:	696d202c 	stmdbvs	sp!, {r2, r3, r5, sp}^
    279c:	5f5f0029 	svcpl	0x005f0029
    27a0:	54534146 	ldrbpl	r4, [r3], #-326	@ 0xfffffeba
    27a4:	5f002038 	svcpl	0x00002038
    27a8:	5248535f 	subpl	r5, r8, #2080374785	@ 0x7c000001
    27ac:	414d5f54 	cmpmi	sp, r4, asr pc
    27b0:	205f5f58 	subscs	r5, pc, r8, asr pc	@ <UNPREDICTABLE>
    27b4:	66377830 			@ <UNDEFINED> instruction: 0x66377830
    27b8:	5f006666 	svcpl	0x00006666
    27bc:	4d52415f 	ldclmi	1, cr4, [r2, #-380]	@ 0xfffffe84
    27c0:	3150465f 	cmpcc	r0, pc, asr r6
    27c4:	52415f36 	subpl	r5, r1, #54, 30	@ 0xd8
    27c8:	49005347 	stmdbmi	r0, {r0, r1, r2, r6, r8, r9, ip, lr}
    27cc:	4c5f544e 	ldclmi	4, cr5, [pc], {78}	@ 0x4e
    27d0:	54534145 	ldrbpl	r4, [r3], #-325	@ 0xfffffebb
    27d4:	4d5f3631 	ldclmi	6, cr3, [pc, #-196]	@ 2718 <__max_heap_size+0x2318>
    27d8:	28204e49 	stmdacs	r0!, {r0, r3, r6, r9, sl, fp, lr}
    27dc:	495f5f2d 	ldmdbmi	pc, {r0, r2, r3, r5, r8, r9, sl, fp, ip, lr}^	@ <UNPREDICTABLE>
    27e0:	4c5f544e 	ldclmi	4, cr5, [pc], {78}	@ 0x4e
    27e4:	54534145 	ldrbpl	r4, [r3], #-325	@ 0xfffffebb
    27e8:	4d5f3631 	ldclmi	6, cr3, [pc, #-196]	@ 272c <__max_heap_size+0x232c>
    27ec:	5f5f5841 	svcpl	0x005f5841
    27f0:	31202d20 			@ <UNDEFINED> instruction: 0x31202d20
    27f4:	6f730029 	svcvs	0x00730029
    27f8:	65637275 	strbvs	r7, [r3, #-629]!	@ 0xfffffd8b
    27fc:	69616d2f 	stmdbvs	r1!, {r0, r1, r2, r3, r5, r8, sl, fp, sp, lr}^
    2800:	00632e6e 	rsbeq	r2, r3, lr, ror #28
    2804:	51535f5f 	cmppl	r3, pc, asr pc
    2808:	4942495f 	stmdbmi	r2, {r0, r1, r2, r3, r4, r6, r8, fp, lr}^
    280c:	205f5f54 	subscs	r5, pc, r4, asr pc	@ <UNPREDICTABLE>
    2810:	5f5f0030 	svcpl	0x005f0030
    2814:	33544c46 	cmpcc	r4, #17920	@ 0x4600
    2818:	4f4e5f32 	svcmi	0x004e5f32
    281c:	4d5f4d52 	ldclmi	13, cr4, [pc, #-328]	@ 26dc <__max_heap_size+0x22dc>
    2820:	5f5f5841 	svcpl	0x005f5841
    2824:	342e3320 	strtcc	r3, [lr], #-800	@ 0xfffffce0
    2828:	32383230 	eorscc	r3, r8, #48, 4
    282c:	36363433 			@ <UNDEFINED> instruction: 0x36363433
    2830:	32353833 	eorscc	r3, r5, #3342336	@ 0x330000
    2834:	65363838 	ldrvs	r3, [r6, #-2104]!	@ 0xfffff7c8
    2838:	4638332b 	ldrtmi	r3, [r8], -fp, lsr #6
    283c:	5f003233 	svcpl	0x00003233
    2840:	6e695f5f 	mcrvs	15, 3, r5, cr9, cr15, {2}
    2844:	5f323374 	svcpl	0x00323374
    2848:	65645f74 	strbvs	r5, [r4, #-3956]!	@ 0xfffff08c
    284c:	656e6966 	strbvs	r6, [lr, #-2406]!	@ 0xfffff69a
    2850:	00312064 	eorseq	r2, r1, r4, rrx
    2854:	4c465f5f 	stclmi	15, cr5, [r6], {95}	@ 0x5f
    2858:	45445f54 	strbmi	r5, [r4, #-3924]	@ 0xfffff0ac
    285c:	414d4943 	cmpmi	sp, r3, asr #18
    2860:	49445f4c 	stmdbmi	r4, {r2, r3, r6, r8, r9, sl, fp, ip, lr}^
    2864:	205f5f47 	subscs	r5, pc, r7, asr #30
    2868:	50470039 	subpl	r0, r7, r9, lsr r0
    286c:	5f414f49 	svcpl	0x00414f49
    2870:	45534142 	ldrbmi	r4, [r3, #-322]	@ 0xfffffebe
    2874:	78302820 	ldmdavc	r0!, {r5, fp, sp}
    2878:	32303034 	eorscc	r3, r0, #52	@ 0x34
    287c:	30303030 	eorscc	r3, r0, r0, lsr r0
    2880:	00294c55 	eoreq	r4, r9, r5, asr ip
    2884:	4e495f5f 	mcrmi	15, 2, r5, cr9, cr15, {2}
    2888:	5f323354 	svcpl	0x00323354
    288c:	5f58414d 	svcpl	0x0058414d
    2890:	7830205f 	ldmdavc	r0!, {r0, r1, r2, r3, r4, r6, sp}
    2894:	66666637 			@ <UNDEFINED> instruction: 0x66666637
    2898:	66666666 	strbtvs	r6, [r6], -r6, ror #12
    289c:	5f5f004c 	svcpl	0x005f004c
    28a0:	544e4957 	strbpl	r4, [lr], #-2391	@ 0xfffff6a9
    28a4:	4449575f 	strbmi	r5, [r9], #-1887	@ 0xfffff8a1
    28a8:	5f5f4854 	svcpl	0x005f4854
    28ac:	00323320 	eorseq	r3, r2, r0, lsr #6
    28b0:	726f6873 	rsbvc	r6, pc, #7536640	@ 0x730000
    28b4:	5f5f0074 	svcpl	0x005f0074
    28b8:	5f515155 	svcpl	0x00515155
    28bc:	54494246 	strbpl	r4, [r9], #-582	@ 0xfffffdba
    28c0:	38205f5f 	stmdacc	r0!, {r0, r1, r2, r3, r4, r6, r8, r9, sl, fp, ip, lr}
    28c4:	555f5f00 	ldrbpl	r5, [pc, #-3840]	@ 19cc <__max_heap_size+0x15cc>
    28c8:	43415246 	cmpmi	r1, #1610612740	@ 0x60000004
    28cc:	50455f54 	subpl	r5, r5, r4, asr pc
    28d0:	4f4c4953 	svcmi	0x004c4953
    28d4:	205f5f4e 	subscs	r5, pc, lr, asr #30
    28d8:	50317830 	eorspl	r7, r1, r0, lsr r8
    28dc:	5536312d 	ldrpl	r3, [r6, #-301]!	@ 0xfffffed3
    28e0:	4d5f0052 	ldclmi	0, cr0, [pc, #-328]	@ 27a0 <__max_heap_size+0x23a0>
    28e4:	49484341 	stmdbmi	r8, {r0, r6, r8, r9, lr}^
    28e8:	5f5f454e 	svcpl	0x005f454e
    28ec:	41464544 	cmpmi	r6, r4, asr #10
    28f0:	5f544c55 	svcpl	0x00544c55
    28f4:	45505954 	ldrbmi	r5, [r0, #-2388]	@ 0xfffff6ac
    28f8:	20485f53 	subcs	r5, r8, r3, asr pc
    28fc:	495f5f00 	ldmdbmi	pc, {r8, r9, sl, fp, ip, lr}^	@ <UNPREDICTABLE>
    2900:	4c5f544e 	ldclmi	4, cr5, [pc], {78}	@ 0x4e
    2904:	54534145 	ldrbpl	r4, [r3], #-325	@ 0xfffffebb
    2908:	575f3436 			@ <UNDEFINED> instruction: 0x575f3436
    290c:	48544449 	ldmdami	r4, {r0, r3, r6, sl, lr}^
    2910:	36205f5f 			@ <UNDEFINED> instruction: 0x36205f5f
    2914:	5f5f0034 	svcpl	0x005f0034
    2918:	33544e49 	cmpcc	r4, #1168	@ 0x490
    291c:	59545f32 	ldmdbpl	r4, {r1, r4, r5, r8, r9, sl, fp, ip, lr}^
    2920:	5f5f4550 	svcpl	0x005f4550
    2924:	6e6f6c20 	cdpvs	12, 6, cr6, cr15, cr0, {1}
    2928:	6e692067 	cdpvs	0, 6, cr2, cr9, cr7, {3}
    292c:	5f5f0074 	svcpl	0x005f0074
    2930:	33544c46 	cmpcc	r4, #17920	@ 0x4600
    2934:	4d5f5832 	ldclmi	8, cr5, [pc, #-200]	@ 2874 <__max_heap_size+0x2474>
    2938:	315f4e49 	cmpcc	pc, r9, asr #28
    293c:	58455f30 	stmdapl	r5, {r4, r5, r8, r9, sl, fp, ip, lr}^
    2940:	205f5f50 	subscs	r5, pc, r0, asr pc	@ <UNPREDICTABLE>
    2944:	30332d28 	eorscc	r2, r3, r8, lsr #26
    2948:	5f002937 	svcpl	0x00002937
    294c:	4d52415f 	ldclmi	1, cr4, [r2, #-380]	@ 0xfffffe84
    2950:	4145465f 	cmpmi	r5, pc, asr r6
    2954:	45525554 	ldrbmi	r5, [r2, #-1364]	@ 0xfffffaac
    2958:	3146425f 	cmpcc	r6, pc, asr r2
    295c:	43535f36 	cmpmi	r3, #54, 30	@ 0xd8
    2960:	52414c41 	subpl	r4, r1, #16640	@ 0x4100
    2964:	4952415f 	ldmdbmi	r2, {r0, r1, r2, r3, r4, r6, r8, lr}^
    2968:	454d4854 	strbmi	r4, [sp, #-2132]	@ 0xfffff7ac
    296c:	00434954 	subeq	r4, r3, r4, asr r9
    2970:	50544e49 	subspl	r4, r4, r9, asr #28
    2974:	4d5f5254 	ldclmi	2, cr5, [pc, #-336]	@ 282c <__max_heap_size+0x242c>
    2978:	28204e49 	stmdacs	r0!, {r0, r3, r6, r9, sl, fp, lr}
    297c:	495f5f2d 	ldmdbmi	pc, {r0, r2, r3, r5, r8, r9, sl, fp, ip, lr}^	@ <UNPREDICTABLE>
    2980:	5450544e 	ldrbpl	r5, [r0], #-1102	@ 0xfffffbb2
    2984:	414d5f52 	cmpmi	sp, r2, asr pc
    2988:	205f5f58 	subscs	r5, pc, r8, asr pc	@ <UNPREDICTABLE>
    298c:	2931202d 	ldmdbcs	r1!, {r0, r2, r3, r5, sp}
    2990:	415f5f00 	cmpmi	pc, r0, lsl #30
    2994:	465f4d52 			@ <UNDEFINED> instruction: 0x465f4d52
    2998:	55544145 	ldrbpl	r4, [r4, #-325]	@ 0xfffffebb
    299c:	495f4552 	ldmdbmi	pc, {r1, r4, r6, r8, sl, lr}^	@ <UNPREDICTABLE>
    29a0:	20564944 	subscs	r4, r6, r4, asr #18
    29a4:	5f5f0031 	svcpl	0x005f0031
    29a8:	4c42444c 	stclmi	4, cr4, [r2], {76}	@ 0x4c
    29ac:	58414d5f 	stmdapl	r1, {r0, r1, r2, r3, r4, r6, r8, sl, fp, lr}^
    29b0:	5058455f 	subspl	r4, r8, pc, asr r5
    29b4:	31205f5f 			@ <UNDEFINED> instruction: 0x31205f5f
    29b8:	00343230 	eorseq	r3, r4, r0, lsr r2
    29bc:	51535f5f 	cmppl	r3, pc, asr pc
    29c0:	4942465f 	stmdbmi	r2, {r0, r1, r2, r3, r4, r6, r9, sl, lr}^
    29c4:	205f5f54 	subscs	r5, pc, r4, asr pc	@ <UNPREDICTABLE>
    29c8:	5f003133 	svcpl	0x00003133
    29cc:	5058455f 	subspl	r4, r8, pc, asr r5
    29d0:	20297828 	eorcs	r7, r9, r8, lsr #16
    29d4:	23205f5f 			@ <UNDEFINED> instruction: 0x23205f5f
    29d8:	23207823 			@ <UNDEFINED> instruction: 0x23207823
    29dc:	005f5f23 	subseq	r5, pc, r3, lsr #30
    29e0:	464c5f5f 			@ <UNDEFINED> instruction: 0x464c5f5f
    29e4:	54434152 	strbpl	r4, [r3], #-338	@ 0xfffffeae
    29e8:	4e494d5f 	mcrmi	13, 2, r4, cr9, cr15, {2}
    29ec:	28205f5f 	stmdacs	r0!, {r0, r1, r2, r3, r4, r6, r8, r9, sl, fp, ip, lr}
    29f0:	352e302d 	strcc	r3, [lr, #-45]!	@ 0xffffffd3
    29f4:	302d524c 	eorcc	r5, sp, ip, asr #4
    29f8:	524c352e 	subpl	r3, ip, #192937984	@ 0xb800000
    29fc:	5f5f0029 	svcpl	0x005f0029
    2a00:	41484357 	cmpmi	r8, r7, asr r3
    2a04:	494d5f52 	stmdbmi	sp, {r1, r4, r6, r8, r9, sl, fp, ip, lr}^
    2a08:	205f5f4e 	subscs	r5, pc, lr, asr #30
    2a0c:	5f005530 	svcpl	0x00005530
    2a10:	544c465f 	strbpl	r4, [ip], #-1631	@ 0xfffff9a1
    2a14:	4d5f3436 	ldclmi	4, cr3, [pc, #-216]	@ 2944 <__max_heap_size+0x2544>
    2a18:	5f5f5841 	svcpl	0x005f5841
    2a1c:	372e3120 	strcc	r3, [lr, -r0, lsr #2]!
    2a20:	39363739 	ldmdbcc	r6!, {r0, r3, r4, r5, r8, r9, sl, ip, sp}
    2a24:	34333133 	ldrtcc	r3, [r3], #-307	@ 0xfffffecd
    2a28:	33323638 	teqcc	r2, #56, 12	@ 0x3800000
    2a2c:	65373531 	ldrvs	r3, [r7, #-1329]!	@ 0xfffffacf
    2a30:	3830332b 	ldmdacc	r0!, {r0, r1, r3, r5, r8, r9, ip, sp}
    2a34:	00343646 	eorseq	r3, r4, r6, asr #12
    2a38:	4e495f5f 	mcrmi	15, 2, r5, cr9, cr15, {2}
    2a3c:	20323354 	eorscs	r3, r2, r4, asr r3
    2a40:	00226c22 	eoreq	r6, r2, r2, lsr #24
    2a44:	49555f5f 	ldmdbmi	r5, {r0, r1, r2, r3, r4, r6, r8, r9, sl, fp, ip, lr}^
    2a48:	4c5f544e 	ldclmi	4, cr5, [pc], {78}	@ 0x4e
    2a4c:	54534145 	ldrbpl	r4, [r3], #-325	@ 0xfffffebb
    2a50:	4d5f3233 	ldclmi	2, cr3, [pc, #-204]	@ 298c <__max_heap_size+0x258c>
    2a54:	5f5f5841 	svcpl	0x005f5841
    2a58:	66783020 	ldrbtvs	r3, [r8], -r0, lsr #32
    2a5c:	66666666 	strbtvs	r6, [r6], -r6, ror #12
    2a60:	55666666 	strbpl	r6, [r6, #-1638]!	@ 0xfffff99a
    2a64:	5f5f004c 	svcpl	0x005f004c
    2a68:	5f434347 	svcpl	0x00434347
    2a6c:	54534544 	ldrbpl	r4, [r3], #-1348	@ 0xfffffabc
    2a70:	54435552 	strbpl	r5, [r3], #-1362	@ 0xfffffaae
    2a74:	5f455649 	svcpl	0x00455649
    2a78:	455a4953 	ldrbmi	r4, [sl, #-2387]	@ 0xfffff6ad
    2a7c:	00343620 	eorseq	r3, r4, r0, lsr #12
    2a80:	68745f5f 	ldmdavs	r4!, {r0, r1, r2, r3, r4, r6, r8, r9, sl, fp, ip, lr}^
    2a84:	5f626d75 	svcpl	0x00626d75
    2a88:	0031205f 	eorseq	r2, r1, pc, asr r0
    2a8c:	444c5f5f 	strbmi	r5, [ip], #-3935	@ 0xfffff0a1
    2a90:	485f4c42 	ldmdami	pc, {r1, r6, sl, fp, lr}^	@ <UNPREDICTABLE>
    2a94:	515f5341 	cmppl	pc, r1, asr #6
    2a98:	54454955 	strbpl	r4, [r5], #-2389	@ 0xfffff6ab
    2a9c:	4e414e5f 	mcrmi	14, 2, r4, cr1, cr15, {2}
    2aa0:	31205f5f 			@ <UNDEFINED> instruction: 0x31205f5f
    2aa4:	495f5f00 	ldmdbmi	pc, {r8, r9, sl, fp, ip, lr}^	@ <UNPREDICTABLE>
    2aa8:	5f38544e 	svcpl	0x0038544e
    2aac:	45505954 	ldrbmi	r5, [r0, #-2388]	@ 0xfffff6ac
    2ab0:	73205f5f 			@ <UNDEFINED> instruction: 0x73205f5f
    2ab4:	656e6769 	strbvs	r6, [lr, #-1897]!	@ 0xfffff897
    2ab8:	68632064 	stmdavs	r3!, {r2, r5, r6, sp}^
    2abc:	5f007261 	svcpl	0x00007261
    2ac0:	4e49575f 	mcrmi	7, 2, r5, cr9, cr15, {2}
    2ac4:	414d5f54 	cmpmi	sp, r4, asr pc
    2ac8:	205f5f58 	subscs	r5, pc, r8, asr pc	@ <UNPREDICTABLE>
    2acc:	66667830 			@ <UNDEFINED> instruction: 0x66667830
    2ad0:	66666666 	strbtvs	r6, [r6], -r6, ror #12
    2ad4:	00556666 	subseq	r6, r5, r6, ror #12
    2ad8:	544e4957 	strbpl	r4, [lr], #-2391	@ 0xfffff6a9
    2adc:	4e494d5f 	mcrmi	13, 2, r4, cr9, cr15, {2}
    2ae0:	5f5f2820 	svcpl	0x005f2820
    2ae4:	544e4957 	strbpl	r4, [lr], #-2391	@ 0xfffff6a9
    2ae8:	4e494d5f 	mcrmi	13, 2, r4, cr9, cr15, {2}
    2aec:	00295f5f 	eoreq	r5, r9, pc, asr pc
    2af0:	33544e49 	cmpcc	r4, #1168	@ 0x490
    2af4:	414d5f32 	cmpmi	sp, r2, lsr pc
    2af8:	5f282058 	svcpl	0x00282058
    2afc:	544e495f 	strbpl	r4, [lr], #-2399	@ 0xfffff6a1
    2b00:	4d5f3233 	ldclmi	2, cr3, [pc, #-204]	@ 2a3c <__max_heap_size+0x263c>
    2b04:	5f5f5841 	svcpl	0x005f5841
    2b08:	5f5f0029 	svcpl	0x005f0029
    2b0c:	36544e49 	ldrbcc	r4, [r4], -r9, asr #28
    2b10:	6c222034 	stcvs	0, cr2, [r2], #-208	@ 0xffffff30
    2b14:	5f00226c 	svcpl	0x0000226c
    2b18:	42444c5f 	submi	r4, r4, #24320	@ 0x5f00
    2b1c:	45445f4c 	strbmi	r5, [r4, #-3916]	@ 0xfffff0b4
    2b20:	414d4943 	cmpmi	sp, r3, asr #18
    2b24:	49445f4c 	stmdbmi	r4, {r2, r3, r6, r8, r9, sl, fp, ip, lr}^
    2b28:	205f5f47 	subscs	r5, pc, r7, asr #30
    2b2c:	5f003731 	svcpl	0x00003731
    2b30:	52414c5f 	subpl	r4, r1, #24320	@ 0x5f00
    2b34:	49464547 	stmdbmi	r6, {r0, r1, r2, r6, r8, sl, lr}^
    2b38:	565f454c 	ldrbpl	r4, [pc], -ip, asr #10
    2b3c:	42495349 	submi	r5, r9, #603979777	@ 0x24000001
    2b40:	3020454c 	eorcc	r4, r0, ip, asr #10
    2b44:	544e4900 	strbpl	r4, [lr], #-2304	@ 0xfffff700
    2b48:	5341465f 	cmppl	r1, #99614720	@ 0x5f00000
    2b4c:	5f343654 	svcpl	0x00343654
    2b50:	2058414d 	subscs	r4, r8, sp, asr #2
    2b54:	495f5f28 	ldmdbmi	pc, {r3, r5, r8, r9, sl, fp, ip, lr}^	@ <UNPREDICTABLE>
    2b58:	465f544e 	ldrbmi	r5, [pc], -lr, asr #8
    2b5c:	36545341 	ldrbcc	r5, [r4], -r1, asr #6
    2b60:	414d5f34 	cmpmi	sp, r4, lsr pc
    2b64:	295f5f58 	ldmdbcs	pc, {r3, r4, r6, r8, r9, sl, fp, ip, lr}^	@ <UNPREDICTABLE>
    2b68:	4e495f00 	cdpmi	15, 4, cr5, cr9, cr0, {0}
    2b6c:	5f323354 	svcpl	0x00323354
    2b70:	45445f54 	strbmi	r5, [r4, #-3924]	@ 0xfffff0ac
    2b74:	52414c43 	subpl	r4, r1, #17152	@ 0x4300
    2b78:	00204445 	eoreq	r4, r0, r5, asr #8
    2b7c:	51545f5f 	cmppl	r4, pc, asr pc
    2b80:	4942465f 	stmdbmi	r2, {r0, r1, r2, r3, r4, r6, r9, sl, lr}^
    2b84:	205f5f54 	subscs	r5, pc, r4, asr pc	@ <UNPREDICTABLE>
    2b88:	00373231 	eorseq	r3, r7, r1, lsr r2
    2b8c:	48555f5f 	ldmdami	r5, {r0, r1, r2, r3, r4, r6, r8, r9, sl, fp, ip, lr}^
    2b90:	42465f51 	submi	r5, r6, #324	@ 0x144
    2b94:	5f5f5449 	svcpl	0x005f5449
    2b98:	00363120 	eorseq	r3, r6, r0, lsr #2
    2b9c:	4f495047 	svcmi	0x00495047
    2ba0:	4f4d5f41 	svcmi	0x004d5f41
    2ba4:	5f524544 	svcpl	0x00524544
    2ba8:	5346464f 	cmppl	r6, #82837504	@ 0x4f00000
    2bac:	28205445 	stmdacs	r0!, {r0, r2, r6, sl, ip, lr}
    2bb0:	55002930 	strpl	r2, [r0, #-2352]	@ 0xfffff6d0
    2bb4:	50544e49 	subspl	r4, r4, r9, asr #28
    2bb8:	4d5f5254 	ldclmi	2, cr5, [pc, #-336]	@ 2a70 <__max_heap_size+0x2670>
    2bbc:	28205841 	stmdacs	r0!, {r0, r6, fp, ip, lr}
    2bc0:	49555f5f 	ldmdbmi	r5, {r0, r1, r2, r3, r4, r6, r8, r9, sl, fp, ip, lr}^
    2bc4:	5450544e 	ldrbpl	r5, [r0], #-1102	@ 0xfffffbb2
    2bc8:	414d5f52 	cmpmi	sp, r2, asr pc
    2bcc:	295f5f58 	ldmdbcs	pc, {r3, r4, r6, r8, r9, sl, fp, ip, lr}^	@ <UNPREDICTABLE>
    2bd0:	555f5f00 	ldrbpl	r5, [pc, #-3840]	@ 1cd8 <__max_heap_size+0x18d8>
    2bd4:	5f544e49 	svcpl	0x00544e49
    2bd8:	54534146 	ldrbpl	r4, [r3], #-326	@ 0xfffffeba
    2bdc:	4d5f3436 	ldclmi	4, cr3, [pc, #-216]	@ 2b0c <__max_heap_size+0x270c>
    2be0:	5f5f5841 	svcpl	0x005f5841
    2be4:	66783020 	ldrbtvs	r3, [r8], -r0, lsr #32
    2be8:	66666666 	strbtvs	r6, [r6], -r6, ror #12
    2bec:	66666666 	strbtvs	r6, [r6], -r6, ror #12
    2bf0:	66666666 	strbtvs	r6, [r6], -r6, ror #12
    2bf4:	55666666 	strbpl	r6, [r6, #-1638]!	@ 0xfffff99a
    2bf8:	5f004c4c 	svcpl	0x00004c4c
    2bfc:	4e49555f 	mcrmi	5, 2, r5, cr9, cr15, {2}
    2c00:	41465f54 	cmpmi	r6, r4, asr pc
    2c04:	32335453 	eorscc	r5, r3, #1392508928	@ 0x53000000
    2c08:	58414d5f 	stmdapl	r1, {r0, r1, r2, r3, r4, r6, r8, sl, fp, lr}^
    2c0c:	30205f5f 	eorcc	r5, r0, pc, asr pc
    2c10:	66666678 			@ <UNDEFINED> instruction: 0x66666678
    2c14:	66666666 	strbtvs	r6, [r6], -r6, ror #12
    2c18:	5f005566 	svcpl	0x00005566
    2c1c:	544e495f 	strbpl	r4, [lr], #-2399	@ 0xfffff6a1
    2c20:	22203631 	eorcs	r3, r0, #51380224	@ 0x3100000
    2c24:	5f002268 	svcpl	0x00002268
    2c28:	4653555f 			@ <UNDEFINED> instruction: 0x4653555f
    2c2c:	54434152 	strbpl	r4, [r3], #-338	@ 0xfffffeae
    2c30:	4942465f 	stmdbmi	r2, {r0, r1, r2, r3, r4, r6, r9, sl, lr}^
    2c34:	205f5f54 	subscs	r5, pc, r4, asr pc	@ <UNPREDICTABLE>
    2c38:	5f5f0038 	svcpl	0x005f0038
    2c3c:	36544e49 	ldrbcc	r4, [r4], -r9, asr #28
    2c40:	28435f34 	stmdacs	r3, {r2, r4, r5, r8, r9, sl, fp, ip, lr}^
    2c44:	63202963 			@ <UNDEFINED> instruction: 0x63202963
    2c48:	20232320 	eorcs	r2, r3, r0, lsr #6
    2c4c:	5f004c4c 	svcpl	0x00004c4c
    2c50:	5f51485f 	svcpl	0x0051485f
    2c54:	54494246 	strbpl	r4, [r9], #-582	@ 0xfffffdba
    2c58:	31205f5f 			@ <UNDEFINED> instruction: 0x31205f5f
    2c5c:	5f5f0035 	svcpl	0x005f0035
    2c60:	5f4d5241 	svcpl	0x004d5241
    2c64:	54414546 	strbpl	r4, [r1], #-1350	@ 0xfffffaba
    2c68:	5f455255 	svcpl	0x00455255
    2c6c:	444d4953 	strbmi	r4, [sp], #-2387	@ 0xfffff6ad
    2c70:	31203233 			@ <UNDEFINED> instruction: 0x31203233
    2c74:	575f5f00 	ldrbpl	r5, [pc, -r0, lsl #30]
    2c78:	52414843 	subpl	r4, r1, #4390912	@ 0x430000
    2c7c:	58414d5f 	stmdapl	r1, {r0, r1, r2, r3, r4, r6, r8, sl, fp, lr}^
    2c80:	30205f5f 	eorcc	r5, r0, pc, asr pc
    2c84:	66666678 			@ <UNDEFINED> instruction: 0x66666678
    2c88:	66666666 	strbtvs	r6, [r6], -r6, ror #12
    2c8c:	5f005566 	svcpl	0x00005566
    2c90:	5a49535f 	bpl	1257a14 <__max_heap_size+0x1257614>
    2c94:	5f464f45 	svcpl	0x00464f45
    2c98:	474e4f4c 	strbmi	r4, [lr, -ip, asr #30]
    2c9c:	4e4f4c5f 	mcrmi	12, 2, r4, cr15, cr15, {2}
    2ca0:	205f5f47 	subscs	r5, pc, r7, asr #30
    2ca4:	5f5f0038 	svcpl	0x005f0038
    2ca8:	36544c46 	ldrbcc	r4, [r4], -r6, asr #24
    2cac:	53495f34 	cmppl	r9, #52, 30	@ 0xd0
    2cb0:	4345495f 	cmpmi	r5, #1556480	@ 0x17c000
    2cb4:	3530365f 	ldrcc	r3, [r0, #-1631]!	@ 0xfffff9a1
    2cb8:	5f5f3935 	svcpl	0x005f3935
    2cbc:	5f003120 	svcpl	0x00003120
    2cc0:	4e49555f 	mcrmi	5, 2, r5, cr9, cr15, {2}
    2cc4:	545f3854 	ldrbpl	r3, [pc], #-2132	@ 2ccc <__max_heap_size+0x28cc>
    2cc8:	5f455059 	svcpl	0x00455059
    2ccc:	6e75205f 	mrcvs	0, 3, r2, cr5, cr15, {2}
    2cd0:	6e676973 			@ <UNDEFINED> instruction: 0x6e676973
    2cd4:	63206465 			@ <UNDEFINED> instruction: 0x63206465
    2cd8:	00726168 	rsbseq	r6, r2, r8, ror #2
    2cdc:	48535f5f 	ldmdami	r3, {r0, r1, r2, r3, r4, r6, r8, r9, sl, fp, ip, lr}^
    2ce0:	575f5452 			@ <UNDEFINED> instruction: 0x575f5452
    2ce4:	48544449 	ldmdami	r4, {r0, r3, r6, sl, lr}^
    2ce8:	31205f5f 			@ <UNDEFINED> instruction: 0x31205f5f
    2cec:	5f5f0036 	svcpl	0x005f0036
    2cf0:	5f4d5241 	svcpl	0x004d5241
    2cf4:	49005046 	stmdbmi	r0, {r1, r2, r6, ip, lr}
    2cf8:	465f544e 	ldrbmi	r5, [pc], -lr, asr #8
    2cfc:	38545341 	ldmdacc	r4, {r0, r6, r8, r9, ip, lr}^
    2d00:	58414d5f 	stmdapl	r1, {r0, r1, r2, r3, r4, r6, r8, sl, fp, lr}^
    2d04:	5f5f2820 	svcpl	0x005f2820
    2d08:	5f544e49 	svcpl	0x00544e49
    2d0c:	54534146 	ldrbpl	r4, [r3], #-326	@ 0xfffffeba
    2d10:	414d5f38 	cmpmi	sp, r8, lsr pc
    2d14:	295f5f58 	ldmdbcs	pc, {r3, r4, r6, r8, r9, sl, fp, ip, lr}^	@ <UNPREDICTABLE>
    2d18:	415f5f00 	cmpmi	pc, r0, lsl #30
    2d1c:	465f4d52 			@ <UNDEFINED> instruction: 0x465f4d52
    2d20:	55544145 	ldrbpl	r4, [r4, #-325]	@ 0xfffffebb
    2d24:	415f4552 	cmpmi	pc, r2, asr r5	@ <UNPREDICTABLE>
    2d28:	5f005345 	svcpl	0x00005345
    2d2c:	6e695f5f 	mcrvs	15, 3, r5, cr9, cr15, {2}
    2d30:	5f363174 	svcpl	0x00363174
    2d34:	65645f74 	strbvs	r5, [r4, #-3956]!	@ 0xfffff08c
    2d38:	656e6966 	strbvs	r6, [lr, #-2406]!	@ 0xfffff69a
    2d3c:	00312064 	eorseq	r2, r1, r4, rrx
    2d40:	4c465f5f 	stclmi	15, cr5, [r6], {95}	@ 0x5f
    2d44:	50455f54 	subpl	r5, r5, r4, asr pc
    2d48:	4f4c4953 	svcmi	0x004c4953
    2d4c:	205f5f4e 	subscs	r5, pc, lr, asr #30
    2d50:	39312e31 	ldmdbcc	r1!, {r0, r4, r5, r9, sl, fp, sp}
    2d54:	32393032 	eorscc	r3, r9, #50	@ 0x32
    2d58:	35353938 	ldrcc	r3, [r5, #-2360]!	@ 0xfffff6c8
    2d5c:	31383730 	teqcc	r8, r0, lsr r7
    2d60:	2d653532 	stclcs	5, cr3, [r5, #-200]!	@ 0xffffff38
    2d64:	53004637 	tstpl	r0, #57671680	@ 0x3700000
    2d68:	5f455a49 	svcpl	0x00455a49
    2d6c:	2058414d 	subscs	r4, r8, sp, asr #2
    2d70:	535f5f28 	cmppl	pc, #40, 30	@ 0xa0
    2d74:	5f455a49 	svcpl	0x00455a49
    2d78:	5f58414d 	svcpl	0x0058414d
    2d7c:	5f00295f 	svcpl	0x0000295f
    2d80:	544e495f 	strbpl	r4, [lr], #-2399	@ 0xfffff6a1
    2d84:	41454c5f 	cmpmi	r5, pc, asr ip
    2d88:	34365453 	ldrtcc	r5, [r6], #-1107	@ 0xfffffbad
    2d8c:	5059545f 	subspl	r5, r9, pc, asr r4
    2d90:	205f5f45 	subscs	r5, pc, r5, asr #30
    2d94:	676e6f6c 	strbvs	r6, [lr, -ip, ror #30]!
    2d98:	6e6f6c20 	cdpvs	12, 6, cr6, cr15, cr0, {1}
    2d9c:	6e692067 	cdpvs	0, 6, cr2, cr9, cr7, {3}
    2da0:	49550074 	ldmdbmi	r5, {r2, r4, r5, r6}^
    2da4:	414d544e 	cmpmi	sp, lr, asr #8
    2da8:	28435f58 	stmdacs	r3, {r3, r4, r6, r8, r9, sl, fp, ip, lr}^
    2dac:	5f202978 	svcpl	0x00202978
    2db0:	4e49555f 	mcrmi	5, 2, r5, cr9, cr15, {2}
    2db4:	58414d54 	stmdapl	r1, {r2, r4, r6, r8, sl, fp, lr}^
    2db8:	7828435f 	stmdavc	r8!, {r0, r1, r2, r3, r4, r6, r8, r9, lr}
    2dbc:	5f5f0029 	svcpl	0x005f0029
    2dc0:	544e4955 	strbpl	r4, [lr], #-2389	@ 0xfffff6ab
    2dc4:	545f3233 	ldrbpl	r3, [pc], #-563	@ 2dcc <__max_heap_size+0x29cc>
    2dc8:	5f455059 	svcpl	0x00455059
    2dcc:	6f6c205f 	svcvs	0x006c205f
    2dd0:	7520676e 	strvc	r6, [r0, #-1902]!	@ 0xfffff892
    2dd4:	6769736e 	strbvs	r7, [r9, -lr, ror #6]!
    2dd8:	2064656e 	rsbcs	r6, r4, lr, ror #10
    2ddc:	00746e69 	rsbseq	r6, r4, r9, ror #28
    2de0:	444c5f5f 	strbmi	r5, [ip], #-3935	@ 0xfffff0a1
    2de4:	4d5f4c42 	ldclmi	12, cr4, [pc, #-264]	@ 2ce4 <__max_heap_size+0x28e4>
    2de8:	315f4e49 	cmpcc	pc, r9, asr #28
    2dec:	58455f30 	stmdapl	r5, {r4, r5, r8, r9, sl, fp, ip, lr}^
    2df0:	205f5f50 	subscs	r5, pc, r0, asr pc	@ <UNPREDICTABLE>
    2df4:	30332d28 	eorscc	r2, r3, r8, lsr #26
    2df8:	57002937 			@ <UNDEFINED> instruction: 0x57002937
    2dfc:	5f544e49 	svcpl	0x00544e49
    2e00:	2058414d 	subscs	r4, r8, sp, asr #2
    2e04:	575f5f28 	ldrbpl	r5, [pc, -r8, lsr #30]
    2e08:	5f544e49 	svcpl	0x00544e49
    2e0c:	5f58414d 	svcpl	0x0058414d
    2e10:	5f00295f 	svcpl	0x0000295f
    2e14:	5a49535f 	bpl	1257b98 <__max_heap_size+0x1257798>
    2e18:	5f464f45 	svcpl	0x00464f45
    2e1c:	4e494f50 	mcrmi	15, 2, r4, cr9, cr0, {2}
    2e20:	5f524554 	svcpl	0x00524554
    2e24:	0034205f 	eorseq	r2, r4, pc, asr r0
    2e28:	41555f5f 	cmpmi	r5, pc, asr pc
    2e2c:	4d554343 	ldclmi	3, cr4, [r5, #-268]	@ 0xfffffef4
    2e30:	58414d5f 	stmdapl	r1, {r0, r1, r2, r3, r4, r6, r8, sl, fp, lr}^
    2e34:	30205f5f 	eorcc	r5, r0, pc, asr pc
    2e38:	46464658 			@ <UNDEFINED> instruction: 0x46464658
    2e3c:	46464646 	strbmi	r4, [r6], -r6, asr #12
    2e40:	312d5046 			@ <UNDEFINED> instruction: 0x312d5046
    2e44:	004b5536 	subeq	r5, fp, r6, lsr r5
    2e48:	46565f5f 			@ <UNDEFINED> instruction: 0x46565f5f
    2e4c:	50465f50 	subpl	r5, r6, r0, asr pc
    2e50:	31205f5f 			@ <UNDEFINED> instruction: 0x31205f5f
    2e54:	555f5f00 	ldrbpl	r5, [pc, #-3840]	@ 1f5c <__max_heap_size+0x1b5c>
    2e58:	4152464c 	cmpmi	r2, ip, asr #12
    2e5c:	4d5f5443 	ldclmi	4, cr5, [pc, #-268]	@ 2d58 <__max_heap_size+0x2958>
    2e60:	5f5f5841 	svcpl	0x005f5841
    2e64:	46583020 	ldrbmi	r3, [r8], -r0, lsr #32
    2e68:	46464646 	strbmi	r4, [r6], -r6, asr #12
    2e6c:	50464646 	subpl	r4, r6, r6, asr #12
    2e70:	5532332d 	ldrpl	r3, [r2, #-813]!	@ 0xfffffcd3
    2e74:	5200524c 	andpl	r5, r0, #76, 4	@ 0xc0000004
    2e78:	415f4343 	cmpmi	pc, r3, asr #6
    2e7c:	45314248 	ldrmi	r4, [r1, #-584]!	@ 0xfffffdb8
    2e80:	4f5f524e 	svcmi	0x005f524e
    2e84:	45534646 	ldrbmi	r4, [r3, #-1606]	@ 0xfffff9ba
    2e88:	30282054 	eorcc	r2, r8, r4, asr r0
    2e8c:	55303378 	ldrpl	r3, [r0, #-888]!	@ 0xfffffc88
    2e90:	5f00294c 	svcpl	0x0000294c
    2e94:	5f41485f 	svcpl	0x0041485f
    2e98:	54494246 	strbpl	r4, [r9], #-582	@ 0xfffffdba
    2e9c:	37205f5f 			@ <UNDEFINED> instruction: 0x37205f5f
    2ea0:	505f5f00 	subspl	r5, pc, r0, lsl #30
    2ea4:	49445254 	stmdbmi	r4, {r2, r4, r6, r9, ip, lr}^
    2ea8:	575f4646 	ldrbpl	r4, [pc, -r6, asr #12]
    2eac:	48544449 	ldmdami	r4, {r0, r3, r6, sl, lr}^
    2eb0:	33205f5f 			@ <UNDEFINED> instruction: 0x33205f5f
    2eb4:	5f5f0032 	svcpl	0x005f0032
    2eb8:	33544c46 	cmpcc	r4, #17920	@ 0x4600
    2ebc:	45445f32 	strbmi	r5, [r4, #-3890]	@ 0xfffff0ce
    2ec0:	4d524f4e 	ldclmi	15, cr4, [r2, #-312]	@ 0xfffffec8
    2ec4:	4e494d5f 	mcrmi	13, 2, r4, cr9, cr15, {2}
    2ec8:	31205f5f 			@ <UNDEFINED> instruction: 0x31205f5f
    2ecc:	3130342e 	teqcc	r0, lr, lsr #8
    2ed0:	34383932 	ldrtcc	r3, [r8], #-2354	@ 0xfffff6ce
    2ed4:	32333436 	eorscc	r3, r3, #905969664	@ 0x36000000
    2ed8:	37313834 			@ <UNDEFINED> instruction: 0x37313834
    2edc:	342d6531 	strtcc	r6, [sp], #-1329	@ 0xfffffacf
    2ee0:	32334635 	eorscc	r4, r3, #55574528	@ 0x3500000
    2ee4:	495f5f00 	ldmdbmi	pc, {r8, r9, sl, fp, ip, lr}^	@ <UNPREDICTABLE>
    2ee8:	435f4f53 	cmpmi	pc, #332	@ 0x14c
    2eec:	5349565f 	cmppl	r9, #99614720	@ 0x5f00000
    2ef0:	454c4249 	strbmi	r4, [ip, #-585]	@ 0xfffffdb7
    2ef4:	31303220 	teqcc	r0, r0, lsr #4
    2ef8:	5f5f0031 	svcpl	0x005f0031
    2efc:	43434153 	cmpmi	r3, #-1073741804	@ 0xc0000014
    2f00:	4d5f4d55 	ldclmi	13, cr4, [pc, #-340]	@ 2db4 <__max_heap_size+0x29b4>
    2f04:	5f5f4e49 	svcpl	0x005f4e49
    2f08:	302d2820 	eorcc	r2, sp, r0, lsr #16
    2f0c:	37503158 			@ <UNDEFINED> instruction: 0x37503158
    2f10:	302d4b48 	eorcc	r4, sp, r8, asr #22
    2f14:	37503158 			@ <UNDEFINED> instruction: 0x37503158
    2f18:	00294b48 	eoreq	r4, r9, r8, asr #22
    2f1c:	4e495f5f 	mcrmi	15, 2, r5, cr9, cr15, {2}
    2f20:	49575f54 	ldmdbmi	r7, {r2, r4, r6, r8, r9, sl, fp, ip, lr}^
    2f24:	5f485444 	svcpl	0x00485444
    2f28:	3233205f 	eorscc	r2, r3, #95	@ 0x5f
    2f2c:	475f5f00 	ldrbmi	r5, [pc, -r0, lsl #30]
    2f30:	415f4343 	cmpmi	pc, r3, asr #6
    2f34:	494d4f54 	stmdbmi	sp, {r2, r4, r6, r8, r9, sl, fp, lr}^
    2f38:	4f505f43 	svcmi	0x00505f43
    2f3c:	45544e49 	ldrbmi	r4, [r4, #-3657]	@ 0xfffff1b7
    2f40:	4f4c5f52 	svcmi	0x004c5f52
    2f44:	465f4b43 	ldrbmi	r4, [pc], -r3, asr #22
    2f48:	20454552 	subcs	r4, r5, r2, asr r5
    2f4c:	5f5f0032 	svcpl	0x005f0032
    2f50:	544e4955 	strbpl	r4, [lr], #-2389	@ 0xfffff6ab
    2f54:	435f3436 	cmpmi	pc, #905969664	@ 0x36000000
    2f58:	20296328 	eorcs	r6, r9, r8, lsr #6
    2f5c:	23232063 			@ <UNDEFINED> instruction: 0x23232063
    2f60:	4c4c5520 	stclmi	5, cr5, [ip], {32}
    2f64:	4c5f5f00 	ldclmi	15, cr5, [pc], {-0}
    2f68:	55434341 	strbpl	r4, [r3, #-833]	@ 0xfffffcbf
    2f6c:	50455f4d 	subpl	r5, r5, sp, asr #30
    2f70:	4f4c4953 	svcmi	0x004c4953
    2f74:	205f5f4e 	subscs	r5, pc, lr, asr #30
    2f78:	50317830 	eorspl	r7, r1, r0, lsr r8
    2f7c:	4c31332d 	ldcmi	3, cr3, [r1], #-180	@ 0xffffff4c
    2f80:	616d004b 	cmnvs	sp, fp, asr #32
    2f84:	5f006e69 	svcpl	0x00006e69
    2f88:	5246535f 	subpl	r5, r6, #2080374785	@ 0x7c000001
    2f8c:	5f544341 	svcpl	0x00544341
    2f90:	49535045 	ldmdbmi	r3, {r0, r2, r6, ip, lr}^
    2f94:	5f4e4f4c 	svcpl	0x004e4f4c
    2f98:	7830205f 	ldmdavc	r0!, {r0, r1, r2, r3, r4, r6, sp}
    2f9c:	372d5031 			@ <UNDEFINED> instruction: 0x372d5031
    2fa0:	5f005248 	svcpl	0x00005248
    2fa4:	5151555f 	cmppl	r1, pc, asr r5
    2fa8:	4942495f 	stmdbmi	r2, {r0, r1, r2, r3, r4, r6, r8, fp, lr}^
    2fac:	205f5f54 	subscs	r5, pc, r4, asr pc	@ <UNPREDICTABLE>
    2fb0:	5f5f0030 	svcpl	0x005f0030
    2fb4:	33544c46 	cmpcc	r4, #17920	@ 0x4600
    2fb8:	4d5f5832 	ldclmi	8, cr5, [pc, #-200]	@ 2ef8 <__max_heap_size+0x2af8>
    2fbc:	5f5f5841 	svcpl	0x005f5841
    2fc0:	372e3120 	strcc	r3, [lr, -r0, lsr #2]!
    2fc4:	39363739 	ldmdbcc	r6!, {r0, r3, r4, r5, r8, r9, sl, ip, sp}
    2fc8:	34333133 	ldrtcc	r3, [r3], #-307	@ 0xfffffecd
    2fcc:	33323638 	teqcc	r2, #56, 12	@ 0x3800000
    2fd0:	65373531 	ldrvs	r3, [r7, #-1329]!	@ 0xfffffacf
    2fd4:	3830332b 	ldmdacc	r0!, {r0, r1, r3, r5, r8, r9, ip, sp}
    2fd8:	78323346 	ldmdavc	r2!, {r1, r2, r6, r8, r9, ip, sp}
    2fdc:	555f5f00 	ldrbpl	r5, [pc, #-3840]	@ 20e4 <__max_heap_size+0x1ce4>
    2fe0:	465f5153 			@ <UNDEFINED> instruction: 0x465f5153
    2fe4:	5f544942 	svcpl	0x00544942
    2fe8:	3233205f 	eorscc	r2, r3, #95	@ 0x5f
    2fec:	485f5f00 	ldmdami	pc, {r8, r9, sl, fp, ip, lr}^	@ <UNPREDICTABLE>
    2ff0:	42495f41 	submi	r5, r9, #260	@ 0x104
    2ff4:	5f5f5449 	svcpl	0x005f5449
    2ff8:	5f003820 	svcpl	0x00003820
    2ffc:	4d52415f 	ldclmi	1, cr4, [r2, #-380]	@ 0xfffffe84
    3000:	4241455f 	submi	r4, r1, #398458880	@ 0x17c00000
    3004:	205f5f49 	subscs	r5, pc, r9, asr #30
    3008:	5f5f0031 	svcpl	0x005f0031
    300c:	5f434347 	svcpl	0x00434347
    3010:	4d4f5441 	stclmi	4, cr5, [pc, #-260]	@ 2f14 <__max_heap_size+0x2b14>
    3014:	435f4349 	cmpmi	pc, #603979777	@ 0x24000001
    3018:	33524148 	cmpcc	r2, #72, 2
    301c:	5f545f32 	svcpl	0x00545f32
    3020:	4b434f4c 	blmi	10d6d58 <__max_heap_size+0x10d6958>
    3024:	4552465f 	ldrbmi	r4, [r2, #-1631]	@ 0xfffff9a1
    3028:	00322045 	eorseq	r2, r2, r5, asr #32
    302c:	544e4955 	strbpl	r4, [lr], #-2389	@ 0xfffff6ab
    3030:	5341465f 	cmppl	r1, #99614720	@ 0x5f00000
    3034:	5f323354 	svcpl	0x00323354
    3038:	2058414d 	subscs	r4, r8, sp, asr #2
    303c:	555f5f28 	ldrbpl	r5, [pc, #-3880]	@ 211c <__max_heap_size+0x1d1c>
    3040:	5f544e49 	svcpl	0x00544e49
    3044:	54534146 	ldrbpl	r4, [r3], #-326	@ 0xfffffeba
    3048:	4d5f3233 	ldclmi	2, cr3, [pc, #-204]	@ 2f84 <__max_heap_size+0x2b84>
    304c:	5f5f5841 	svcpl	0x005f5841
    3050:	4e490029 	cdpmi	0, 4, cr0, cr9, cr9, {1}
    3054:	454c5f54 	strbmi	r5, [ip, #-3924]	@ 0xfffff0ac
    3058:	36545341 	ldrbcc	r5, [r4], -r1, asr #6
    305c:	414d5f34 	cmpmi	sp, r4, lsr pc
    3060:	5f282058 	svcpl	0x00282058
    3064:	544e495f 	strbpl	r4, [lr], #-2399	@ 0xfffff6a1
    3068:	41454c5f 	cmpmi	r5, pc, asr ip
    306c:	34365453 	ldrtcc	r5, [r6], #-1107	@ 0xfffffbad
    3070:	58414d5f 	stmdapl	r1, {r0, r1, r2, r3, r4, r6, r8, sl, fp, lr}^
    3074:	00295f5f 	eoreq	r5, r9, pc, asr pc
    3078:	41484357 	cmpmi	r8, r7, asr r3
    307c:	494d5f52 	stmdbmi	sp, {r1, r4, r6, r8, r9, sl, fp, ip, lr}^
    3080:	5f28204e 	svcpl	0x0028204e
    3084:	4843575f 	stmdami	r3, {r0, r1, r2, r3, r4, r6, r8, r9, sl, ip, lr}^
    3088:	4d5f5241 	ldclmi	2, cr5, [pc, #-260]	@ 2f8c <__max_heap_size+0x2b8c>
    308c:	5f5f4e49 	svcpl	0x005f4e49
    3090:	5f5f0029 	svcpl	0x005f0029
    3094:	43415246 	cmpmi	r1, #1610612740	@ 0x60000004
    3098:	50455f54 	subpl	r5, r5, r4, asr pc
    309c:	4f4c4953 	svcmi	0x004c4953
    30a0:	205f5f4e 	subscs	r5, pc, lr, asr #30
    30a4:	50317830 	eorspl	r7, r1, r0, lsr r8
    30a8:	5235312d 	eorspl	r3, r5, #1073741835	@ 0x4000000b
    30ac:	535f5f00 	cmppl	pc, #0, 30
    30b0:	5f434454 	svcpl	0x00434454
    30b4:	54534f48 	ldrbpl	r4, [r3], #-3912	@ 0xfffff0b8
    30b8:	5f5f4445 	svcpl	0x005f4445
    30bc:	5f003120 	svcpl	0x00003120
    30c0:	544e4955 	strbpl	r4, [lr], #-2389	@ 0xfffff6ab
    30c4:	5f525450 	svcpl	0x00525450
    30c8:	45445f54 	strbmi	r5, [r4, #-3924]	@ 0xfffff0ac
    30cc:	52414c43 	subpl	r4, r1, #17152	@ 0x4300
    30d0:	00204445 	eoreq	r4, r0, r5, asr #8
    30d4:	544e4955 	strbpl	r4, [lr], #-2389	@ 0xfffff6ab
    30d8:	5341465f 	cmppl	r1, #99614720	@ 0x5f00000
    30dc:	4d5f3854 	ldclmi	8, cr3, [pc, #-336]	@ 2f94 <__max_heap_size+0x2b94>
    30e0:	28205841 	stmdacs	r0!, {r0, r6, fp, ip, lr}
    30e4:	49555f5f 	ldmdbmi	r5, {r0, r1, r2, r3, r4, r6, r8, r9, sl, fp, ip, lr}^
    30e8:	465f544e 	ldrbmi	r5, [pc], -lr, asr #8
    30ec:	38545341 	ldmdacc	r4, {r0, r6, r8, r9, ip, lr}^
    30f0:	58414d5f 	stmdapl	r1, {r0, r1, r2, r3, r4, r6, r8, sl, fp, lr}^
    30f4:	00295f5f 	eoreq	r5, r9, pc, asr pc
    30f8:	4e495f5f 	mcrmi	15, 2, r5, cr9, cr15, {2}
    30fc:	52545054 	subspl	r5, r4, #84	@ 0x54
    3100:	58414d5f 	stmdapl	r1, {r0, r1, r2, r3, r4, r6, r8, sl, fp, lr}^
    3104:	30205f5f 	eorcc	r5, r0, pc, asr pc
    3108:	66663778 			@ <UNDEFINED> instruction: 0x66663778
    310c:	66666666 	strbtvs	r6, [r6], -r6, ror #12
    3110:	5f5f0066 	svcpl	0x005f0066
    3114:	47415250 			@ <UNDEFINED> instruction: 0x47415250
    3118:	525f414d 	subspl	r4, pc, #1073741843	@ 0x40000013
    311c:	46454445 	strbmi	r4, [r5], -r5, asr #8
    3120:	5f454e49 	svcpl	0x00454e49
    3124:	4e545845 	cdpmi	8, 5, cr5, cr4, cr5, {2}
    3128:	20454d41 	subcs	r4, r5, r1, asr #26
    312c:	5f5f0031 	svcpl	0x005f0031
    3130:	49445453 	stmdbmi	r4, {r0, r1, r4, r6, sl, ip, lr}^
    3134:	455f544e 	ldrbmi	r5, [pc, #-1102]	@ 2cee <__max_heap_size+0x28ee>
    3138:	78285058 	stmdavc	r8!, {r3, r4, r6, ip, lr}
    313c:	5f5f2029 	svcpl	0x005f2029
    3140:	78232320 	stmdavc	r3!, {r5, r8, r9, sp}
    3144:	5f232320 	svcpl	0x00232320
    3148:	5f5f005f 	svcpl	0x005f005f
    314c:	36544c46 	ldrbcc	r4, [r4], -r6, asr #24
    3150:	50455f34 	subpl	r5, r5, r4, lsr pc
    3154:	4f4c4953 	svcmi	0x004c4953
    3158:	205f5f4e 	subscs	r5, pc, lr, asr #30
    315c:	32322e32 	eorscc	r2, r2, #800	@ 0x320
    3160:	36343430 			@ <UNDEFINED> instruction: 0x36343430
    3164:	32393430 	eorscc	r3, r9, #48, 8	@ 0x30000000
    3168:	31333035 	teqcc	r3, r5, lsr r0
    316c:	2d653133 	stclcs	1, cr3, [r5, #-204]!	@ 0xffffff34
    3170:	36463631 			@ <UNDEFINED> instruction: 0x36463631
    3174:	4e490034 	mcrmi	0, 2, r0, cr9, cr4, {1}
    3178:	5f343654 	svcpl	0x00343654
    317c:	2058414d 	subscs	r4, r8, sp, asr #2
    3180:	495f5f28 	ldmdbmi	pc, {r3, r5, r8, r9, sl, fp, ip, lr}^	@ <UNPREDICTABLE>
    3184:	3436544e 	ldrtcc	r5, [r6], #-1102	@ 0xfffffbb2
    3188:	58414d5f 	stmdapl	r1, {r0, r1, r2, r3, r4, r6, r8, sl, fp, lr}^
    318c:	00295f5f 	eoreq	r5, r9, pc, asr pc
    3190:	544e495f 	strbpl	r4, [lr], #-2399	@ 0xfffff6a1
    3194:	5f545f38 	svcpl	0x00545f38
    3198:	4c434544 	stclmi	5, cr4, [r3], {68}	@ 0x44
    319c:	44455241 	strbmi	r5, [r5], #-577	@ 0xfffffdbf
    31a0:	5f5f0020 	svcpl	0x005f0020
    31a4:	5f434347 	svcpl	0x00434347
    31a8:	4d4f5441 	stclmi	4, cr5, [pc, #-260]	@ 30ac <__max_heap_size+0x2cac>
    31ac:	4c5f4349 	ldclmi	3, cr4, [pc], {73}	@ 0x49
    31b0:	474e4f4c 	strbmi	r4, [lr, -ip, asr #30]
    31b4:	434f4c5f 	cmpmi	pc, #24320	@ 0x5f00
    31b8:	52465f4b 	subpl	r5, r6, #300	@ 0x12c
    31bc:	31204545 			@ <UNDEFINED> instruction: 0x31204545
    31c0:	465f5f00 	ldrbmi	r5, [pc], -r0, lsl #30
    31c4:	4d5f544c 	ldclmi	4, cr5, [pc, #-304]	@ 309c <__max_heap_size+0x2c9c>
    31c8:	455f5841 	ldrbmi	r5, [pc, #-2113]	@ 298f <__max_heap_size+0x258f>
    31cc:	5f5f5058 	svcpl	0x005f5058
    31d0:	38323120 	ldmdacc	r2!, {r5, r8, ip, sp}
    31d4:	415f5f00 	cmpmi	pc, r0, lsl #30
    31d8:	494d4f54 	stmdbmi	sp, {r2, r4, r6, r8, r9, sl, fp, lr}^
    31dc:	43415f43 	cmpmi	r1, #268	@ 0x10c
    31e0:	45525f51 	ldrbmi	r5, [r2, #-3921]	@ 0xfffff0af
    31e4:	0034204c 	eorseq	r2, r4, ip, asr #32
    31e8:	20554e47 	subscs	r4, r5, r7, asr #28
    31ec:	20313143 	eorscs	r3, r1, r3, asr #2
    31f0:	322e3431 	eorcc	r3, lr, #822083584	@ 0x31000000
    31f4:	3220312e 	eorcc	r3, r0, #-2147483637	@ 0x8000000b
    31f8:	31343230 	teqcc	r4, r0, lsr r2
    31fc:	20393131 	eorscs	r3, r9, r1, lsr r1
    3200:	70636d2d 	rsbvc	r6, r3, sp, lsr #26
    3204:	6f633d75 	svcvs	0x00633d75
    3208:	78657472 	stmdavc	r5!, {r1, r4, r5, r6, sl, ip, sp, lr}^
    320c:	20346d2d 	eorscs	r6, r4, sp, lsr #26
    3210:	68746d2d 	ldmdavs	r4!, {r0, r2, r3, r5, r8, sl, fp, sp, lr}^
    3214:	20626d75 	rsbcs	r6, r2, r5, ror sp
    3218:	6c666d2d 	stclvs	13, cr6, [r6], #-180	@ 0xffffff4c
    321c:	2d74616f 	ldclcs	1, cr6, [r4, #-444]!	@ 0xfffffe44
    3220:	3d696261 	stclcc	2, cr6, [r9, #-388]!	@ 0xfffffe7c
    3224:	64726168 	ldrbtvs	r6, [r2], #-360	@ 0xfffffe98
    3228:	666d2d20 	strbtvs	r2, [sp], -r0, lsr #26
    322c:	663d7570 			@ <UNDEFINED> instruction: 0x663d7570
    3230:	2d347670 	ldccs	6, cr7, [r4, #-448]!	@ 0xfffffe40
    3234:	642d7073 	strtvs	r7, [sp], #-115	@ 0xffffff8d
    3238:	2d203631 	stccs	6, cr3, [r0, #-196]!	@ 0xffffff3c
    323c:	6372616d 	cmnvs	r2, #1073741851	@ 0x4000001b
    3240:	72613d68 	rsbvc	r3, r1, #104, 26	@ 0x1a00
    3244:	6537766d 	ldrvs	r7, [r7, #-1645]!	@ 0xfffff993
    3248:	662b6d2d 	strtvs	r6, [fp], -sp, lsr #26
    324c:	672d2070 			@ <UNDEFINED> instruction: 0x672d2070
    3250:	4f2d2033 	svcmi	0x002d2033
    3254:	732d2030 			@ <UNDEFINED> instruction: 0x732d2030
    3258:	633d6474 	teqvs	sp, #116, 8	@ 0x74000000
    325c:	49003131 	stmdbmi	r0, {r0, r4, r5, r8, ip, sp}
    3260:	5f38544e 	svcpl	0x0038544e
    3264:	2058414d 	subscs	r4, r8, sp, asr #2
    3268:	495f5f28 	ldmdbmi	pc, {r3, r5, r8, r9, sl, fp, ip, lr}^	@ <UNPREDICTABLE>
    326c:	5f38544e 	svcpl	0x0038544e
    3270:	5f58414d 	svcpl	0x0058414d
    3274:	5f00295f 	svcpl	0x0000295f
    3278:	4e49555f 	mcrmi	5, 2, r5, cr9, cr15, {2}
    327c:	58414d54 	stmdapl	r1, {r2, r4, r6, r8, sl, fp, lr}^
    3280:	5059545f 	subspl	r5, r9, pc, asr r4
    3284:	205f5f45 	subscs	r5, pc, r5, asr #30
    3288:	676e6f6c 	strbvs	r6, [lr, -ip, ror #30]!
    328c:	6e6f6c20 	cdpvs	12, 6, cr6, cr15, cr0, {1}
    3290:	6e752067 	cdpvs	0, 7, cr2, cr5, cr7, {3}
    3294:	6e676973 			@ <UNDEFINED> instruction: 0x6e676973
    3298:	69206465 	stmdbvs	r0!, {r0, r2, r5, r6, sl, sp, lr}
    329c:	5f00746e 	svcpl	0x0000746e
    32a0:	6e69755f 	mcrvs	5, 3, r7, cr9, cr15, {2}
    32a4:	5f323374 	svcpl	0x00323374
    32a8:	5f5f0074 	svcpl	0x005f0074
    32ac:	4353494d 	cmpmi	r3, #1261568	@ 0x134000
    32b0:	5349565f 	cmppl	r9, #99614720	@ 0x5f00000
    32b4:	454c4249 	strbmi	r4, [ip, #-585]	@ 0xfffffdb7
    32b8:	5f003020 	svcpl	0x00003020
    32bc:	544c465f 	strbpl	r4, [ip], #-1631	@ 0xfffff9a1
    32c0:	5f583233 	svcpl	0x00583233
    32c4:	4d524f4e 	ldclmi	15, cr4, [r2, #-312]	@ 0xfffffec8
    32c8:	58414d5f 	stmdapl	r1, {r0, r1, r2, r3, r4, r6, r8, sl, fp, lr}^
    32cc:	31205f5f 			@ <UNDEFINED> instruction: 0x31205f5f
    32d0:	3739372e 	ldrcc	r3, [r9, -lr, lsr #14]!
    32d4:	31333936 	teqcc	r3, r6, lsr r9
    32d8:	36383433 			@ <UNDEFINED> instruction: 0x36383433
    32dc:	35313332 	ldrcc	r3, [r1, #-818]!	@ 0xfffffcce
    32e0:	332b6537 			@ <UNDEFINED> instruction: 0x332b6537
    32e4:	33463830 	cmpcc	r6, #48, 16	@ 0x300000
    32e8:	5f007832 	svcpl	0x00007832
    32ec:	42444c5f 	submi	r4, r4, #24320	@ 0x5f00
    32f0:	50455f4c 	subpl	r5, r5, ip, asr #30
    32f4:	4f4c4953 	svcmi	0x004c4953
    32f8:	205f5f4e 	subscs	r5, pc, lr, asr #30
    32fc:	32322e32 	eorscc	r2, r2, #800	@ 0x320
    3300:	36343430 			@ <UNDEFINED> instruction: 0x36343430
    3304:	32393430 	eorscc	r3, r9, #48, 8	@ 0x30000000
    3308:	31333035 	teqcc	r3, r5, lsr r0
    330c:	2d653133 	stclcs	1, cr3, [r5, #-204]!	@ 0xffffff34
    3310:	004c3631 	subeq	r3, ip, r1, lsr r6
    3314:	4e495f5f 	mcrmi	15, 2, r5, cr9, cr15, {2}
    3318:	52545054 	subspl	r5, r4, #84	@ 0x54
    331c:	5059545f 	subspl	r5, r9, pc, asr r4
    3320:	205f5f45 	subscs	r5, pc, r5, asr #30
    3324:	00746e69 	rsbseq	r6, r4, r9, ror #28
    3328:	52415f5f 	subpl	r5, r1, #380	@ 0x17c
    332c:	43505f4d 	cmpmi	r0, #308	@ 0x134
    3330:	46565f53 			@ <UNDEFINED> instruction: 0x46565f53
    3334:	00312050 	eorseq	r2, r1, r0, asr r0
    3338:	45445f5f 	strbmi	r5, [r4, #-3935]	@ 0xfffff0a1
    333c:	56455f43 	strbpl	r5, [r5], -r3, asr #30
    3340:	4d5f4c41 	ldclmi	12, cr4, [pc, #-260]	@ 3244 <__max_heap_size+0x2e44>
    3344:	4f485445 	svcmi	0x00485445
    3348:	205f5f44 	subscs	r5, pc, r4, asr #30
    334c:	5f5f0032 	svcpl	0x005f0032
    3350:	4544524f 	strbmi	r5, [r4, #-591]	@ 0xfffffdb1
    3354:	44505f52 	ldrbmi	r5, [r0], #-3922	@ 0xfffff0ae
    3358:	4e455f50 	mcrmi	15, 2, r5, cr5, cr0, {2}
    335c:	4e414944 			@ <UNDEFINED> instruction: 0x4e414944
    3360:	33205f5f 			@ <UNDEFINED> instruction: 0x33205f5f
    3364:	00323134 	eorseq	r3, r2, r4, lsr r1
    3368:	544e4955 	strbpl	r4, [lr], #-2389	@ 0xfffff6ab
    336c:	5341465f 	cmppl	r1, #99614720	@ 0x5f00000
    3370:	5f343654 	svcpl	0x00343654
    3374:	2058414d 	subscs	r4, r8, sp, asr #2
    3378:	555f5f28 	ldrbpl	r5, [pc, #-3880]	@ 2458 <__max_heap_size+0x2058>
    337c:	5f544e49 	svcpl	0x00544e49
    3380:	54534146 	ldrbpl	r4, [r3], #-326	@ 0xfffffeba
    3384:	4d5f3436 	ldclmi	4, cr3, [pc, #-216]	@ 32b4 <__max_heap_size+0x2eb4>
    3388:	5f5f5841 	svcpl	0x005f5841
    338c:	5f5f0029 	svcpl	0x005f0029
    3390:	52465355 	subpl	r5, r6, #1409286145	@ 0x54000001
    3394:	5f544341 	svcpl	0x00544341
    3398:	54494249 	strbpl	r4, [r9], #-585	@ 0xfffffdb7
    339c:	30205f5f 	eorcc	r5, r0, pc, asr pc
    33a0:	495f5f00 	ldmdbmi	pc, {r8, r9, sl, fp, ip, lr}^	@ <UNPREDICTABLE>
    33a4:	4c5f544e 	ldclmi	4, cr5, [pc], {78}	@ 0x4e
    33a8:	54534145 	ldrbpl	r4, [r3], #-325	@ 0xfffffebb
    33ac:	575f3233 			@ <UNDEFINED> instruction: 0x575f3233
    33b0:	48544449 	ldmdami	r4, {r0, r3, r6, sl, lr}^
    33b4:	33205f5f 			@ <UNDEFINED> instruction: 0x33205f5f
    33b8:	49550032 	ldmdbmi	r5, {r1, r4, r5}^
    33bc:	4c5f544e 	ldclmi	4, cr5, [pc], {78}	@ 0x4e
    33c0:	54534145 	ldrbpl	r4, [r3], #-325	@ 0xfffffebb
    33c4:	4d5f3631 	ldclmi	6, cr3, [pc, #-196]	@ 3308 <__max_heap_size+0x2f08>
    33c8:	28205841 	stmdacs	r0!, {r0, r6, fp, ip, lr}
    33cc:	49555f5f 	ldmdbmi	r5, {r0, r1, r2, r3, r4, r6, r8, r9, sl, fp, ip, lr}^
    33d0:	4c5f544e 	ldclmi	4, cr5, [pc], {78}	@ 0x4e
    33d4:	54534145 	ldrbpl	r4, [r3], #-325	@ 0xfffffebb
    33d8:	4d5f3631 	ldclmi	6, cr3, [pc, #-196]	@ 331c <__max_heap_size+0x2f1c>
    33dc:	5f5f5841 	svcpl	0x005f5841
    33e0:	5f5f0029 	svcpl	0x005f0029
    33e4:	43554e47 	cmpmi	r5, #1136	@ 0x470
    33e8:	4449575f 	strbmi	r5, [r9], #-1887	@ 0xfffff8a1
    33ec:	58455f45 	stmdapl	r5, {r0, r2, r6, r8, r9, sl, fp, ip, lr}^
    33f0:	54554345 	ldrbpl	r4, [r5], #-837	@ 0xfffffcbb
    33f4:	5f4e4f49 	svcpl	0x004e4f49
    33f8:	52414843 	subpl	r4, r1, #4390912	@ 0x430000
    33fc:	5f544553 	svcpl	0x00544553
    3400:	454d414e 	strbmi	r4, [sp, #-334]	@ 0xfffffeb2
    3404:	54552220 	ldrbpl	r2, [r5], #-544	@ 0xfffffde0
    3408:	32332d46 	eorscc	r2, r3, #4480	@ 0x1180
    340c:	0022454c 	eoreq	r4, r2, ip, asr #10
    3410:	49555f5f 	ldmdbmi	r5, {r0, r1, r2, r3, r4, r6, r8, r9, sl, fp, ip, lr}^
    3414:	465f544e 	ldrbmi	r5, [pc], -lr, asr #8
    3418:	33545341 	cmpcc	r4, #67108865	@ 0x4000001
    341c:	59545f32 	ldmdbpl	r4, {r1, r4, r5, r8, r9, sl, fp, ip, lr}^
    3420:	5f5f4550 	svcpl	0x005f4550
    3424:	736e7520 	cmnvc	lr, #32, 10	@ 0x8000000
    3428:	656e6769 	strbvs	r6, [lr, #-1897]!	@ 0xfffff897
    342c:	6e692064 	cdpvs	0, 6, cr2, cr9, cr4, {3}
    3430:	5f5f0074 	svcpl	0x005f0074
    3434:	5341454c 	cmppl	r1, #76, 10	@ 0x13000000
    3438:	20323354 	eorscs	r3, r2, r4, asr r3
    343c:	00226c22 	eoreq	r6, r2, r2, lsr #24
    3440:	51445f5f 	cmppl	r4, pc, asr pc
    3444:	4942495f 	stmdbmi	r2, {r0, r1, r2, r3, r4, r6, r8, fp, lr}^
    3448:	205f5f54 	subscs	r5, pc, r4, asr pc	@ <UNPREDICTABLE>
    344c:	5f5f0030 	svcpl	0x005f0030
    3450:	5f544c46 	svcpl	0x00544c46
    3454:	5f58414d 	svcpl	0x0058414d
    3458:	2e33205f 	mrccs	0, 1, r2, cr3, cr15, {2}
    345c:	38323034 	ldmdacc	r2!, {r2, r4, r5, ip, sp}
    3460:	36343332 			@ <UNDEFINED> instruction: 0x36343332
    3464:	35383336 	ldrcc	r3, [r8, #-822]!	@ 0xfffffcca
    3468:	36383832 			@ <UNDEFINED> instruction: 0x36383832
    346c:	38332b65 	ldmdacc	r3!, {r0, r2, r5, r6, r8, r9, fp, sp}
    3470:	5f5f0046 	svcpl	0x005f0046
    3474:	33544c46 	cmpcc	r4, #17920	@ 0x4600
    3478:	494d5f32 	stmdbmi	sp, {r1, r4, r5, r8, r9, sl, fp, ip, lr}^
    347c:	205f5f4e 	subscs	r5, pc, lr, asr #30
    3480:	37312e31 			@ <UNDEFINED> instruction: 0x37312e31
    3484:	34393435 	ldrtcc	r3, [r9], #-1077	@ 0xfffffbcb
    3488:	38303533 	ldmdacc	r0!, {r0, r1, r4, r5, r8, sl, ip, sp}
    348c:	38323232 	ldmdacc	r2!, {r1, r4, r5, r9, ip, sp}
    3490:	2d653537 	stclcs	5, cr3, [r5, #-220]!	@ 0xffffff24
    3494:	33463833 	cmpcc	r6, #3342336	@ 0x330000
    3498:	5f5f0032 	svcpl	0x005f0032
    349c:	455a4953 	ldrbmi	r4, [sl, #-2387]	@ 0xfffff6ad
    34a0:	5059545f 	subspl	r5, r9, pc, asr r4
    34a4:	205f5f45 	subscs	r5, pc, r5, asr #30
    34a8:	69736e75 	ldmdbvs	r3!, {r0, r2, r4, r5, r6, r9, sl, fp, sp, lr}^
    34ac:	64656e67 	strbtvs	r6, [r5], #-3687	@ 0xfffff199
    34b0:	746e6920 	strbtvc	r6, [lr], #-2336	@ 0xfffff6e0
    34b4:	555f5f00 	ldrbpl	r5, [pc, #-3840]	@ 25bc <__max_heap_size+0x21bc>
    34b8:	43414c4c 	cmpmi	r1, #76, 24	@ 0x4c00
    34bc:	5f4d5543 	svcpl	0x004d5543
    34c0:	54494246 	strbpl	r4, [r9], #-582	@ 0xfffffdba
    34c4:	33205f5f 			@ <UNDEFINED> instruction: 0x33205f5f
    34c8:	6e750032 	mrcvs	0, 3, r0, cr5, cr2, {1}
    34cc:	6e676973 			@ <UNDEFINED> instruction: 0x6e676973
    34d0:	2b206465 	blcs	81c66c <__max_heap_size+0x81c26c>
    34d4:	5f5f0030 	svcpl	0x005f0030
    34d8:	36544c46 	ldrbcc	r4, [r4], -r6, asr #24
    34dc:	494d5f34 	stmdbmi	sp, {r2, r4, r5, r8, r9, sl, fp, ip, lr}^
    34e0:	58455f4e 	stmdapl	r5, {r1, r2, r3, r6, r8, r9, sl, fp, ip, lr}^
    34e4:	205f5f50 	subscs	r5, pc, r0, asr pc	@ <UNPREDICTABLE>
    34e8:	30312d28 	eorscc	r2, r1, r8, lsr #26
    34ec:	00293132 	eoreq	r3, r9, r2, lsr r1
    34f0:	58455f5f 	stmdapl	r5, {r0, r1, r2, r3, r4, r6, r8, r9, sl, fp, ip, lr}^
    34f4:	5f5f0050 	svcpl	0x005f0050
    34f8:	5f4c4244 	svcpl	0x004c4244
    34fc:	495f5349 	ldmdbmi	pc, {r0, r3, r6, r8, r9, ip, lr}^	@ <UNPREDICTABLE>
    3500:	365f4345 	ldrbcc	r4, [pc], -r5, asr #6
    3504:	39353530 	ldmdbcc	r5!, {r4, r5, r8, sl, ip, sp}
    3508:	31205f5f 			@ <UNDEFINED> instruction: 0x31205f5f
    350c:	475f5f00 	ldrbmi	r5, [pc, -r0, lsl #30]
    3510:	415f4343 	cmpmi	pc, r3, asr #6
    3514:	494d4f54 	stmdbmi	sp, {r2, r4, r6, r8, r9, sl, fp, lr}^
    3518:	48535f43 	ldmdami	r3, {r0, r1, r6, r8, r9, sl, fp, ip, lr}^
    351c:	5f54524f 	svcpl	0x0054524f
    3520:	4b434f4c 	blmi	10d7258 <__max_heap_size+0x10d6e58>
    3524:	4552465f 	ldrbmi	r4, [r2, #-1631]	@ 0xfffff9a1
    3528:	00322045 	eorseq	r2, r2, r5, asr #32
    352c:	695f5f5f 	ldmdbvs	pc, {r0, r1, r2, r3, r4, r6, r8, r9, sl, fp, ip, lr}^	@ <UNPREDICTABLE>
    3530:	6c5f746e 	ldclvs	4, cr7, [pc], {110}	@ 0x6e
    3534:	74736165 	ldrbtvc	r6, [r3], #-357	@ 0xfffffe9b
    3538:	5f745f38 	svcpl	0x00745f38
    353c:	69666564 	stmdbvs	r6!, {r2, r5, r6, r8, sl, sp, lr}^
    3540:	2064656e 	rsbcs	r6, r4, lr, ror #10
    3544:	4e490031 	mcrmi	0, 2, r0, cr9, cr1, {1}
    3548:	41465f54 	cmpmi	r6, r4, asr pc
    354c:	32335453 	eorscc	r5, r3, #1392508928	@ 0x53000000
    3550:	58414d5f 	stmdapl	r1, {r0, r1, r2, r3, r4, r6, r8, sl, fp, lr}^
    3554:	5f5f2820 	svcpl	0x005f2820
    3558:	5f544e49 	svcpl	0x00544e49
    355c:	54534146 	ldrbpl	r4, [r3], #-326	@ 0xfffffeba
    3560:	4d5f3233 	ldclmi	2, cr3, [pc, #-204]	@ 349c <__max_heap_size+0x309c>
    3564:	5f5f5841 	svcpl	0x005f5841
    3568:	5f5f0029 	svcpl	0x005f0029
    356c:	5f415455 	svcpl	0x00415455
    3570:	54494249 	strbpl	r4, [r9], #-585	@ 0xfffffdb7
    3574:	36205f5f 			@ <UNDEFINED> instruction: 0x36205f5f
    3578:	5f5f0034 	svcpl	0x005f0034
    357c:	5f544c46 	svcpl	0x00544c46
    3580:	5f4e494d 	svcpl	0x004e494d
    3584:	455f3031 	ldrbmi	r3, [pc, #-49]	@ 355b <__max_heap_size+0x315b>
    3588:	5f5f5058 	svcpl	0x005f5058
    358c:	332d2820 			@ <UNDEFINED> instruction: 0x332d2820
    3590:	5f002937 	svcpl	0x00002937
    3594:	544c465f 	strbpl	r4, [ip], #-1631	@ 0xfffff9a1
    3598:	5f53495f 	svcpl	0x0053495f
    359c:	5f434549 	svcpl	0x00434549
    35a0:	35353036 	ldrcc	r3, [r5, #-54]!	@ 0xffffffca
    35a4:	205f5f39 	subscs	r5, pc, r9, lsr pc	@ <UNPREDICTABLE>
    35a8:	5f5f0031 	svcpl	0x005f0031
    35ac:	33544c46 	cmpcc	r4, #17920	@ 0x4600
    35b0:	455f5832 	ldrbmi	r5, [pc, #-2098]	@ 2d86 <__max_heap_size+0x2986>
    35b4:	4c495350 	stclmi	3, cr5, [r9], {80}	@ 0x50
    35b8:	5f5f4e4f 	svcpl	0x005f4e4f
    35bc:	322e3220 	eorcc	r3, lr, #32, 4
    35c0:	34343032 	ldrtcc	r3, [r4], #-50	@ 0xffffffce
    35c4:	39343036 	ldmdbcc	r4!, {r1, r2, r4, r5, ip, sp}
    35c8:	33303532 	teqcc	r0, #209715200	@ 0xc800000
    35cc:	65313331 	ldrvs	r3, [r1, #-817]!	@ 0xfffffccf
    35d0:	4636312d 	ldrtmi	r3, [r6], -sp, lsr #2
    35d4:	00783233 	rsbseq	r3, r8, r3, lsr r2
    35d8:	4c465f5f 	stclmi	15, cr5, [r6], {95}	@ 0x5f
    35dc:	56455f54 			@ <UNDEFINED> instruction: 0x56455f54
    35e0:	4d5f4c41 	ldclmi	12, cr4, [pc, #-260]	@ 34e4 <__max_heap_size+0x30e4>
    35e4:	4f485445 	svcmi	0x00485445
    35e8:	53545f44 	cmppl	r4, #68, 30	@ 0x110
    35ec:	3638315f 			@ <UNDEFINED> instruction: 0x3638315f
    35f0:	335f3136 	cmpcc	pc, #-2147483635	@ 0x8000000d
    35f4:	30205f5f 	eorcc	r5, r0, pc, asr pc
    35f8:	445f5f00 	ldrbmi	r5, [pc], #-3840	@ 3600 <__max_heap_size+0x3200>
    35fc:	485f4c42 	ldmdami	pc, {r1, r6, sl, fp, lr}^	@ <UNPREDICTABLE>
    3600:	495f5341 	ldmdbmi	pc, {r0, r6, r8, r9, ip, lr}^	@ <UNPREDICTABLE>
    3604:	4e49464e 	cdpmi	6, 4, cr4, cr9, cr14, {2}
    3608:	5f595449 	svcpl	0x00595449
    360c:	0031205f 	eorseq	r2, r1, pc, asr r0
    3610:	52415f5f 	subpl	r5, r1, #380	@ 0x17c
    3614:	45465f4d 	strbmi	r5, [r6, #-3917]	@ 0xfffff0b3
    3618:	52555441 	subspl	r5, r5, #1090519040	@ 0x41000000
    361c:	42515f45 	subsmi	r5, r1, #276	@ 0x114
    3620:	31205449 			@ <UNDEFINED> instruction: 0x31205449
    3624:	495f5f00 	ldmdbmi	pc, {r8, r9, sl, fp, ip, lr}^	@ <UNPREDICTABLE>
    3628:	465f544e 	ldrbmi	r5, [pc], -lr, asr #8
    362c:	33545341 	cmpcc	r4, #67108865	@ 0x4000001
    3630:	59545f32 	ldmdbpl	r4, {r1, r4, r5, r8, r9, sl, fp, ip, lr}^
    3634:	5f5f4550 	svcpl	0x005f4550
    3638:	746e6920 	strbtvc	r6, [lr], #-2336	@ 0xfffff6e0
    363c:	465f5f00 	ldrbmi	r5, [pc], -r0, lsl #30
    3640:	485f544c 	ldmdami	pc, {r2, r3, r6, sl, ip, lr}^	@ <UNPREDICTABLE>
    3644:	515f5341 	cmppl	pc, r1, asr #6
    3648:	54454955 	strbpl	r4, [r5], #-2389	@ 0xfffff6ab
    364c:	4e414e5f 	mcrmi	14, 2, r4, cr1, cr15, {2}
    3650:	31205f5f 			@ <UNDEFINED> instruction: 0x31205f5f
    3654:	535f5f00 	cmppl	pc, #0, 30
    3658:	4f455a49 	svcmi	0x00455a49
    365c:	4e495f46 	cdpmi	15, 4, cr5, cr9, cr6, {2}
    3660:	205f5f54 	subscs	r5, pc, r4, asr pc	@ <UNPREDICTABLE>
    3664:	5f5f0034 	svcpl	0x005f0034
    3668:	4d544e49 	ldclmi	14, cr4, [r4, #-292]	@ 0xfffffedc
    366c:	545f5841 	ldrbpl	r5, [pc], #-2113	@ 3674 <__max_heap_size+0x3274>
    3670:	5f455059 	svcpl	0x00455059
    3674:	6f6c205f 	svcvs	0x006c205f
    3678:	6c20676e 	stcvs	7, cr6, [r0], #-440	@ 0xfffffe48
    367c:	20676e6f 	rsbcs	r6, r7, pc, ror #28
    3680:	00746e69 	rsbseq	r6, r4, r9, ror #28
    3684:	544e495f 	strbpl	r4, [lr], #-2399	@ 0xfffff6a1
    3688:	455f3233 	ldrbmi	r3, [pc, #-563]	@ 345d <__max_heap_size+0x305d>
    368c:	4f4c5f51 	svcmi	0x004c5f51
    3690:	0020474e 	eoreq	r4, r0, lr, asr #14
    3694:	4e495f5f 	mcrmi	15, 2, r5, cr9, cr15, {2}
    3698:	58414d54 	stmdapl	r1, {r2, r4, r6, r8, sl, fp, lr}^
    369c:	6328435f 			@ <UNDEFINED> instruction: 0x6328435f
    36a0:	20632029 	rsbcs	r2, r3, r9, lsr #32
    36a4:	4c202323 	stcmi	3, cr2, [r0], #-140	@ 0xffffff74
    36a8:	5f5f004c 	svcpl	0x005f004c
    36ac:	5f4d5241 	svcpl	0x004d5241
    36b0:	54414546 	strbpl	r4, [r1], #-1350	@ 0xfffffaba
    36b4:	5f455255 	svcpl	0x00455255
    36b8:	0045564d 	subeq	r5, r5, sp, asr #12
    36bc:	50415f5f 	subpl	r5, r1, pc, asr pc
    36c0:	335f5343 	cmpcc	pc, #201326593	@ 0xc000001
    36c4:	205f5f32 	subscs	r5, pc, r2, lsr pc	@ <UNPREDICTABLE>
    36c8:	555f0031 	ldrbpl	r0, [pc, #-49]	@ 369f <__max_heap_size+0x329f>
    36cc:	38544e49 	ldmdacc	r4, {r0, r3, r6, r9, sl, fp, lr}^
    36d0:	445f545f 	ldrbmi	r5, [pc], #-1119	@ 36d8 <__max_heap_size+0x32d8>
    36d4:	414c4345 	cmpmi	ip, r5, asr #6
    36d8:	20444552 	subcs	r4, r4, r2, asr r5
    36dc:	544e4900 	strbpl	r4, [lr], #-2304	@ 0xfffff700
    36e0:	5f58414d 	svcpl	0x0058414d
    36e4:	29782843 	ldmdbcs	r8!, {r0, r1, r6, fp, sp}^
    36e8:	495f5f20 	ldmdbmi	pc, {r5, r8, r9, sl, fp, ip, lr}^	@ <UNPREDICTABLE>
    36ec:	414d544e 	cmpmi	sp, lr, asr #8
    36f0:	28435f58 	stmdacs	r3, {r3, r4, r6, r8, r9, sl, fp, ip, lr}^
    36f4:	5f002978 	svcpl	0x00002978
    36f8:	4c42445f 	stclmi	4, cr4, [r2], {95}	@ 0x5f
    36fc:	4e45445f 	mcrmi	4, 2, r4, cr5, cr15, {2}
    3700:	5f4d524f 	svcpl	0x004d524f
    3704:	5f4e494d 	svcpl	0x004e494d
    3708:	2828205f 	stmdacs	r8!, {r0, r1, r2, r3, r4, r6, sp}
    370c:	62756f64 	rsbsvs	r6, r5, #100, 30	@ 0x190
    3710:	3429656c 	strtcc	r6, [r9], #-1388	@ 0xfffffa94
    3714:	3034392e 	eorscc	r3, r4, lr, lsr #18
    3718:	34363536 	ldrtcc	r3, [r6], #-1334	@ 0xfffffaca
    371c:	31343835 	teqcc	r4, r5, lsr r8
    3720:	35363432 	ldrcc	r3, [r6, #-1074]!	@ 0xfffffbce
    3724:	332d6534 			@ <UNDEFINED> instruction: 0x332d6534
    3728:	294c3432 	stmdbcs	ip, {r1, r4, r5, sl, ip, sp}^
    372c:	555f5f00 	ldrbpl	r5, [pc, #-3840]	@ 2834 <__max_heap_size+0x2434>
    3730:	36544e49 	ldrbcc	r4, [r4], -r9, asr #28
    3734:	59545f34 	ldmdbpl	r4, {r2, r4, r5, r8, r9, sl, fp, ip, lr}^
    3738:	5f5f4550 	svcpl	0x005f4550
    373c:	6e6f6c20 	cdpvs	12, 6, cr6, cr15, cr0, {1}
    3740:	6f6c2067 	svcvs	0x006c2067
    3744:	7520676e 	strvc	r6, [r0, #-1902]!	@ 0xfffff892
    3748:	6769736e 	strbvs	r7, [r9, -lr, ror #6]!
    374c:	2064656e 	rsbcs	r6, r4, lr, ror #10
    3750:	00746e69 	rsbseq	r6, r4, r9, ror #28
    3754:	4d544e49 	ldclmi	14, cr4, [r4, #-292]	@ 0xfffffedc
    3758:	4d5f5841 	ldclmi	8, cr5, [pc, #-260]	@ 365c <__max_heap_size+0x325c>
    375c:	28205841 	stmdacs	r0!, {r0, r6, fp, ip, lr}
    3760:	4e495f5f 	mcrmi	15, 2, r5, cr9, cr15, {2}
    3764:	58414d54 	stmdapl	r1, {r2, r4, r6, r8, sl, fp, lr}^
    3768:	58414d5f 	stmdapl	r1, {r0, r1, r2, r3, r4, r6, r8, sl, fp, lr}^
    376c:	00295f5f 	eoreq	r5, r9, pc, asr pc
    3770:	4c465f5f 	stclmi	15, cr5, [r6], {95}	@ 0x5f
    3774:	58323354 	ldmdapl	r2!, {r2, r4, r6, r8, r9, ip, sp}
    3778:	5341485f 	cmppl	r1, #6225920	@ 0x5f0000
    377c:	4955515f 	ldmdbmi	r5, {r0, r1, r2, r3, r4, r6, r8, ip, lr}^
    3780:	4e5f5445 	cdpmi	4, 5, cr5, cr15, cr5, {2}
    3784:	5f5f4e41 	svcpl	0x005f4e41
    3788:	5f003120 	svcpl	0x00003120
    378c:	4c42445f 	stclmi	4, cr4, [r2], {95}	@ 0x5f
    3790:	58414d5f 	stmdapl	r1, {r0, r1, r2, r3, r4, r6, r8, sl, fp, lr}^
    3794:	5f30315f 	svcpl	0x0030315f
    3798:	5f505845 	svcpl	0x00505845
    379c:	3033205f 	eorscc	r2, r3, pc, asr r0
    37a0:	5f5f0038 	svcpl	0x005f0038
    37a4:	33544c46 	cmpcc	r4, #17920	@ 0x4600
    37a8:	4d5f5832 	ldclmi	8, cr5, [pc, #-200]	@ 36e8 <__max_heap_size+0x32e8>
    37ac:	5f5f4e49 	svcpl	0x005f4e49
    37b0:	322e3220 	eorcc	r3, lr, #32, 4
    37b4:	37303532 			@ <UNDEFINED> instruction: 0x37303532
    37b8:	38353833 	ldmdacc	r5!, {r0, r1, r4, r5, fp, ip, sp}
    37bc:	32373035 	eorscc	r3, r7, #53	@ 0x35
    37c0:	65343130 	ldrvs	r3, [r4, #-304]!	@ 0xfffffed0
    37c4:	3830332d 	ldmdacc	r0!, {r0, r2, r3, r5, r8, r9, ip, sp}
    37c8:	78323346 	ldmdavc	r2!, {r1, r2, r6, r8, r9, ip, sp}
    37cc:	555f5f00 	ldrbpl	r5, [pc, #-3840]	@ 28d4 <__max_heap_size+0x24d4>
    37d0:	495f5154 	ldmdbmi	pc, {r2, r4, r6, r8, ip, lr}^	@ <UNPREDICTABLE>
    37d4:	5f544942 	svcpl	0x00544942
    37d8:	0030205f 	eorseq	r2, r0, pc, asr r0
    37dc:	41545f5f 	cmpmi	r4, pc, asr pc
    37e0:	4942495f 	stmdbmi	r2, {r0, r1, r2, r3, r4, r6, r8, fp, lr}^
    37e4:	205f5f54 	subscs	r5, pc, r4, asr pc	@ <UNPREDICTABLE>
    37e8:	5f003436 	svcpl	0x00003436
    37ec:	5a49535f 	bpl	1258570 <__max_heap_size+0x1258170>
    37f0:	5f464f45 	svcpl	0x00464f45
    37f4:	414f4c46 	cmpmi	pc, r6, asr #24
    37f8:	205f5f54 	subscs	r5, pc, r4, asr pc	@ <UNPREDICTABLE>
    37fc:	5f5f0034 	svcpl	0x005f0034
    3800:	5f746e69 	svcpl	0x00746e69
    3804:	74736166 	ldrbtvc	r6, [r3], #-358	@ 0xfffffe9a
    3808:	745f3233 	ldrbvc	r3, [pc], #-563	@ 3810 <__max_heap_size+0x3410>
    380c:	6665645f 			@ <UNDEFINED> instruction: 0x6665645f
    3810:	64656e69 	strbtvs	r6, [r5], #-3689	@ 0xfffff197
    3814:	5f003120 	svcpl	0x00003120
    3818:	544c465f 	strbpl	r4, [ip], #-1631	@ 0xfffff9a1
    381c:	5f583233 	svcpl	0x00583233
    3820:	5f534148 	svcpl	0x00534148
    3824:	49464e49 	stmdbmi	r6, {r0, r3, r6, r9, sl, fp, lr}^
    3828:	5954494e 	ldmdbpl	r4, {r1, r2, r3, r6, r8, fp, lr}^
    382c:	31205f5f 			@ <UNDEFINED> instruction: 0x31205f5f
    3830:	544e4900 	strbpl	r4, [lr], #-2304	@ 0xfffff700
    3834:	5341465f 	cmppl	r1, #99614720	@ 0x5f00000
    3838:	4d5f3854 	ldclmi	8, cr3, [pc, #-336]	@ 36f0 <__max_heap_size+0x32f0>
    383c:	28204e49 	stmdacs	r0!, {r0, r3, r6, r9, sl, fp, lr}
    3840:	495f5f2d 	ldmdbmi	pc, {r0, r2, r3, r5, r8, r9, sl, fp, ip, lr}^	@ <UNPREDICTABLE>
    3844:	465f544e 	ldrbmi	r5, [pc], -lr, asr #8
    3848:	38545341 	ldmdacc	r4, {r0, r6, r8, r9, ip, lr}^
    384c:	58414d5f 	stmdapl	r1, {r0, r1, r2, r3, r4, r6, r8, sl, fp, lr}^
    3850:	2d205f5f 	stccs	15, cr5, [r0, #-380]!	@ 0xfffffe84
    3854:	00293120 	eoreq	r3, r9, r0, lsr #2
    3858:	544e495f 	strbpl	r4, [lr], #-2399	@ 0xfffff6a1
    385c:	5f525450 	svcpl	0x00525450
    3860:	45445f54 	strbmi	r5, [r4, #-3924]	@ 0xfffff0ac
    3864:	52414c43 	subpl	r4, r1, #17152	@ 0x4300
    3868:	00204445 	eoreq	r4, r0, r5, asr #8
    386c:	52415f5f 	subpl	r5, r1, #380	@ 0x17c
    3870:	52415f4d 	subpl	r5, r1, #308	@ 0x134
    3874:	505f4843 	subspl	r4, pc, r3, asr #16
    3878:	49464f52 	stmdbmi	r6, {r1, r4, r6, r8, r9, sl, fp, lr}^
    387c:	3720454c 	strcc	r4, [r0, -ip, asr #10]!
    3880:	5f5f0037 	svcpl	0x005f0037
    3884:	5f544e49 	svcpl	0x00544e49
    3888:	54534146 	ldrbpl	r4, [r3], #-326	@ 0xfffffeba
    388c:	49575f38 	ldmdbmi	r7, {r3, r4, r5, r8, r9, sl, fp, ip, lr}^
    3890:	5f485444 	svcpl	0x00485444
    3894:	3233205f 	eorscc	r2, r3, #95	@ 0x5f
    3898:	52545000 	subspl	r5, r4, #0
    389c:	46464944 	strbmi	r4, [r6], -r4, asr #18
    38a0:	4e494d5f 	mcrmi	13, 2, r4, cr9, cr15, {2}
    38a4:	502d2820 	eorpl	r2, sp, r0, lsr #16
    38a8:	49445254 	stmdbmi	r4, {r2, r4, r6, r9, ip, lr}^
    38ac:	4d5f4646 	ldclmi	6, cr4, [pc, #-280]	@ 379c <__max_heap_size+0x339c>
    38b0:	2d205841 	stccs	8, cr5, [r0, #-260]!	@ 0xfffffefc
    38b4:	00293120 	eoreq	r3, r9, r0, lsr #2
    38b8:	4c465f5f 	stclmi	15, cr5, [r6], {95}	@ 0x5f
    38bc:	494d5f54 	stmdbmi	sp, {r2, r4, r6, r8, r9, sl, fp, ip, lr}^
    38c0:	58455f4e 	stmdapl	r5, {r1, r2, r3, r6, r8, r9, sl, fp, ip, lr}^
    38c4:	205f5f50 	subscs	r5, pc, r0, asr pc	@ <UNPREDICTABLE>
    38c8:	32312d28 	eorscc	r2, r1, #40, 26	@ 0xa00
    38cc:	5f002935 	svcpl	0x00002935
    38d0:	4d52415f 	ldclmi	1, cr4, [r2, #-380]	@ 0xfffffe84
    38d4:	4145465f 	cmpmi	r5, pc, asr r6
    38d8:	45525554 	ldrbmi	r5, [r2, #-1364]	@ 0xfffffaac
    38dc:	54414d5f 	strbpl	r4, [r1], #-3423	@ 0xfffff2a1
    38e0:	5f4c554d 	svcpl	0x004c554d
    38e4:	38544e49 	ldmdacc	r4, {r0, r3, r6, r9, sl, fp, lr}^
    38e8:	505f5f00 	subspl	r5, pc, r0, lsl #30
    38ec:	5849534f 	stmdapl	r9, {r0, r1, r2, r3, r6, r8, r9, ip, lr}^
    38f0:	5349565f 	cmppl	r9, #99614720	@ 0x5f00000
    38f4:	454c4249 	strbmi	r4, [ip, #-585]	@ 0xfffffdb7
    38f8:	5f003020 	svcpl	0x00003020
    38fc:	4345445f 	cmpmi	r5, #1593835520	@ 0x5f000000
    3900:	4c414d49 	stclmi	13, cr4, [r1], {73}	@ 0x49
    3904:	4749445f 			@ <UNDEFINED> instruction: 0x4749445f
    3908:	31205f5f 			@ <UNDEFINED> instruction: 0x31205f5f
    390c:	5f5f0037 	svcpl	0x005f0037
    3910:	33544e49 	cmpcc	r4, #1168	@ 0x490
    3914:	28435f32 	stmdacs	r3, {r1, r4, r5, r8, r9, sl, fp, ip, lr}^
    3918:	63202963 			@ <UNDEFINED> instruction: 0x63202963
    391c:	20232320 	eorcs	r2, r3, r0, lsr #6
    3920:	495f004c 	ldmdbmi	pc, {r2, r3, r6}^	@ <UNPREDICTABLE>
    3924:	3436544e 	ldrtcc	r5, [r6], #-1102	@ 0xfffffbb2
    3928:	445f545f 	ldrbmi	r5, [pc], #-1119	@ 3930 <__max_heap_size+0x3530>
    392c:	414c4345 	cmpmi	ip, r5, asr #6
    3930:	20444552 	subcs	r4, r4, r2, asr r5
    3934:	75727400 	ldrbvc	r7, [r2, #-1024]!	@ 0xfffffc00
    3938:	00312065 	eorseq	r2, r1, r5, rrx
    393c:	54535f5f 	ldrbpl	r5, [r3], #-3935	@ 0xfffff0a1
    3940:	54434952 	strbpl	r4, [r3], #-2386	@ 0xfffff6ae
    3944:	534e415f 	cmppl	lr, #-1073741801	@ 0xc0000017
    3948:	205f5f49 	subscs	r5, pc, r9, asr #30
    394c:	5f5f0031 	svcpl	0x005f0031
    3950:	5f4d5241 	svcpl	0x004d5241
    3954:	54414546 	strbpl	r4, [r1], #-1350	@ 0xfffffaba
    3958:	5f455255 	svcpl	0x00455255
    395c:	54554150 	ldrbpl	r4, [r5], #-336	@ 0xfffffeb0
    3960:	50470048 	subpl	r0, r7, r8, asr #32
    3964:	5f414f49 	svcpl	0x00414f49
    3968:	45444f4d 	strbmi	r4, [r4, #-3917]	@ 0xfffff0b3
    396c:	47282052 			@ <UNDEFINED> instruction: 0x47282052
    3970:	414f4950 	cmpmi	pc, r0, asr r9	@ <UNPREDICTABLE>
    3974:	5341425f 	cmppl	r1, #-268435451	@ 0xf0000005
    3978:	202b2045 	eorcs	r2, fp, r5, asr #32
    397c:	4f495047 	svcmi	0x00495047
    3980:	4f4d5f41 	svcmi	0x004d5f41
    3984:	5f524544 	svcpl	0x00524544
    3988:	5346464f 	cmppl	r6, #82837504	@ 0x4f00000
    398c:	00295445 	eoreq	r5, r9, r5, asr #8
    3990:	444c5f5f 	strbmi	r5, [ip], #-3935	@ 0xfffff0a1
    3994:	4d5f4c42 	ldclmi	12, cr4, [pc, #-264]	@ 3894 <__max_heap_size+0x3494>
    3998:	315f5841 	cmpcc	pc, r1, asr #16
    399c:	58455f30 	stmdapl	r5, {r4, r5, r8, r9, sl, fp, ip, lr}^
    39a0:	205f5f50 	subscs	r5, pc, r0, asr pc	@ <UNPREDICTABLE>
    39a4:	00383033 	eorseq	r3, r8, r3, lsr r0
    39a8:	4c465f5f 	stclmi	15, cr5, [r6], {95}	@ 0x5f
    39ac:	58323354 	ldmdapl	r2!, {r2, r4, r6, r8, r9, ip, sp}
    39b0:	58414d5f 	stmdapl	r1, {r0, r1, r2, r3, r4, r6, r8, sl, fp, lr}^
    39b4:	5f30315f 	svcpl	0x0030315f
    39b8:	5f505845 	svcpl	0x00505845
    39bc:	3033205f 	eorscc	r2, r3, pc, asr r0
    39c0:	5f5f0038 	svcpl	0x005f0038
    39c4:	544e4955 	strbpl	r4, [lr], #-2389	@ 0xfffff6ab
    39c8:	5f525450 	svcpl	0x00525450
    39cc:	5f58414d 	svcpl	0x0058414d
    39d0:	7830205f 	ldmdavc	r0!, {r0, r1, r2, r3, r4, r6, sp}
    39d4:	66666666 	strbtvs	r6, [r6], -r6, ror #12
    39d8:	66666666 	strbtvs	r6, [r6], -r6, ror #12
    39dc:	5f5f0055 	svcpl	0x005f0055
    39e0:	5f4c4244 	svcpl	0x004c4244
    39e4:	5f534148 	svcpl	0x00534148
    39e8:	4f4e4544 	svcmi	0x004e4544
    39ec:	5f5f4d52 	svcpl	0x005f4d52
    39f0:	5f003120 	svcpl	0x00003120
    39f4:	554e475f 	strbpl	r4, [lr, #-1887]	@ 0xfffff8a1
    39f8:	58455f43 	stmdapl	r5, {r0, r1, r6, r8, r9, sl, fp, ip, lr}^
    39fc:	54554345 	ldrbpl	r4, [r5], #-837	@ 0xfffffcbb
    3a00:	5f4e4f49 	svcpl	0x004e4f49
    3a04:	52414843 	subpl	r4, r1, #4390912	@ 0x430000
    3a08:	5f544553 	svcpl	0x00544553
    3a0c:	454d414e 	strbmi	r4, [sp, #-334]	@ 0xfffffeb2
    3a10:	54552220 	ldrbpl	r2, [r5], #-544	@ 0xfffffde0
    3a14:	22382d46 	eorscs	r2, r8, #4480	@ 0x1180
    3a18:	685f5f00 	ldmdavs	pc, {r8, r9, sl, fp, ip, lr}^	@ <UNPREDICTABLE>
    3a1c:	5f657661 	svcpl	0x00657661
    3a20:	676e6f6c 	strbvs	r6, [lr, -ip, ror #30]!
    3a24:	676e6f6c 	strbvs	r6, [lr, -ip, ror #30]!
    3a28:	31203436 			@ <UNDEFINED> instruction: 0x31203436
    3a2c:	4e495500 	cdpmi	5, 4, cr5, cr9, cr0, {0}
    3a30:	4d5f3854 	ldclmi	8, cr3, [pc, #-336]	@ 38e8 <__max_heap_size+0x34e8>
    3a34:	28205841 	stmdacs	r0!, {r0, r6, fp, ip, lr}
    3a38:	49555f5f 	ldmdbmi	r5, {r0, r1, r2, r3, r4, r6, r8, r9, sl, fp, ip, lr}^
    3a3c:	5f38544e 	svcpl	0x0038544e
    3a40:	5f58414d 	svcpl	0x0058414d
    3a44:	5f00295f 	svcpl	0x0000295f
    3a48:	4d52415f 	ldclmi	1, cr4, [r2, #-380]	@ 0xfffffe84
    3a4c:	4145465f 	cmpmi	r5, pc, asr r6
    3a50:	45525554 	ldrbmi	r5, [r2, #-1364]	@ 0xfffffaac
    3a54:	4352435f 	cmpmi	r2, #2080374785	@ 0x7c000001
    3a58:	5f003233 	svcpl	0x00003233
    3a5c:	544c465f 	strbpl	r4, [ip], #-1631	@ 0xfffff9a1
    3a60:	4d5f3233 	ldclmi	2, cr3, [pc, #-204]	@ 399c <__max_heap_size+0x359c>
    3a64:	315f5841 	cmpcc	pc, r1, asr #16
    3a68:	58455f30 	stmdapl	r5, {r4, r5, r8, r9, sl, fp, ip, lr}^
    3a6c:	205f5f50 	subscs	r5, pc, r0, asr pc	@ <UNPREDICTABLE>
    3a70:	49003833 	stmdbmi	r0, {r0, r1, r4, r5, fp, ip, sp}
    3a74:	5f38544e 	svcpl	0x0038544e
    3a78:	204e494d 	subcs	r4, lr, sp, asr #18
    3a7c:	5f5f2d28 	svcpl	0x005f2d28
    3a80:	38544e49 	ldmdacc	r4, {r0, r3, r6, r9, sl, fp, lr}^
    3a84:	58414d5f 	stmdapl	r1, {r0, r1, r2, r3, r4, r6, r8, sl, fp, lr}^
    3a88:	2d205f5f 	stccs	15, cr5, [r0, #-380]!	@ 0xfffffe84
    3a8c:	00293120 	eoreq	r3, r9, r0, lsr #2
    3a90:	51515f5f 	cmppl	r1, pc, asr pc
    3a94:	4942465f 	stmdbmi	r2, {r0, r1, r2, r3, r4, r6, r9, sl, lr}^
    3a98:	205f5f54 	subscs	r5, pc, r4, asr pc	@ <UNPREDICTABLE>
    3a9c:	5f5f0037 	svcpl	0x005f0037
    3aa0:	4152464c 	cmpmi	r2, ip, asr #12
    3aa4:	4d5f5443 	ldclmi	4, cr5, [pc, #-268]	@ 39a0 <__max_heap_size+0x35a0>
    3aa8:	5f5f5841 	svcpl	0x005f5841
    3aac:	37583020 	ldrbcc	r3, [r8, -r0, lsr #32]
    3ab0:	46464646 	strbmi	r4, [r6], -r6, asr #12
    3ab4:	50464646 	subpl	r4, r6, r6, asr #12
    3ab8:	4c31332d 	ldcmi	3, cr3, [r1], #-180	@ 0xffffff4c
    3abc:	5f5f0052 	svcpl	0x005f0052
    3ac0:	5f4d5241 	svcpl	0x004d5241
    3ac4:	48435241 	stmdami	r3, {r0, r6, r9, ip, lr}^
    3ac8:	4d45375f 	stclmi	7, cr3, [r5, #-380]	@ 0xfffffe84
    3acc:	31205f5f 			@ <UNDEFINED> instruction: 0x31205f5f
    3ad0:	6c616600 	stclvs	6, cr6, [r1], #-0
    3ad4:	30206573 	eorcc	r6, r0, r3, ror r5
    3ad8:	544e4900 	strbpl	r4, [lr], #-2304	@ 0xfffff700
    3adc:	28435f38 	stmdacs	r3, {r3, r4, r5, r8, r9, sl, fp, ip, lr}^
    3ae0:	5f202978 	svcpl	0x00202978
    3ae4:	544e495f 	strbpl	r4, [lr], #-2399	@ 0xfffff6a1
    3ae8:	28435f38 	stmdacs	r3, {r3, r4, r5, r8, r9, sl, fp, ip, lr}^
    3aec:	5f002978 	svcpl	0x00002978
    3af0:	544e495f 	strbpl	r4, [lr], #-2399	@ 0xfffff6a1
    3af4:	41454c5f 	cmpmi	r5, pc, asr ip
    3af8:	32335453 	eorscc	r5, r3, #1392508928	@ 0x53000000
    3afc:	58414d5f 	stmdapl	r1, {r0, r1, r2, r3, r4, r6, r8, sl, fp, lr}^
    3b00:	30205f5f 	eorcc	r5, r0, pc, asr pc
    3b04:	66663778 			@ <UNDEFINED> instruction: 0x66663778
    3b08:	66666666 	strbtvs	r6, [r6], -r6, ror #12
    3b0c:	55004c66 	strpl	r4, [r0, #-3174]	@ 0xfffff39a
    3b10:	5f544e49 	svcpl	0x00544e49
    3b14:	54534146 	ldrbpl	r4, [r3], #-326	@ 0xfffffeba
    3b18:	4d5f3631 	ldclmi	6, cr3, [pc, #-196]	@ 3a5c <__max_heap_size+0x365c>
    3b1c:	28205841 	stmdacs	r0!, {r0, r6, fp, ip, lr}
    3b20:	49555f5f 	ldmdbmi	r5, {r0, r1, r2, r3, r4, r6, r8, r9, sl, fp, ip, lr}^
    3b24:	465f544e 	ldrbmi	r5, [pc], -lr, asr #8
    3b28:	31545341 	cmpcc	r4, r1, asr #6
    3b2c:	414d5f36 	cmpmi	sp, r6, lsr pc
    3b30:	295f5f58 	ldmdbcs	pc, {r3, r4, r6, r8, r9, sl, fp, ip, lr}^	@ <UNPREDICTABLE>
    3b34:	6e6f6c00 	cdpvs	12, 6, cr6, cr15, cr0, {0}
    3b38:	342b2067 	strtcc	r2, [fp], #-103	@ 0xffffff99
    3b3c:	555f5f00 	ldrbpl	r5, [pc, #-3840]	@ 2c44 <__max_heap_size+0x2844>
    3b40:	4d544e49 	ldclmi	14, cr4, [r4, #-292]	@ 0xfffffedc
    3b44:	4d5f5841 	ldclmi	8, cr5, [pc, #-260]	@ 3a48 <__max_heap_size+0x3648>
    3b48:	5f5f5841 	svcpl	0x005f5841
    3b4c:	66783020 	ldrbtvs	r3, [r8], -r0, lsr #32
    3b50:	66666666 	strbtvs	r6, [r6], -r6, ror #12
    3b54:	66666666 	strbtvs	r6, [r6], -r6, ror #12
    3b58:	66666666 	strbtvs	r6, [r6], -r6, ror #12
    3b5c:	55666666 	strbpl	r6, [r6, #-1638]!	@ 0xfffff99a
    3b60:	5f004c4c 	svcpl	0x00004c4c
    3b64:	4749535f 			@ <UNDEFINED> instruction: 0x4749535f
    3b68:	4f54415f 	svcmi	0x0054415f
    3b6c:	5f43494d 	svcpl	0x0043494d
    3b70:	45505954 	ldrbmi	r5, [r0, #-2388]	@ 0xfffff6ac
    3b74:	69205f5f 	stmdbvs	r0!, {r0, r1, r2, r3, r4, r6, r8, r9, sl, fp, ip, lr}
    3b78:	5f00746e 	svcpl	0x0000746e
    3b7c:	464c4c5f 			@ <UNDEFINED> instruction: 0x464c4c5f
    3b80:	54434152 	strbpl	r4, [r3], #-338	@ 0xfffffeae
    3b84:	4e494d5f 	mcrmi	13, 2, r4, cr9, cr15, {2}
    3b88:	28205f5f 	stmdacs	r0!, {r0, r1, r2, r3, r4, r6, r8, r9, sl, fp, ip, lr}
    3b8c:	352e302d 	strcc	r3, [lr, #-45]!	@ 0xffffffd3
    3b90:	2d524c4c 	ldclcs	12, cr4, [r2, #-304]	@ 0xfffffed0
    3b94:	4c352e30 	ldcmi	14, cr2, [r5], #-192	@ 0xffffff40
    3b98:	0029524c 	eoreq	r5, r9, ip, asr #4
    3b9c:	52415f5f 	subpl	r5, r1, #380	@ 0x17c
    3ba0:	45465f4d 	strbmi	r5, [r6, #-3917]	@ 0xfffff0b3
    3ba4:	52555441 	subspl	r5, r5, #1090519040	@ 0x41000000
    3ba8:	4d465f45 	stclmi	15, cr5, [r6, #-276]	@ 0xfffffeec
    3bac:	00312041 	eorseq	r2, r1, r1, asr #32
    3bb0:	4c555f5f 	ldclmi	15, cr5, [r5], {95}	@ 0x5f
    3bb4:	4152464c 	cmpmi	r2, ip, asr #12
    3bb8:	455f5443 	ldrbmi	r5, [pc, #-1091]	@ 377d <__max_heap_size+0x337d>
    3bbc:	4c495350 	stclmi	3, cr5, [r9], {80}	@ 0x50
    3bc0:	5f5f4e4f 	svcpl	0x005f4e4f
    3bc4:	31783020 	cmncc	r8, r0, lsr #32
    3bc8:	34362d50 	ldrtcc	r2, [r6], #-3408	@ 0xfffff2b0
    3bcc:	524c4c55 	subpl	r4, ip, #21760	@ 0x5500
    3bd0:	4c5f5f00 	ldclmi	15, cr5, [pc], {-0}
    3bd4:	5f4c4244 	svcpl	0x004c4244
    3bd8:	5f534148 	svcpl	0x00534148
    3bdc:	4f4e4544 	svcmi	0x004e4544
    3be0:	5f5f4d52 	svcpl	0x005f4d52
    3be4:	5f003120 	svcpl	0x00003120
    3be8:	4e49555f 	mcrmi	5, 2, r5, cr9, cr15, {2}
    3bec:	454c5f54 	strbmi	r5, [ip, #-3924]	@ 0xfffff0ac
    3bf0:	31545341 	cmpcc	r4, r1, asr #6
    3bf4:	414d5f36 	cmpmi	sp, r6, lsr pc
    3bf8:	205f5f58 	subscs	r5, pc, r8, asr pc	@ <UNPREDICTABLE>
    3bfc:	66667830 			@ <UNDEFINED> instruction: 0x66667830
    3c00:	5f006666 	svcpl	0x00006666
    3c04:	42444c5f 	submi	r4, r4, #24320	@ 0x5f00
    3c08:	4f4e5f4c 	svcmi	0x004e5f4c
    3c0c:	4d5f4d52 	ldclmi	13, cr4, [pc, #-328]	@ 3acc <__max_heap_size+0x36cc>
    3c10:	5f5f5841 	svcpl	0x005f5841
    3c14:	372e3120 	strcc	r3, [lr, -r0, lsr #2]!
    3c18:	39363739 	ldmdbcc	r6!, {r0, r3, r4, r5, r8, r9, sl, ip, sp}
    3c1c:	34333133 	ldrtcc	r3, [r3], #-307	@ 0xfffffecd
    3c20:	33323638 	teqcc	r2, #56, 12	@ 0x3800000
    3c24:	65373531 	ldrvs	r3, [r7, #-1329]!	@ 0xfffffacf
    3c28:	3830332b 	ldmdacc	r0!, {r0, r1, r3, r5, r8, r9, ip, sp}
    3c2c:	5f5f004c 	svcpl	0x005f004c
    3c30:	414c4c55 	cmpmi	ip, r5, asr ip
    3c34:	4d554343 	ldclmi	3, cr4, [r5, #-268]	@ 0xfffffef4
    3c38:	5350455f 	cmppl	r0, #398458880	@ 0x17c00000
    3c3c:	4e4f4c49 	cdpmi	12, 4, cr4, cr15, cr9, {2}
    3c40:	30205f5f 	eorcc	r5, r0, pc, asr pc
    3c44:	2d503178 	ldclcs	1, cr3, [r0, #-480]	@ 0xfffffe20
    3c48:	4c553233 	ldclmi	2, cr3, [r5], {51}	@ 0x33
    3c4c:	5f004b4c 	svcpl	0x00004b4c
    3c50:	4153555f 	cmpmi	r3, pc, asr r5
    3c54:	4d554343 	ldclmi	3, cr4, [r5, #-268]	@ 0xfffffef4
    3c58:	4942465f 	stmdbmi	r2, {r0, r1, r2, r3, r4, r6, r9, sl, lr}^
    3c5c:	205f5f54 	subscs	r5, pc, r4, asr pc	@ <UNPREDICTABLE>
    3c60:	5f5f0038 	svcpl	0x005f0038
    3c64:	5f544c46 	svcpl	0x00544c46
    3c68:	5f534148 	svcpl	0x00534148
    3c6c:	4f4e4544 	svcmi	0x004e4544
    3c70:	5f5f4d52 	svcpl	0x005f4d52
    3c74:	5f003120 	svcpl	0x00003120
    3c78:	544e495f 	strbpl	r4, [lr], #-2399	@ 0xfffff6a1
    3c7c:	5341465f 	cmppl	r1, #99614720	@ 0x5f00000
    3c80:	5f343654 	svcpl	0x00343654
    3c84:	54444957 	strbpl	r4, [r4], #-2391	@ 0xfffff6a9
    3c88:	205f5f48 	subscs	r5, pc, r8, asr #30
    3c8c:	5f003436 	svcpl	0x00003436
    3c90:	4c42445f 	stclmi	4, cr4, [r2], {95}	@ 0x5f
    3c94:	4345445f 	cmpmi	r5, #1593835520	@ 0x5f000000
    3c98:	4c414d49 	stclmi	13, cr4, [r1], {73}	@ 0x49
    3c9c:	4749445f 			@ <UNDEFINED> instruction: 0x4749445f
    3ca0:	31205f5f 			@ <UNDEFINED> instruction: 0x31205f5f
    3ca4:	72730037 	rsbsvc	r0, r3, #55	@ 0x37
    3ca8:	74705f63 	ldrbtvc	r5, [r0], #-3939	@ 0xfffff09d
    3cac:	5f5f0072 	svcpl	0x005f0072
    3cb0:	5f737362 	svcpl	0x00737362
    3cb4:	72617473 	rsbvc	r7, r1, #1929379840	@ 0x73000000
    3cb8:	005f5f74 	subseq	r5, pc, r4, ror pc	@ <UNPREDICTABLE>
    3cbc:	73625f5f 	cmnvc	r2, #380	@ 0x17c
    3cc0:	6e655f73 	mcrvs	15, 3, r5, cr5, cr3, {3}
    3cc4:	005f5f64 	subseq	r5, pc, r4, ror #30
    3cc8:	632f2e2e 			@ <UNDEFINED> instruction: 0x632f2e2e
    3ccc:	7365726f 	cmnvc	r5, #-268435450	@ 0xf0000006
    3cd0:	732f7379 			@ <UNDEFINED> instruction: 0x732f7379
    3cd4:	74726174 	ldrbtvc	r6, [r2], #-372	@ 0xfffffe8c
    3cd8:	732f7075 			@ <UNDEFINED> instruction: 0x732f7075
    3cdc:	74726174 	ldrbtvc	r6, [r2], #-372	@ 0xfffffe8c
    3ce0:	632e7075 			@ <UNDEFINED> instruction: 0x632e7075
    3ce4:	41545300 	cmpmi	r4, r0, lsl #6
    3ce8:	535f4b43 	cmppl	pc, #68608	@ 0x10c00
    3cec:	54524154 	ldrbpl	r4, [r2], #-340	@ 0xfffffeac
    3cf0:	52532820 	subspl	r2, r3, #32, 16	@ 0x200000
    3cf4:	455f4d41 	ldrbmi	r4, [pc, #-3393]	@ 2fbb <__max_heap_size+0x2bbb>
    3cf8:	0029444e 	eoreq	r4, r9, lr, asr #8
    3cfc:	6e756f63 	cdpvs	15, 7, cr6, cr5, cr3, {3}
    3d00:	00726574 	rsbseq	r6, r2, r4, ror r5
    3d04:	6469735f 	strbtvs	r7, [r9], #-863	@ 0xfffffca1
    3d08:	00617461 	rsbeq	r7, r1, r1, ror #8
    3d0c:	5f747364 	svcpl	0x00747364
    3d10:	00727470 	rsbseq	r7, r2, r0, ror r4
    3d14:	61666564 	cmnvs	r6, r4, ror #10
    3d18:	5f746c75 	svcpl	0x00746c75
    3d1c:	646e6168 	strbtvs	r6, [lr], #-360	@ 0xfffffe98
    3d20:	0072656c 	rsbseq	r6, r2, ip, ror #10
    3d24:	74636576 	strbtvc	r6, [r3], #-1398	@ 0xfffffa8a
    3d28:	0073726f 	rsbseq	r7, r3, pc, ror #4
    3d2c:	4d415253 	stclmi	2, cr5, [r1, #-332]	@ 0xfffffeb4
    3d30:	444e455f 	strbmi	r4, [lr], #-1375	@ 0xfffffaa1
    3d34:	53282820 			@ <UNDEFINED> instruction: 0x53282820
    3d38:	5f4d4152 	svcpl	0x004d4152
    3d3c:	52415453 	subpl	r5, r1, #1392508928	@ 0x53000000
    3d40:	2b202954 	blcs	80e298 <__max_heap_size+0x80de98>
    3d44:	52532820 	subspl	r2, r3, #32, 16	@ 0x200000
    3d48:	535f4d41 	cmppl	pc, #4160	@ 0x1040
    3d4c:	29455a49 	stmdbcs	r5, {r0, r3, r6, r9, fp, ip, lr}^
    3d50:	65720029 	ldrbvs	r0, [r2, #-41]!	@ 0xffffffd7
    3d54:	5f746573 	svcpl	0x00746573
    3d58:	646e6168 	strbtvs	r6, [lr], #-360	@ 0xfffffe98
    3d5c:	0072656c 	rsbseq	r6, r2, ip, ror #10
    3d60:	4d415253 	stclmi	2, cr5, [r1, #-332]	@ 0xfffffeb4
    3d64:	5a49535f 	bpl	1258ae8 <__max_heap_size+0x12586e8>
    3d68:	39282045 	stmdbcc	r8!, {r0, r2, r6, sp}
    3d6c:	202a2036 	eorcs	r2, sl, r6, lsr r0
    3d70:	34323031 	ldrtcc	r3, [r2], #-49	@ 0xffffffcf
    3d74:	655f0029 	ldrbvs	r0, [pc, #-41]	@ 3d53 <__max_heap_size+0x3953>
    3d78:	61746164 	cmnvs	r4, r4, ror #2
    3d7c:	755f5f00 	ldrbvc	r5, [pc, #-3840]	@ 2e84 <__max_heap_size+0x2a84>
    3d80:	38746e69 	ldmdacc	r4!, {r0, r3, r5, r6, r9, sl, fp, sp, lr}^
    3d84:	5f00745f 	svcpl	0x0000745f
    3d88:	74616473 	strbtvc	r6, [r1], #-1139	@ 0xfffffb8d
    3d8c:	52530061 	subspl	r0, r3, #97	@ 0x61
    3d90:	535f4d41 	cmppl	pc, #4160	@ 0x1040
    3d94:	54524154 	ldrbpl	r4, [r2], #-340	@ 0xfffffeac
    3d98:	32783020 	rsbscc	r3, r8, #32
    3d9c:	30303030 	eorscc	r3, r0, r0, lsr r0
    3da0:	55303030 	ldrpl	r3, [r0, #-48]!	@ 0xffffffd0
    3da4:	6c5f5f00 	ldclvs	15, cr5, [pc], {-0}
    3da8:	5f636269 	svcpl	0x00636269
    3dac:	74696e69 	strbtvc	r6, [r9], #-3689	@ 0xfffff197
    3db0:	7272615f 	rsbsvc	r6, r2, #-1073741801	@ 0xc0000017
    3db4:	56007961 	strpl	r7, [r0], -r1, ror #18
    3db8:	4f544345 	svcmi	0x00544345
    3dbc:	41545f52 	cmpmi	r4, r2, asr pc
    3dc0:	5f454c42 	svcpl	0x00454c42
    3dc4:	204e454c 	subcs	r4, lr, ip, asr #10
    3dc8:	5f003438 	svcpl	0x00003438
    3dcc:	554e475f 	strbpl	r4, [lr, #-1887]	@ 0xfffff8a1
    3dd0:	4b494c43 	blmi	1256ee4 <__max_heap_size+0x1256ae4>
    3dd4:	5f5f5f45 	svcpl	0x005f5f45
    3dd8:	54434553 	strbpl	r4, [r3], #-1363	@ 0xfffffaad
    3ddc:	204e4f49 	subcs	r4, lr, r9, asr #30
    3de0:	5f5f0031 	svcpl	0x005f0031
    3de4:	6c697562 	stclvs	5, cr7, [r9], #-392	@ 0xfffffe78
    3de8:	5f6e6974 	svcpl	0x006e6974
    3dec:	615f7369 	cmpvs	pc, r9, ror #6
    3df0:	6e67696c 			@ <UNDEFINED> instruction: 0x6e67696c
    3df4:	78286465 	stmdavc	r8!, {r0, r2, r5, r6, sl, sp, lr}
    3df8:	696c612c 	stmdbvs	ip!, {r2, r3, r5, r8, sp, lr}^
    3dfc:	20296e67 	eorcs	r6, r9, r7, ror #28
    3e00:	5f282828 	svcpl	0x00282828
    3e04:	6e69755f 	mcrvs	5, 3, r7, cr9, cr15, {2}
    3e08:	72747074 	rsbsvc	r7, r4, #116	@ 0x74
    3e0c:	7829745f 	stmdavc	r9!, {r0, r1, r2, r3, r4, r6, sl, ip, sp, lr}
    3e10:	28202620 	stmdacs	r0!, {r5, r9, sl, sp}
    3e14:	696c6128 	stmdbvs	ip!, {r3, r5, r8, sp, lr}^
    3e18:	20296e67 	eorcs	r6, r9, r7, ror #28
    3e1c:	2931202d 	ldmdbcs	r1!, {r0, r2, r3, r5, sp}
    3e20:	3d3d2029 	ldccc	0, cr2, [sp, #-164]!	@ 0xffffff5c
    3e24:	00293020 	eoreq	r3, r9, r0, lsr #32
    3e28:	43435f5f 	cmpmi	r3, #380	@ 0x17c
    3e2c:	5055535f 	subspl	r5, r5, pc, asr r3
    3e30:	54524f50 	ldrbpl	r4, [r2], #-3920	@ 0xfffff0b0
    3e34:	4e495f53 	mcrmi	15, 2, r5, cr9, cr3, {2}
    3e38:	454e494c 	strbmi	r4, [lr, #-2380]	@ 0xfffff6b4
    3e3c:	5f003120 	svcpl	0x00003120
    3e40:	7a697373 	bvc	1a60c14 <__max_heap_size+0x1a60814>
    3e44:	00745f65 	rsbseq	r5, r4, r5, ror #30
    3e48:	65725f5f 	ldrbvs	r5, [r2, #-3935]!	@ 0xfffff0a1
    3e4c:	72697571 	rsbvc	r7, r9, #473956352	@ 0x1c400000
    3e50:	655f7365 	ldrbvs	r7, [pc, #-869]	@ 3af3 <__max_heap_size+0x36f3>
    3e54:	756c6378 	strbvc	r6, [ip, #-888]!	@ 0xfffffc88
    3e58:	65766973 	ldrbvs	r6, [r6, #-2419]!	@ 0xfffff68d
    3e5c:	2e2e2e28 	cdpcs	14, 2, cr2, cr14, cr8, {1}
    3e60:	5f5f2029 	svcpl	0x005f2029
    3e64:	6b636f6c 	blvs	18dfc1c <__max_heap_size+0x18df81c>
    3e68:	6e6e615f 	mcrvs	1, 3, r6, cr14, cr15, {2}
    3e6c:	7461746f 	strbtvc	r7, [r1], #-1135	@ 0xfffffb91
    3e70:	78652865 	stmdavc	r5!, {r0, r2, r5, r6, fp, sp}^
    3e74:	73756c63 	cmnvc	r5, #25344	@ 0x6300
    3e78:	5f657669 	svcpl	0x00657669
    3e7c:	6b636f6c 	blvs	18dfc34 <__max_heap_size+0x18df834>
    3e80:	65725f73 	ldrbvs	r5, [r2, #-3955]!	@ 0xfffff08d
    3e84:	72697571 	rsbvc	r7, r9, #473956352	@ 0x1c400000
    3e88:	5f286465 	svcpl	0x00286465
    3e8c:	5f41565f 	svcpl	0x0041565f
    3e90:	53475241 	cmppl	r7, #268435460	@ 0x10000004
    3e94:	29295f5f 	stmdbcs	r9!, {r0, r1, r2, r3, r4, r6, r8, r9, sl, fp, ip, lr}
    3e98:	6c5f5f00 	ldclvs	15, cr5, [pc], {-0}
    3e9c:	616b636f 	cmnvs	fp, pc, ror #6
    3ea0:	20656c62 	rsbcs	r6, r5, r2, ror #24
    3ea4:	6f6c5f5f 	svcvs	0x006c5f5f
    3ea8:	615f6b63 	cmpvs	pc, r3, ror #22
    3eac:	746f6e6e 	strbtvc	r6, [pc], #-3694	@ 3eb4 <__max_heap_size+0x3ab4>
    3eb0:	28657461 	stmdacs	r5!, {r0, r5, r6, sl, ip, sp, lr}^
    3eb4:	6b636f6c 	blvs	18dfc6c <__max_heap_size+0x18df86c>
    3eb8:	656c6261 	strbvs	r6, [ip, #-609]!	@ 0xfffffd9f
    3ebc:	74730029 	ldrbtvc	r0, [r3], #-41	@ 0xffffffd7
    3ec0:	6974635f 	ldmdbvs	r4!, {r0, r1, r2, r3, r4, r6, r8, r9, sp, lr}^
    3ec4:	505f006d 	subspl	r0, pc, sp, rrx
    3ec8:	414e5f43 	cmpmi	lr, r3, asr #30
    3ecc:	4d5f454d 	ldclmi	5, cr4, [pc, #-308]	@ 3da0 <__max_heap_size+0x39a0>
    3ed0:	33205841 			@ <UNDEFINED> instruction: 0x33205841
    3ed4:	4f4c5f00 	svcmi	0x004c5f00
    3ed8:	445f474e 	ldrbmi	r4, [pc], #-1870	@ 3ee0 <__max_heap_size+0x3ae0>
    3edc:	4c42554f 	stclmi	5, cr5, [r2], {79}	@ 0x4f
    3ee0:	6f6c2045 	svcvs	0x006c2045
    3ee4:	6420676e 	strtvs	r6, [r0], #-1902	@ 0xfffff892
    3ee8:	6c62756f 	stclvs	5, cr7, [r2], #-444	@ 0xfffffe44
    3eec:	725f0065 	subsvc	r0, pc, #101	@ 0x65
    3ef0:	00646165 	rsbeq	r6, r4, r5, ror #2
    3ef4:	625f7473 	subsvs	r7, pc, #1929379840	@ 0x73000000
    3ef8:	6b636f6c 	blvs	18dfcb0 <__max_heap_size+0x18df8b0>
    3efc:	525f0073 	subspl	r0, pc, #115	@ 0x73
    3f00:	34444e41 	strbcc	r4, [r4], #-3649	@ 0xfffff1bf
    3f04:	554d5f38 	strbpl	r5, [sp, #-3896]	@ 0xfffff0c8
    3f08:	305f544c 	subscc	r5, pc, ip, asr #8
    3f0c:	78302820 	ldmdavc	r0!, {r5, fp, sp}
    3f10:	64363665 	ldrtvs	r3, [r6], #-1637	@ 0xfffff99b
    3f14:	45530029 	ldrbmi	r0, [r3, #-41]	@ 0xffffffd7
    3f18:	535f4b45 	cmppl	pc, #70656	@ 0x11400
    3f1c:	30205445 	eorcc	r5, r0, r5, asr #8
    3f20:	45525f00 	ldrbmi	r5, [r2, #-3840]	@ 0xfffff100
    3f24:	5f544e45 	svcpl	0x00544e45
    3f28:	4e474953 			@ <UNDEFINED> instruction: 0x4e474953
    3f2c:	535f4c41 	cmppl	pc, #16640	@ 0x4100
    3f30:	20455a49 	subcs	r5, r5, r9, asr #20
    3f34:	5f003432 	svcpl	0x00003432
    3f38:	585f4353 	ldmdapl	pc, {r0, r1, r4, r6, r8, r9, lr}^	@ <UNPREDICTABLE>
    3f3c:	4e45504f 	cdpmi	0, 4, cr5, cr5, cr15, {2}
    3f40:	484e455f 	stmdami	lr, {r0, r1, r2, r3, r4, r6, r8, sl, lr}^
    3f44:	3831495f 	ldmdacc	r1!, {r0, r1, r2, r3, r4, r6, r8, fp, lr}
    3f48:	3739204e 	ldrcc	r2, [r9, -lr, asr #32]!
    3f4c:	6d4b5f00 	stclvs	15, cr5, [fp, #-0]
    3f50:	28207861 	stmdacs	r0!, {r0, r5, r6, fp, ip, sp, lr}
    3f54:	657a6973 	ldrbvs	r6, [sl, #-2419]!	@ 0xfffff68d
    3f58:	2820666f 	stmdacs	r0!, {r0, r1, r2, r3, r5, r6, r9, sl, sp, lr}
    3f5c:	657a6973 	ldrbvs	r6, [sl, #-2419]!	@ 0xfffff68d
    3f60:	2029745f 	eorcs	r7, r9, pc, asr r4
    3f64:	33203c3c 			@ <UNDEFINED> instruction: 0x33203c3c
    3f68:	5f5f0029 	svcpl	0x005f0029
    3f6c:	434e4f43 	cmpmi	lr, #268	@ 0x10c
    3f70:	78285441 	stmdavc	r8!, {r0, r6, sl, ip, lr}
    3f74:	2029792c 	eorcs	r7, r9, ip, lsr #18
    3f78:	4f435f5f 	svcmi	0x00435f5f
    3f7c:	5441434e 	strbpl	r4, [r1], #-846	@ 0xfffffcb2
    3f80:	2c782831 	ldclcs	8, cr2, [r8], #-196	@ 0xffffff3c
    3f84:	5f002979 	svcpl	0x00002979
    3f88:	74697277 	strbtvc	r7, [r9], #-631	@ 0xfffffd89
    3f8c:	5f5f0065 	svcpl	0x005f0065
    3f90:	6b636f6c 	blvs	18dfd48 <__max_heap_size+0x18df948>
    3f94:	696e695f 	stmdbvs	lr!, {r0, r1, r2, r3, r4, r6, r8, fp, sp, lr}^
    3f98:	6f6c2874 	svcvs	0x006c2874
    3f9c:	20296b63 	eorcs	r6, r9, r3, ror #22
    3fa0:	65725f5f 	ldrbvs	r5, [r2, #-3935]!	@ 0xfffff0a1
    3fa4:	67726174 			@ <UNDEFINED> instruction: 0x67726174
    3fa8:	6c5f7465 	ldclvs	4, cr7, [pc], {101}	@ 0x65
    3fac:	5f6b636f 	svcpl	0x006b636f
    3fb0:	74696e69 	strbtvc	r6, [r9], #-3689	@ 0xfffff197
    3fb4:	6f6c2628 	svcvs	0x006c2628
    3fb8:	00296b63 	eoreq	r6, r9, r3, ror #22
    3fbc:	4e475f5f 	mcrmi	15, 2, r5, cr7, cr15, {2}
    3fc0:	494c4355 	stmdbmi	ip, {r0, r2, r4, r6, r8, r9, lr}^
    3fc4:	5f5f454b 	svcpl	0x005f454b
    3fc8:	5059545f 	subspl	r5, r9, pc, asr r4
    3fcc:	20464f45 	subcs	r4, r6, r5, asr #30
    3fd0:	535f0031 	cmppl	pc, #49	@ 0x31
    3fd4:	37565f43 	ldrbcc	r5, [r6, -r3, asr #30]
    3fd8:	504c495f 	subpl	r4, ip, pc, asr r9
    3fdc:	4f5f3233 	svcmi	0x005f3233
    3fe0:	32334646 	eorscc	r4, r3, #73400320	@ 0x4600000
    3fe4:	00323920 	eorseq	r3, r2, r0, lsr #18
    3fe8:	5f43505f 	svcpl	0x0043505f
    3fec:	53494456 	cmppl	r9, #1442840576	@ 0x56000000
    3ff0:	454c4241 	strbmi	r4, [ip, #-577]	@ 0xfffffdbf
    3ff4:	5f003820 	svcpl	0x00003820
    3ff8:	525f4350 	subspl	r4, pc, #80, 6	@ 0x40000001
    3ffc:	4d5f4345 	ldclmi	3, cr4, [pc, #-276]	@ 3ef0 <__max_heap_size+0x3af0>
    4000:	585f4e49 	ldmdapl	pc, {r0, r3, r6, r9, sl, fp, lr}^	@ <UNPREDICTABLE>
    4004:	5f524546 	svcpl	0x00524546
    4008:	455a4953 	ldrbmi	r4, [sl, #-2387]	@ 0xfffff6ad
    400c:	00383120 	eorseq	r3, r8, r0, lsr #2
    4010:	615f7473 	cmpvs	pc, r3, ror r4	@ <UNPREDICTABLE>
    4014:	656d6974 	strbvs	r6, [sp, #-2420]!	@ 0xfffff68c
    4018:	5f747320 	svcpl	0x00747320
    401c:	6d697461 	stclvs	4, cr7, [r9, #-388]!	@ 0xfffffe7c
    4020:	5f76742e 	svcpl	0x0076742e
    4024:	00636573 	rsbeq	r6, r3, r3, ror r5
    4028:	5f43535f 	svcpl	0x0043535f
    402c:	4f465f32 	svcmi	0x00465f32
    4030:	445f5452 	ldrbmi	r5, [pc], #-1106	@ 4038 <__max_heap_size+0x3c38>
    4034:	31205645 			@ <UNDEFINED> instruction: 0x31205645
    4038:	5f003031 	svcpl	0x00003031
    403c:	4e454552 	mcrmi	5, 2, r4, cr5, cr2, {2}
    4040:	56435f54 			@ <UNDEFINED> instruction: 0x56435f54
    4044:	4e454c54 	mcrmi	12, 2, r4, cr5, cr4, {2}
    4048:	74705f28 	ldrbtvc	r5, [r0], #-3880	@ 0xfffff0d8
    404c:	28202972 	stmdacs	r0!, {r1, r4, r5, r6, r8, fp, sp}
    4050:	74705f28 	ldrbtvc	r5, [r0], #-3880	@ 0xfffff0d8
    4054:	3e2d2972 			@ <UNDEFINED> instruction: 0x3e2d2972
    4058:	7476635f 	ldrbtvc	r6, [r6], #-863	@ 0xfffffca1
    405c:	296e656c 	stmdbcs	lr!, {r2, r3, r5, r6, r8, sl, sp, lr}^
    4060:	45525f00 	ldrbmi	r5, [r2, #-3840]	@ 0xfffff100
    4064:	5f544e45 	svcpl	0x00544e45
    4068:	465f504d 	ldrbmi	r5, [pc], -sp, asr #32
    406c:	4c454552 	stclmi	5, cr4, [r5], {82}	@ 0x52
    4070:	28545349 	ldmdacs	r4, {r0, r3, r6, r8, r9, ip, lr}^
    4074:	29727470 	ldmdbcs	r2!, {r4, r5, r6, sl, ip, sp, lr}^
    4078:	70282820 	eorvc	r2, r8, r0, lsr #16
    407c:	2d297274 	stccs	2, cr7, [r9, #-464]!	@ 0xfffffe30
    4080:	72665f3e 	rsbvc	r5, r6, #62, 30	@ 0xf8
    4084:	696c6565 	stmdbvs	ip!, {r0, r2, r5, r6, r8, sl, sp, lr}^
    4088:	00297473 	eoreq	r7, r9, r3, ror r4
    408c:	5f43535f 	svcpl	0x0043535f
    4090:	50555f32 	subspl	r5, r5, r2, lsr pc
    4094:	32312045 	eorscc	r2, r1, #69	@ 0x45
    4098:	535f0030 	cmppl	pc, #48	@ 0x30
    409c:	48545f43 	ldmdami	r4, {r0, r1, r6, r8, r9, sl, fp, ip, lr}^
    40a0:	44414552 	strbmi	r4, [r1], #-1362	@ 0xfffffaae
    40a4:	4952505f 	ldmdbmi	r2, {r0, r1, r2, r3, r4, r6, ip, lr}^
    40a8:	4e495f4f 	cdpmi	15, 4, cr5, cr9, cr15, {2}
    40ac:	49524548 	ldmdbmi	r2, {r3, r6, r8, sl, lr}^
    40b0:	36342054 			@ <UNDEFINED> instruction: 0x36342054
    40b4:	43535f00 	cmpmi	r3, #0, 30
    40b8:	4741505f 			@ <UNDEFINED> instruction: 0x4741505f
    40bc:	49535f45 	ldmdbmi	r3, {r0, r2, r6, r8, r9, sl, fp, ip, lr}^
    40c0:	5f20455a 	svcpl	0x0020455a
    40c4:	505f4353 	subspl	r4, pc, r3, asr r3	@ <UNPREDICTABLE>
    40c8:	53454741 	cmppl	r5, #17039360	@ 0x1040000
    40cc:	00455a49 	subeq	r5, r5, r9, asr #20
    40d0:	5f43505f 	svcpl	0x0043505f
    40d4:	545f4f4e 	ldrbpl	r4, [pc], #-3918	@ 40dc <__max_heap_size+0x3cdc>
    40d8:	434e5552 	cmpmi	lr, #343932928	@ 0x14800000
    40dc:	5f003720 	svcpl	0x00003720
    40e0:	696c615f 	stmdbvs	ip!, {r0, r1, r2, r3, r4, r6, r8, sp, lr}^
    40e4:	64656e67 	strbtvs	r6, [r5], #-3687	@ 0xfffff199
    40e8:	20297828 	eorcs	r7, r9, r8, lsr #16
    40ec:	74615f5f 	strbtvc	r5, [r1], #-3935	@ 0xfffff0a1
    40f0:	62697274 	rsbvs	r7, r9, #116, 4	@ 0x40000007
    40f4:	5f657475 	svcpl	0x00657475
    40f8:	5f28285f 	svcpl	0x0028285f
    40fc:	696c615f 	stmdbvs	ip!, {r0, r1, r2, r3, r4, r6, r8, sp, lr}^
    4100:	64656e67 	strbtvs	r6, [r5], #-3687	@ 0xfffff199
    4104:	78285f5f 	stmdavc	r8!, {r0, r1, r2, r3, r4, r6, r8, r9, sl, fp, ip, lr}
    4108:	00292929 	eoreq	r2, r9, r9, lsr #18
    410c:	6d5f7473 	ldclvs	4, cr7, [pc, #-460]	@ 3f48 <__max_heap_size+0x3b48>
    4110:	006d6974 	rsbeq	r6, sp, r4, ror r9
    4114:	656d6974 	strbvs	r6, [sp, #-2420]!	@ 0xfffff68c
    4118:	5f00745f 	svcpl	0x0000745f
    411c:	4d5f4353 	ldclmi	3, cr4, [pc, #-332]	@ 3fd8 <__max_heap_size+0x3bd8>
    4120:	52505f51 	subspl	r5, r0, #324	@ 0x144
    4124:	4d5f4f49 	ldclmi	15, cr4, [pc, #-292]	@ 4008 <__max_heap_size+0x3c08>
    4128:	31205841 			@ <UNDEFINED> instruction: 0x31205841
    412c:	505f0034 	subspl	r0, pc, r4, lsr r0	@ <UNPREDICTABLE>
    4130:	545f4449 	ldrbpl	r4, [pc], #-1097	@ 4138 <__max_heap_size+0x3d38>
    4134:	4345445f 	cmpmi	r5, #1593835520	@ 0x5f000000
    4138:	4552414c 	ldrbmi	r4, [r2, #-332]	@ 0xfffffeb4
    413c:	5f002044 	svcpl	0x00002044
    4140:	434f4c43 	cmpmi	pc, #17152	@ 0x4300
    4144:	505f534b 	subspl	r5, pc, fp, asr #6
    4148:	535f5245 	cmppl	pc, #1342177284	@ 0x50000004
    414c:	205f4345 	subscs	r4, pc, r5, asr #6
    4150:	00303031 	eorseq	r3, r0, r1, lsr r0
    4154:	6e755f5f 	mrcvs	15, 3, r5, cr5, cr15, {2}
    4158:	6e756f62 	cdpvs	15, 7, cr6, cr5, cr2, {3}
    415c:	20646564 	rsbcs	r6, r4, r4, ror #10
    4160:	625f5f00 	subsvs	r5, pc, #0, 30
    4164:	746c6975 	strbtvc	r6, [ip], #-2421	@ 0xfffff68b
    4168:	615f6e69 	cmpvs	pc, r9, ror #28
    416c:	6e67696c 			@ <UNDEFINED> instruction: 0x6e67696c
    4170:	776f645f 			@ <UNDEFINED> instruction: 0x776f645f
    4174:	2c78286e 	ldclcs	8, cr2, [r8], #-440	@ 0xfffffe48
    4178:	67696c61 	strbvs	r6, [r9, -r1, ror #24]!
    417c:	2820296e 	stmdacs	r0!, {r1, r2, r3, r5, r6, r8, fp, sp}
    4180:	745f5f28 	ldrbvc	r5, [pc], #-3880	@ 4188 <__max_heap_size+0x3d88>
    4184:	6f657079 	svcvs	0x00657079
    4188:	285f5f66 	ldmdacs	pc, {r1, r2, r5, r6, r8, r9, sl, fp, ip, lr}^	@ <UNPREDICTABLE>
    418c:	28292978 	stmdacs	r9!, {r3, r4, r5, r6, r8, fp, sp}
    4190:	26297828 	strtcs	r7, [r9], -r8, lsr #16
    4194:	28287e28 	stmdacs	r8!, {r3, r5, r9, sl, fp, ip, sp, lr}
    4198:	67696c61 	strbvs	r6, [r9, -r1, ror #24]!
    419c:	312d296e 			@ <UNDEFINED> instruction: 0x312d296e
    41a0:	29292929 	stmdbcs	r9!, {r0, r3, r5, r8, fp, sp}
    41a4:	45525f00 	ldrbmi	r5, [r2, #-3840]	@ 0xfffff100
    41a8:	5f544e45 	svcpl	0x00544e45
    41ac:	525f504d 	subspl	r5, pc, #77	@ 0x4d
    41b0:	4c555345 	ldclmi	3, cr5, [r5], {69}	@ 0x45
    41b4:	74702854 	ldrbtvc	r2, [r0], #-2132	@ 0xfffff7ac
    41b8:	28202972 	stmdacs	r0!, {r1, r4, r5, r6, r8, fp, sp}
    41bc:	72747028 	rsbsvc	r7, r4, #40	@ 0x28
    41c0:	5f3e2d29 	svcpl	0x003e2d29
    41c4:	75736572 	ldrbvc	r6, [r3, #-1394]!	@ 0xfffffa8e
    41c8:	0029746c 	eoreq	r7, r9, ip, ror #8
    41cc:	49425f5f 	stmdbmi	r2, {r0, r1, r2, r3, r4, r6, r8, r9, sl, fp, ip, lr}^
    41d0:	59545f54 	ldmdbpl	r4, {r2, r4, r6, r8, r9, sl, fp, ip, lr}^
    41d4:	5f534550 	svcpl	0x00534550
    41d8:	49464544 	stmdbmi	r6, {r2, r6, r8, sl, lr}^
    41dc:	5f44454e 	svcpl	0x0044454e
    41e0:	0031205f 	eorseq	r2, r1, pc, asr r0
    41e4:	49535f5f 	ldmdbmi	r3, {r0, r1, r2, r3, r4, r6, r8, r9, sl, fp, ip, lr}^
    41e8:	545f455a 	ldrbpl	r4, [pc], #-1370	@ 41f0 <__max_heap_size+0x3df0>
    41ec:	00205f5f 	eoreq	r5, r0, pc, asr pc
    41f0:	5f43535f 	svcpl	0x0043535f
    41f4:	4556454c 	ldrbmi	r4, [r6, #-1356]	@ 0xfffffab4
    41f8:	435f344c 	cmpmi	pc, #76, 8	@ 0x4c000000
    41fc:	45484341 	strbmi	r4, [r8, #-833]	@ 0xfffffcbf
    4200:	5353415f 	cmppl	r3, #-1073741801	@ 0xc0000017
    4204:	3120434f 			@ <UNDEFINED> instruction: 0x3120434f
    4208:	5f003833 	svcpl	0x00003833
    420c:	5f46464f 	svcpl	0x0046464f
    4210:	45445f54 	strbmi	r5, [r4, #-3924]	@ 0xfffff0ac
    4214:	52414c43 	subpl	r4, r1, #17152	@ 0x4300
    4218:	00204445 	eoreq	r4, r0, r5, asr #8
    421c:	5f43535f 	svcpl	0x0043535f
    4220:	45524854 	ldrbmi	r4, [r2, #-2132]	@ 0xfffff7ac
    4224:	505f4441 	subspl	r4, pc, r1, asr #8
    4228:	5f4f4952 	svcpl	0x004f4952
    422c:	544f5250 	strbpl	r5, [pc], #-592	@ 4234 <__max_heap_size+0x3e34>
    4230:	20544345 	subscs	r4, r4, r5, asr #6
    4234:	5f003734 	svcpl	0x00003734
    4238:	4e494c4e 	cdpmi	12, 4, cr4, cr9, cr14, {2}
    423c:	5f545f4b 	svcpl	0x00545f4b
    4240:	4c434544 	stclmi	5, cr4, [r3], {68}	@ 0x44
    4244:	44455241 	strbmi	r5, [r5], #-577	@ 0xfffffdbf
    4248:	505f0020 	subspl	r0, pc, r0, lsr #32
    424c:	45525f43 	ldrbmi	r5, [r2, #-3907]	@ 0xfffff0bd
    4250:	46585f43 	ldrbmi	r5, [r8], -r3, asr #30
    4254:	415f5245 	cmpmi	pc, r5, asr #4
    4258:	4e47494c 			@ <UNDEFINED> instruction: 0x4e47494c
    425c:	00393120 	eorseq	r3, r9, r0, lsr #2
    4260:	4d49545f 	stclmi	4, cr5, [r9, #-380]	@ 0xfffffe84
    4264:	545f5245 	ldrbpl	r5, [pc], #-581	@ 426c <__max_heap_size+0x3e6c>
    4268:	6e75205f 	mrcvs	0, 3, r2, cr5, cr15, {2}
    426c:	6e676973 			@ <UNDEFINED> instruction: 0x6e676973
    4270:	6c206465 	stcvs	4, cr6, [r0], #-404	@ 0xfffffe6c
    4274:	00676e6f 	rsbeq	r6, r7, pc, ror #28
    4278:	4e475f5f 	mcrmi	15, 2, r5, cr7, cr15, {2}
    427c:	494c4355 	stmdbmi	ip, {r0, r2, r4, r6, r8, r9, lr}^
    4280:	425f454b 	subsmi	r4, pc, #314572800	@ 0x12c00000
    4284:	544c4955 	strbpl	r4, [ip], #-2389	@ 0xfffff6ab
    4288:	535f4e49 	cmppl	pc, #1168	@ 0x490
    428c:	52414454 	subpl	r4, r1, #84, 8	@ 0x54000000
    4290:	00312047 	eorseq	r2, r1, r7, asr #32
    4294:	656e5f5f 	strbvs	r5, [lr, #-3935]!	@ 0xfffff0a1
    4298:	775f6465 	ldrbvc	r6, [pc, -r5, ror #8]
    429c:	72616863 	rsbvc	r6, r1, #6488064	@ 0x630000
    42a0:	5f00745f 	svcpl	0x0000745f
    42a4:	7365725f 	cmnvc	r5, #-268435451	@ 0xf0000005
    42a8:	5f746c75 	svcpl	0x00746c75
    42ac:	5f657375 	svcpl	0x00657375
    42b0:	63656863 	cmnvs	r5, #6488064	@ 0x630000
    42b4:	5f5f206b 	svcpl	0x005f206b
    42b8:	72747461 	rsbsvc	r7, r4, #1627389952	@ 0x61000000
    42bc:	74756269 	ldrbtvc	r6, [r5], #-617	@ 0xfffffd97
    42c0:	285f5f65 	ldmdacs	pc, {r0, r2, r5, r6, r8, r9, sl, fp, ip, lr}^	@ <UNPREDICTABLE>
    42c4:	775f5f28 	ldrbvc	r5, [pc, -r8, lsr #30]
    42c8:	5f6e7261 	svcpl	0x006e7261
    42cc:	73756e75 	cmnvc	r5, #1872	@ 0x750
    42d0:	725f6465 	subsvc	r6, pc, #1694498816	@ 0x65000000
    42d4:	6c757365 	ldclvs	3, cr7, [r5], #-404	@ 0xfffffe6c
    42d8:	295f5f74 	ldmdbcs	pc, {r2, r4, r5, r6, r8, r9, sl, fp, ip, lr}^	@ <UNPREDICTABLE>
    42dc:	5f5f0029 	svcpl	0x005f0029
    42e0:	67696c61 	strbvs	r6, [r9, -r1, ror #24]!
    42e4:	6f645f6e 	svcvs	0x00645f6e
    42e8:	78286e77 	stmdavc	r8!, {r0, r1, r2, r4, r5, r6, r9, sl, fp, sp, lr}
    42ec:	2029792c 	eorcs	r7, r9, ip, lsr #18
    42f0:	75625f5f 	strbvc	r5, [r2, #-3935]!	@ 0xfffff0a1
    42f4:	69746c69 	ldmdbvs	r4!, {r0, r3, r5, r6, sl, fp, sp, lr}^
    42f8:	6c615f6e 	stclvs	15, cr5, [r1], #-440	@ 0xfffffe48
    42fc:	5f6e6769 	svcpl	0x006e6769
    4300:	6e776f64 	cdpvs	15, 7, cr6, cr7, cr4, {3}
    4304:	202c7828 	eorcs	r7, ip, r8, lsr #16
    4308:	5f002979 	svcpl	0x00002979
    430c:	5343525f 	cmppl	r3, #-268435451	@ 0xf0000005
    4310:	535f4449 	cmppl	pc, #1224736768	@ 0x49000000
    4314:	4352554f 	cmpmi	r2, #331350016	@ 0x13c00000
    4318:	29732845 	ldmdbcs	r3!, {r0, r2, r6, fp, sp}^
    431c:	72747320 	rsbsvc	r7, r4, #32, 6	@ 0x80000000
    4320:	20746375 	rsbscs	r6, r4, r5, ror r3
    4324:	61685f5f 	cmnvs	r8, pc, asr pc
    4328:	5f006b63 	svcpl	0x00006b63
    432c:	5f445342 	svcpl	0x00445342
    4330:	44525450 	ldrbmi	r5, [r2], #-1104	@ 0xfffffbb0
    4334:	5f464649 	svcpl	0x00464649
    4338:	00205f54 	eoreq	r5, r0, r4, asr pc
    433c:	444f4d5f 	strbmi	r4, [pc], #-3423	@ 4344 <__max_heap_size+0x3f44>
    4340:	5f545f45 	svcpl	0x00545f45
    4344:	4c434544 	stclmi	5, cr4, [r3], {68}	@ 0x44
    4348:	44455241 	strbmi	r5, [r5], #-577	@ 0xfffffdbf
    434c:	535f0020 	cmppl	pc, #32
    4350:	48545f43 	ldmdami	r4, {r0, r1, r6, r8, r9, sl, fp, ip, lr}^
    4354:	44414552 	strbmi	r4, [r1], #-1362	@ 0xfffffaae
    4358:	5248545f 	subpl	r5, r8, #1593835520	@ 0x5f000000
    435c:	53444145 	cmppl	r4, #1073741841	@ 0x40000011
    4360:	58414d5f 	stmdapl	r1, {r0, r1, r2, r3, r4, r6, r8, sl, fp, lr}^
    4364:	00303420 	eorseq	r3, r0, r0, lsr #8
    4368:	69735f5f 	ldmdbvs	r3!, {r0, r1, r2, r3, r4, r6, r8, r9, sl, fp, ip, lr}^
    436c:	745f657a 	ldrbvc	r6, [pc], #-1402	@ 4374 <__max_heap_size+0x3f74>
    4370:	535f0020 	cmppl	pc, #32
    4374:	4f585f43 	svcmi	0x00585f43
    4378:	5f4e4550 	svcpl	0x004e4550
    437c:	58494e55 	stmdapl	r9, {r0, r2, r4, r6, r9, sl, fp, lr}^
    4380:	35303120 	ldrcc	r3, [r0, #-288]!	@ 0xfffffee0
    4384:	63665f00 	cmnvs	r6, #0, 30
    4388:	006c746e 	rsbeq	r7, ip, lr, ror #8
    438c:	494f505f 	stmdbmi	pc, {r0, r1, r2, r3, r4, r6, ip, lr}^	@ <UNPREDICTABLE>
    4390:	5245544e 	subpl	r5, r5, #1308622848	@ 0x4e000000
    4394:	544e495f 	strbpl	r4, [lr], #-2399	@ 0xfffff6a1
    4398:	6e6f6c20 	cdpvs	12, 6, cr6, cr15, cr0, {1}
    439c:	5f5f0067 	svcpl	0x005f0067
    43a0:	434e4f43 	cmpmi	lr, #268	@ 0x10c
    43a4:	28315441 	ldmdacs	r1!, {r0, r6, sl, ip, lr}
    43a8:	29792c78 	ldmdbcs	r9!, {r3, r4, r5, r6, sl, fp, sp}^
    43ac:	23207820 			@ <UNDEFINED> instruction: 0x23207820
    43b0:	00792023 	rsbseq	r2, r9, r3, lsr #32
    43b4:	535f545f 	cmppl	pc, #1593835520	@ 0x5f000000
    43b8:	20455a49 	subcs	r5, r5, r9, asr #20
    43bc:	44545300 	ldrbmi	r5, [r4], #-768	@ 0xfffffd00
    43c0:	465f4e49 	ldrbmi	r4, [pc], -r9, asr #28
    43c4:	4e454c49 	cdpmi	12, 4, cr4, cr5, cr9, {2}
    43c8:	0030204f 	eorseq	r2, r0, pc, asr #32
    43cc:	59454b5f 	stmdbpl	r5, {r0, r1, r2, r3, r4, r6, r8, r9, fp, lr}^
    43d0:	445f545f 	ldrbmi	r5, [pc], #-1119	@ 43d8 <__max_heap_size+0x3fd8>
    43d4:	414c4345 	cmpmi	ip, r5, asr #6
    43d8:	20444552 	subcs	r4, r4, r2, asr r5
    43dc:	43535f00 	cmpmi	r3, #0, 30
    43e0:	4b4c435f 	blmi	1315164 <__max_heap_size+0x1314d64>
    43e4:	4b43545f 	blmi	10d9568 <__max_heap_size+0x10d9168>
    43e8:	5f003220 	svcpl	0x00003220
    43ec:	585f4353 	ldmdapl	pc, {r0, r1, r4, r6, r8, r9, lr}^	@ <UNPREDICTABLE>
    43f0:	4e45504f 	cdpmi	0, 4, cr5, cr5, cr15, {2}
    43f4:	4355555f 	cmpmi	r5, #398458880	@ 0x17c00000
    43f8:	32312050 	eorscc	r2, r1, #80	@ 0x50
    43fc:	54530034 	ldrbpl	r0, [r3], #-52	@ 0xffffffcc
    4400:	54554f44 	ldrbpl	r4, [r5], #-3908	@ 0xfffff0bc
    4404:	4c49465f 	stclmi	6, cr4, [r9], {95}	@ 0x5f
    4408:	204f4e45 	subcs	r4, pc, r5, asr #28
    440c:	5f5f0031 	svcpl	0x005f0031
    4410:	6b616577 	blvs	185d9f4 <__max_heap_size+0x185d5f4>
    4414:	6665725f 			@ <UNDEFINED> instruction: 0x6665725f
    4418:	6e657265 	cdpvs	2, 6, cr7, cr5, cr5, {3}
    441c:	73286563 			@ <UNDEFINED> instruction: 0x73286563
    4420:	612c6d79 			@ <UNDEFINED> instruction: 0x612c6d79
    4424:	7361696c 	cmnvc	r1, #108, 18	@ 0x1b0000
    4428:	5f5f2029 	svcpl	0x005f2029
    442c:	5f6d7361 	svcpl	0x006d7361
    4430:	2e22285f 	mcrcs	8, 1, r2, cr2, cr15, {2}
    4434:	6b616577 	blvs	185da18 <__max_heap_size+0x185d618>
    4438:	23202220 			@ <UNDEFINED> instruction: 0x23202220
    443c:	61696c61 	cmnvs	r9, r1, ror #24
    4440:	203b2973 	eorscs	r2, fp, r3, ror r9
    4444:	73615f5f 	cmnvc	r1, #380	@ 0x17c
    4448:	285f5f6d 	ldmdacs	pc, {r0, r2, r3, r5, r6, r8, r9, sl, fp, ip, lr}^	@ <UNPREDICTABLE>
    444c:	71652e22 	cmnvc	r5, r2, lsr #28
    4450:	20222075 	eorcs	r2, r2, r5, ror r0
    4454:	696c6123 	stmdbvs	ip!, {r0, r1, r5, r8, sp, lr}^
    4458:	22207361 	eorcs	r7, r0, #-2080374783	@ 0x84000001
    445c:	2022202c 	eorcs	r2, r2, ip, lsr #32
    4460:	6d797323 	ldclvs	3, cr7, [r9, #-140]!	@ 0xffffff74
    4464:	535f0029 	cmppl	pc, #41	@ 0x29
    4468:	36565f43 	ldrbcc	r5, [r6], -r3, asr #30
    446c:	504c495f 	subpl	r4, ip, pc, asr r9
    4470:	4f5f3233 	svcmi	0x005f3233
    4474:	32334646 	eorscc	r4, r3, #73400320	@ 0x4600000
    4478:	43535f20 	cmpmi	r3, #32, 30	@ 0x80
    447c:	5f37565f 	svcpl	0x0037565f
    4480:	33504c49 	cmpcc	r0, #18688	@ 0x4900
    4484:	464f5f32 			@ <UNDEFINED> instruction: 0x464f5f32
    4488:	00323346 	eorseq	r3, r2, r6, asr #6
    448c:	4545525f 	strbmi	r5, [r5, #-607]	@ 0xfffffda1
    4490:	435f544e 	cmpmi	pc, #1308622848	@ 0x4e000000
    4494:	4b434548 	blmi	10d59bc <__max_heap_size+0x10d55bc>
    4498:	28504d5f 	ldmdacs	r0, {r0, r1, r2, r3, r4, r6, r8, sl, fp, lr}^
    449c:	29727470 	ldmdbcs	r2!, {r4, r5, r6, sl, ip, sp, lr}^
    44a0:	5f5f0020 	svcpl	0x005f0020
    44a4:	4c57454e 	ldclmi	5, cr4, [r7], {78}	@ 0x4e
    44a8:	485f4249 	ldmdami	pc, {r0, r3, r6, r9, lr}^	@ <UNPREDICTABLE>
    44ac:	31205f5f 			@ <UNDEFINED> instruction: 0x31205f5f
    44b0:	645f5f00 	ldrbvs	r5, [pc], #-3840	@ 44b8 <__max_heap_size+0x40b8>
    44b4:	745f7665 	ldrbvc	r7, [pc], #-1637	@ 44bc <__max_heap_size+0x40bc>
    44b8:	43535f00 	cmpmi	r3, #0, 30
    44bc:	5641535f 			@ <UNDEFINED> instruction: 0x5641535f
    44c0:	495f4445 	ldmdbmi	pc, {r0, r2, r6, sl, lr}^	@ <UNPREDICTABLE>
    44c4:	36205344 	strtcc	r5, [r0], -r4, asr #6
    44c8:	525f5f00 	subspl	r5, pc, #0, 30
    44cc:	5f444e41 	svcpl	0x00444e41
    44d0:	0058414d 	subseq	r4, r8, sp, asr #2
    44d4:	5359535f 	cmppl	r9, #2080374785	@ 0x7c000001
    44d8:	494e555f 	stmdbmi	lr, {r0, r1, r2, r3, r4, r6, r8, sl, ip, lr}^
    44dc:	5f445453 	svcpl	0x00445453
    44e0:	5f002048 	svcpl	0x00002048
    44e4:	554e475f 	strbpl	r4, [lr, #-1887]	@ 0xfffff8a1
    44e8:	4b494c43 	blmi	12575fc <__max_heap_size+0x12571fc>
    44ec:	55425f45 	strbpl	r5, [r2, #-3909]	@ 0xfffff0bb
    44f0:	49544c49 	ldmdbmi	r4, {r0, r3, r6, sl, fp, lr}^
    44f4:	4f435f4e 	svcmi	0x00435f4e
    44f8:	4154534e 	cmpmi	r4, lr, asr #6
    44fc:	505f544e 	subspl	r5, pc, lr, asr #8
    4500:	5f003120 	svcpl	0x00003120
    4504:	6e6e6f4e 	cdpvs	15, 6, cr6, cr14, cr14, {2}
    4508:	206c6c75 	rsbcs	r6, ip, r5, ror ip
    450c:	41575f00 	cmpmi	r7, r0, lsl #30
    4510:	495f544e 	ldmdbmi	pc, {r1, r2, r3, r6, sl, ip, lr}^	@ <UNPREDICTABLE>
    4514:	4f4c5f4f 	svcmi	0x004c5f4f
    4518:	4c5f474e 	ldclmi	7, cr4, [pc], {78}	@ 0x4e
    451c:	20474e4f 	subcs	r4, r7, pc, asr #28
    4520:	535f0031 	cmppl	pc, #49	@ 0x31
    4524:	535f5359 	cmppl	pc, #1677721601	@ 0x64000001
    4528:	5f455a49 	svcpl	0x00455a49
    452c:	20485f54 	subcs	r5, r8, r4, asr pc
    4530:	43505f00 	cmpmi	r0, #0, 30
    4534:	5049505f 	subpl	r5, r9, pc, asr r0
    4538:	55425f45 	strbpl	r5, [r2, #-3909]	@ 0xfffff0bb
    453c:	00352046 	eorseq	r2, r5, r6, asr #32
    4540:	4545525f 	strbmi	r5, [r5, #-607]	@ 0xfffffda1
    4544:	525f544e 	subspl	r5, pc, #1308622848	@ 0x4e000000
    4548:	34444e41 	strbcc	r4, [r4], #-3649	@ 0xfffff1bf
    454c:	45535f38 	ldrbmi	r5, [r3, #-3896]	@ 0xfffff0c8
    4550:	70284445 	eorvc	r4, r8, r5, asr #8
    4554:	20297274 	eorcs	r7, r9, r4, ror r2
    4558:	74702828 	ldrbtvc	r2, [r0], #-2088	@ 0xfffff7d8
    455c:	3e2d2972 			@ <UNDEFINED> instruction: 0x3e2d2972
    4560:	77656e5f 			@ <UNDEFINED> instruction: 0x77656e5f
    4564:	65725f2e 	ldrbvs	r5, [r2, #-3886]!	@ 0xfffff0d2
    4568:	2e746e65 	cdpcs	14, 7, cr6, cr4, cr5, {3}
    456c:	3834725f 	ldmdacc	r4!, {r0, r1, r2, r3, r4, r6, r9, ip, sp, lr}
    4570:	65735f2e 	ldrbvs	r5, [r3, #-3886]!	@ 0xfffff0d2
    4574:	00296465 	eoreq	r6, r9, r5, ror #8
    4578:	5f43535f 	svcpl	0x0043535f
    457c:	454d4954 	strbmi	r4, [sp, #-2388]	@ 0xfffff6ac
    4580:	414d5f52 	cmpmi	sp, r2, asr pc
    4584:	39312058 	ldmdbcc	r1!, {r3, r4, r6, sp}
    4588:	6c5f5f00 	ldclvs	15, cr5, [pc], {-0}
    458c:	736b636f 	cmnvc	fp, #-1140850687	@ 0xbc000001
    4590:	6378655f 	cmnvs	r8, #398458880	@ 0x17c00000
    4594:	6973756c 	ldmdbvs	r3!, {r2, r3, r5, r6, r8, sl, ip, sp, lr}^
    4598:	2e286576 	mcrcs	5, 1, r6, cr8, cr6, {3}
    459c:	20292e2e 	eorcs	r2, r9, lr, lsr #28
    45a0:	6f6c5f5f 	svcvs	0x006c5f5f
    45a4:	615f6b63 	cmpvs	pc, r3, ror #22
    45a8:	746f6e6e 	strbtvc	r6, [pc], #-3694	@ 45b0 <__max_heap_size+0x41b0>
    45ac:	28657461 	stmdacs	r5!, {r0, r5, r6, sl, ip, sp, lr}^
    45b0:	6c637865 	stclvs	8, cr7, [r3], #-404	@ 0xfffffe6c
    45b4:	76697375 			@ <UNDEFINED> instruction: 0x76697375
    45b8:	6f6c5f65 	svcvs	0x006c5f65
    45bc:	665f6b63 	ldrbvs	r6, [pc], -r3, ror #22
    45c0:	74636e75 	strbtvc	r6, [r3], #-3701	@ 0xfffff18b
    45c4:	286e6f69 	stmdacs	lr!, {r0, r3, r5, r6, r8, r9, sl, fp, sp, lr}^
    45c8:	41565f5f 	cmpmi	r6, pc, asr pc
    45cc:	4752415f 			@ <UNDEFINED> instruction: 0x4752415f
    45d0:	295f5f53 	ldmdbcs	pc, {r0, r1, r4, r6, r8, r9, sl, fp, ip, lr}^	@ <UNPREDICTABLE>
    45d4:	5f5f0029 	svcpl	0x005f0029
    45d8:	6b636f6c 	blvs	18e0390 <__max_heap_size+0x18dff90>
    45dc:	6c65725f 	stclvs	2, cr7, [r5], #-380	@ 0xfffffe84
    45e0:	65736165 	ldrbvs	r6, [r3, #-357]!	@ 0xfffffe9b
    45e4:	636f6c28 	cmnvs	pc, #40, 24	@ 0x2800
    45e8:	5f20296b 	svcpl	0x0020296b
    45ec:	7465725f 	strbtvc	r7, [r5], #-607	@ 0xfffffda1
    45f0:	65677261 	strbvs	r7, [r7, #-609]!	@ 0xfffffd9f
    45f4:	6f6c5f74 	svcvs	0x006c5f74
    45f8:	725f6b63 	subsvc	r6, pc, #101376	@ 0x18c00
    45fc:	61656c65 	cmnvs	r5, r5, ror #24
    4600:	6c286573 	stcvs	5, cr6, [r8], #-460	@ 0xfffffe34
    4604:	296b636f 	stmdbcs	fp!, {r0, r1, r2, r3, r5, r6, r8, r9, sp, lr}^
    4608:	43535f00 	cmpmi	r3, #0, 30
    460c:	5248545f 	subpl	r5, r8, #1593835520	@ 0x5f000000
    4610:	5f444145 	svcpl	0x00444145
    4614:	55424f52 	strbpl	r4, [r2, #-3922]	@ 0xfffff0ae
    4618:	505f5453 	subspl	r5, pc, r3, asr r4	@ <UNPREDICTABLE>
    461c:	5f4f4952 	svcpl	0x004f4952
    4620:	45484e49 	strbmi	r4, [r8, #-3657]	@ 0xfffff1b7
    4624:	20544952 	subscs	r4, r4, r2, asr r9
    4628:	00323231 	eorseq	r3, r2, r1, lsr r2
    462c:	735f7473 	cmpvc	pc, #1929379840	@ 0x73000000
    4630:	00657a69 	rsbeq	r7, r5, r9, ror #20
    4634:	5f43535f 	svcpl	0x0043535f
    4638:	414e5a54 	cmpmi	lr, r4, asr sl
    463c:	4d5f454d 	ldclmi	5, cr4, [pc, #-308]	@ 4510 <__max_heap_size+0x4110>
    4640:	32205841 	eorcc	r5, r0, #4259840	@ 0x410000
    4644:	5f5f0030 	svcpl	0x005f0030
    4648:	6c6c756e 	stclvs	5, cr7, [ip], #-440	@ 0xfffffe48
    464c:	6e65735f 	mcrvs	3, 3, r7, cr5, cr15, {2}
    4650:	656e6974 	strbvs	r6, [lr, #-2420]!	@ 0xfffff68c
    4654:	5f5f206c 	svcpl	0x005f206c
    4658:	72747461 	rsbsvc	r7, r4, #1627389952	@ 0x61000000
    465c:	74756269 	ldrbtvc	r6, [r5], #-617	@ 0xfffffd97
    4660:	285f5f65 	ldmdacs	pc, {r0, r2, r5, r6, r8, r9, sl, fp, ip, lr}^	@ <UNPREDICTABLE>
    4664:	735f5f28 	cmpvc	pc, #40, 30	@ 0xa0
    4668:	69746e65 	ldmdbvs	r4!, {r0, r2, r5, r6, r9, sl, fp, sp, lr}^
    466c:	5f6c656e 	svcpl	0x006c656e
    4670:	0029295f 	eoreq	r2, r9, pc, asr r9
    4674:	5f43535f 	svcpl	0x0043535f
    4678:	5f4f4941 	svcpl	0x004f4941
    467c:	5453494c 	ldrbpl	r4, [r3], #-2380	@ 0xfffff6b4
    4680:	4d5f4f49 	ldclmi	15, cr4, [pc, #-292]	@ 4564 <__max_heap_size+0x4164>
    4684:	33205841 			@ <UNDEFINED> instruction: 0x33205841
    4688:	4e5f0034 	mrcmi	0, 2, r0, cr15, cr4, {1}
    468c:	616c6c75 	cmnvs	ip, r5, ror ip
    4690:	20656c62 	rsbcs	r6, r5, r2, ror #24
    4694:	495f5300 	ldmdbmi	pc, {r8, r9, ip, lr}^	@ <UNPREDICTABLE>
    4698:	52535558 	subspl	r5, r3, #88, 10	@ 0x16000000
    469c:	30303020 	eorscc	r3, r0, r0, lsr #32
    46a0:	30303130 	eorscc	r3, r0, r0, lsr r1
    46a4:	4f4e5f00 	svcmi	0x004e5f00
    46a8:	494c4e49 	stmdbmi	ip, {r0, r3, r6, r9, sl, fp, lr}^
    46ac:	5f20454e 	svcpl	0x0020454e
    46b0:	7474615f 	ldrbtvc	r6, [r4], #-351	@ 0xfffffea1
    46b4:	75626972 	strbvc	r6, [r2, #-2418]!	@ 0xfffff68e
    46b8:	5f5f6574 	svcpl	0x005f6574
    46bc:	5f282820 	svcpl	0x00282820
    46c0:	696f6e5f 	stmdbvs	pc!, {r0, r1, r2, r3, r4, r6, r9, sl, fp, sp, lr}^	@ <UNPREDICTABLE>
    46c4:	6e696c6e 	cdpvs	12, 6, cr6, cr9, cr14, {3}
    46c8:	295f5f65 	ldmdbcs	pc, {r0, r2, r5, r6, r8, r9, sl, fp, ip, lr}^	@ <UNPREDICTABLE>
    46cc:	5f5f0029 	svcpl	0x005f0029
    46d0:	657a6973 	ldrbvs	r6, [sl, #-2419]!	@ 0xfffff68d
    46d4:	5f5f745f 	svcpl	0x005f745f
    46d8:	525f0020 	subspl	r0, pc, #32
    46dc:	544e4545 	strbpl	r4, [lr], #-1349	@ 0xfffffabb
    46e0:	4e41525f 	mcrmi	2, 2, r5, cr1, cr15, {2}
    46e4:	454e5f44 	strbmi	r5, [lr, #-3908]	@ 0xfffff0bc
    46e8:	70285458 	eorvc	r5, r8, r8, asr r4
    46ec:	20297274 	eorcs	r7, r9, r4, ror r2
    46f0:	74702828 	ldrbtvc	r2, [r0], #-2088	@ 0xfffff7d8
    46f4:	3e2d2972 			@ <UNDEFINED> instruction: 0x3e2d2972
    46f8:	77656e5f 			@ <UNDEFINED> instruction: 0x77656e5f
    46fc:	65725f2e 	ldrbvs	r5, [r2, #-3886]!	@ 0xfffff0d2
    4700:	2e746e65 	cdpcs	14, 7, cr6, cr4, cr5, {3}
    4704:	6e61725f 	mcrvs	2, 3, r7, cr1, cr15, {2}
    4708:	656e5f64 	strbvs	r5, [lr, #-3940]!	@ 0xfffff09c
    470c:	00297478 	eoreq	r7, r9, r8, ror r4
    4710:	53495f53 	cmppl	r9, #332	@ 0x14c
    4714:	28524944 	ldmdacs	r2, {r2, r6, r8, fp, lr}^
    4718:	2820296d 	stmdacs	r0!, {r0, r2, r3, r5, r6, r8, fp, sp}
    471c:	296d2828 	stmdbcs	sp!, {r3, r5, fp, sp}^
    4720:	46495f26 	strbmi	r5, [r9], -r6, lsr #30
    4724:	2029544d 	eorcs	r5, r9, sp, asr #8
    4728:	5f203d3d 	svcpl	0x00203d3d
    472c:	49444649 	stmdbmi	r4, {r0, r3, r6, r9, sl, lr}^
    4730:	43002952 	tstmi	r0, #1343488	@ 0x148000
    4734:	545f4b4c 	ldrbpl	r4, [pc], #-2892	@ 473c <__max_heap_size+0x433c>
    4738:	43204b43 			@ <UNDEFINED> instruction: 0x43204b43
    473c:	4b434f4c 	blmi	10d8474 <__max_heap_size+0x10d8074>
    4740:	45505f53 	ldrbmi	r5, [r0, #-3923]	@ 0xfffff0ad
    4744:	45535f52 	ldrbmi	r5, [r3, #-3922]	@ 0xfffff0ae
    4748:	5f530043 	svcpl	0x00530043
    474c:	4c424649 	stclmi	6, cr4, [r2], {73}	@ 0x49
    4750:	495f204b 	ldmdbmi	pc, {r0, r1, r3, r6, sp}^	@ <UNPREDICTABLE>
    4754:	4b4c4246 	blmi	1315074 <__max_heap_size+0x1314c74>
    4758:	495f5300 	ldmdbmi	pc, {r8, r9, ip, lr}^	@ <UNPREDICTABLE>
    475c:	4b4c4253 	blmi	13150b0 <__max_heap_size+0x1314cb0>
    4760:	20296d28 	eorcs	r6, r9, r8, lsr #26
    4764:	6d282828 	stcvs	8, cr2, [r8, #-160]!	@ 0xffffff60
    4768:	495f2629 	ldmdbmi	pc, {r0, r3, r5, r9, sl, sp}^	@ <UNPREDICTABLE>
    476c:	29544d46 	ldmdbcs	r4, {r1, r2, r6, r8, sl, fp, lr}^
    4770:	203d3d20 	eorscs	r3, sp, r0, lsr #26
    4774:	4246495f 	submi	r4, r6, #1556480	@ 0x17c000
    4778:	00294b4c 	eoreq	r4, r9, ip, asr #22
    477c:	5359535f 	cmppl	r9, #2080374785	@ 0x7c000001
    4780:	49545f5f 	ldmdbmi	r4, {r0, r1, r2, r3, r4, r6, r8, r9, sl, fp, ip, lr}^
    4784:	5053454d 	subspl	r4, r3, sp, asr #10
    4788:	485f4345 	ldmdami	pc, {r0, r2, r6, r8, r9, lr}^	@ <UNPREDICTABLE>
    478c:	5f00205f 	svcpl	0x0000205f
    4790:	455a4953 	ldrbmi	r4, [sl, #-2387]	@ 0xfffff6ad
    4794:	445f545f 	ldrbmi	r5, [pc], #-1119	@ 479c <__max_heap_size+0x439c>
    4798:	414c4345 	cmpmi	ip, r5, asr #6
    479c:	20444552 	subcs	r4, r4, r2, asr r5
    47a0:	505f5f00 	subspl	r5, pc, r0, lsl #30
    47a4:	6f727028 	svcvs	0x00727028
    47a8:	29736f74 	ldmdbcs	r3!, {r2, r4, r5, r6, r8, r9, sl, fp, sp, lr}^
    47ac:	6f727020 	svcvs	0x00727020
    47b0:	00736f74 	rsbseq	r6, r3, r4, ror pc
    47b4:	58495f53 	stmdapl	r9, {r0, r1, r4, r6, r8, r9, sl, fp, ip, lr}^
    47b8:	2048544f 	subcs	r5, r8, pc, asr #8
    47bc:	30303030 	eorscc	r3, r0, r0, lsr r0
    47c0:	00313030 	eorseq	r3, r1, r0, lsr r0
    47c4:	74735f5f 	ldrbtvc	r5, [r3], #-3935	@ 0xfffff0a1
    47c8:	6f6d6672 	svcvs	0x006d6672
    47cc:	6b696c6e 	blvs	1a5f98c <__max_heap_size+0x1a5f58c>
    47d0:	6d662865 	stclvs	8, cr2, [r6, #-404]!	@ 0xfffffe6c
    47d4:	67726174 			@ <UNDEFINED> instruction: 0x67726174
    47d8:	7269662c 	rsbvc	r6, r9, #44, 12	@ 0x2c00000
    47dc:	61767473 	cmnvs	r6, r3, ror r4
    47e0:	67726172 			@ <UNDEFINED> instruction: 0x67726172
    47e4:	5f5f2029 	svcpl	0x005f2029
    47e8:	72747461 	rsbsvc	r7, r4, #1627389952	@ 0x61000000
    47ec:	74756269 	ldrbtvc	r6, [r5], #-617	@ 0xfffffd97
    47f0:	285f5f65 	ldmdacs	pc, {r0, r2, r5, r6, r8, r9, sl, fp, ip, lr}^	@ <UNPREDICTABLE>
    47f4:	665f5f28 	ldrbvs	r5, [pc], -r8, lsr #30
    47f8:	616d726f 	cmnvs	sp, pc, ror #4
    47fc:	205f5f74 	subscs	r5, pc, r4, ror pc	@ <UNPREDICTABLE>
    4800:	735f5f28 	cmpvc	pc, #40, 30	@ 0xa0
    4804:	6d667274 	stclvs	2, cr7, [r6, #-464]!	@ 0xfffffe30
    4808:	5f5f6e6f 	svcpl	0x005f6e6f
    480c:	6d66202c 	stclvs	0, cr2, [r6, #-176]!	@ 0xffffff50
    4810:	67726174 			@ <UNDEFINED> instruction: 0x67726174
    4814:	6966202c 	stmdbvs	r6!, {r2, r3, r5, sp}^
    4818:	76747372 			@ <UNDEFINED> instruction: 0x76747372
    481c:	72617261 	rsbvc	r7, r1, #268435462	@ 0x10000006
    4820:	29292967 	stmdbcs	r9!, {r0, r1, r2, r5, r6, r8, fp, sp}
    4824:	45455300 	strbmi	r5, [r5, #-768]	@ 0xfffffd00
    4828:	55435f4b 	strbpl	r5, [r3, #-3915]	@ 0xfffff0b5
    482c:	00312052 	eorseq	r2, r1, r2, asr r0
    4830:	4145525f 	cmpmi	r5, pc, asr r2
    4834:	52575f44 	subspl	r5, r7, #68, 30	@ 0x110
    4838:	5f455449 	svcpl	0x00455449
    483c:	53465542 	cmppl	r6, #276824064	@ 0x10800000
    4840:	5f455a49 	svcpl	0x00455a49
    4844:	45505954 	ldrbmi	r5, [r0, #-2388]	@ 0xfffff6ac
    4848:	746e6920 	strbtvc	r6, [lr], #-2336	@ 0xfffff6e0
    484c:	4c435f00 	stclmi	15, cr5, [r3], {-0}
    4850:	5f4b434f 	svcpl	0x004b434f
    4854:	75205f54 	strvc	r5, [r0, #-3924]!	@ 0xfffff0ac
    4858:	6769736e 	strbvs	r7, [r9, -lr, ror #6]!
    485c:	2064656e 	rsbcs	r6, r4, lr, ror #10
    4860:	676e6f6c 	strbvs	r6, [lr, -ip, ror #30]!
    4864:	49545f00 	ldmdbmi	r4, {r8, r9, sl, fp, ip, lr}^
    4868:	545f454d 	ldrbpl	r4, [pc], #-1357	@ 4870 <__max_heap_size+0x4470>
    486c:	5f5f205f 	svcpl	0x005f205f
    4870:	5f746e69 	svcpl	0x00746e69
    4874:	7361656c 	cmnvc	r1, #108, 10	@ 0x1b000000
    4878:	5f343674 	svcpl	0x00343674
    487c:	535f0074 	cmppl	pc, #116	@ 0x74
    4880:	48545f43 	ldmdami	r4, {r0, r1, r6, r8, r9, sl, fp, ip, lr}^
    4884:	44414552 	strbmi	r4, [r1], #-1362	@ 0xfffffaae
    4888:	5345445f 	cmppl	r5, #1593835520	@ 0x5f000000
    488c:	43555254 	cmpmi	r5, #84, 4	@ 0x40000005
    4890:	5f524f54 	svcpl	0x00524f54
    4894:	52455449 	subpl	r5, r5, #1224736768	@ 0x49000000
    4898:	4f495441 	svcmi	0x00495441
    489c:	3520534e 	strcc	r5, [r0, #-846]!	@ 0xfffffcb2
    48a0:	535f0033 	cmppl	pc, #51	@ 0x33
    48a4:	48545f43 	ldmdami	r4, {r0, r1, r6, r8, r9, sl, fp, ip, lr}^
    48a8:	44414552 	strbmi	r4, [r1], #-1362	@ 0xfffffaae
    48ac:	32342053 	eorscc	r2, r4, #83	@ 0x53
    48b0:	43535f00 	cmpmi	r3, #0, 30
    48b4:	4d49545f 	stclmi	4, cr5, [r9, #-380]	@ 0xfffffe84
    48b8:	20535245 	subscs	r5, r3, r5, asr #4
    48bc:	5f003333 	svcpl	0x00003333
    48c0:	434b4c42 	cmpmi	fp, #16896	@ 0x4200
    48c4:	545f544e 	ldrbpl	r5, [pc], #-1102	@ 48cc <__max_heap_size+0x44cc>
    48c8:	4345445f 	cmpmi	r5, #1593835520	@ 0x5f000000
    48cc:	4552414c 	ldrbmi	r4, [r2, #-332]	@ 0xfffffeb4
    48d0:	5f002044 	svcpl	0x00002044
    48d4:	505f4353 	subspl	r4, pc, r3, asr r3	@ <UNPREDICTABLE>
    48d8:	53454741 	cmppl	r5, #17039360	@ 0x1040000
    48dc:	20455a49 	subcs	r5, r5, r9, asr #20
    48e0:	5f530038 	svcpl	0x00530038
    48e4:	45524649 	ldrbmi	r4, [r2, #-1609]	@ 0xfffff9b7
    48e8:	495f2047 	ldmdbmi	pc, {r0, r1, r2, r6, sp}^	@ <UNPREDICTABLE>
    48ec:	47455246 	strbmi	r5, [r5, -r6, asr #4]
    48f0:	73695f00 	cmnvc	r9, #0, 30
    48f4:	79747461 	ldmdbvc	r4!, {r0, r5, r6, sl, ip, sp, lr}^
    48f8:	415f5f00 	cmpmi	pc, r0, lsl #30
    48fc:	414e4d53 	cmpmi	lr, r3, asr sp
    4900:	6328454d 			@ <UNDEFINED> instruction: 0x6328454d
    4904:	656d616e 	strbvs	r6, [sp, #-366]!	@ 0xfffffe92
    4908:	5f5f2029 	svcpl	0x005f2029
    490c:	52545358 	subspl	r5, r4, #88, 6	@ 0x60000001
    4910:	20474e49 	subcs	r4, r7, r9, asr #28
    4914:	555f5f28 	ldrbpl	r5, [pc, #-3880]	@ 39f4 <__max_heap_size+0x35f4>
    4918:	5f524553 	svcpl	0x00524553
    491c:	4542414c 	strbmi	r4, [r2, #-332]	@ 0xfffffeb4
    4920:	52505f4c 	subspl	r5, r0, #76, 30	@ 0x130
    4924:	58494645 	stmdapl	r9, {r0, r2, r6, r9, sl, lr}^
    4928:	20295f5f 	eorcs	r5, r9, pc, asr pc
    492c:	6d616e63 	stclvs	14, cr6, [r1, #-396]!	@ 0xfffffe74
    4930:	5f5f0065 	svcpl	0x005f0065
    4934:	67696c61 	strbvs	r6, [r9, -r1, ror #24]!
    4938:	70755f6e 	rsbsvc	r5, r5, lr, ror #30
    493c:	792c7828 	stmdbvc	ip!, {r3, r5, fp, ip, sp, lr}
    4940:	5f5f2029 	svcpl	0x005f2029
    4944:	6c697562 	stclvs	5, cr7, [r9], #-392	@ 0xfffffe78
    4948:	5f6e6974 	svcpl	0x006e6974
    494c:	67696c61 	strbvs	r6, [r9, -r1, ror #24]!
    4950:	70755f6e 	rsbsvc	r5, r5, lr, ror #30
    4954:	202c7828 	eorcs	r7, ip, r8, lsr #16
    4958:	5f002979 	svcpl	0x00002979
    495c:	48434649 	stmdami	r3, {r0, r3, r6, r9, sl, lr}^
    4960:	30302052 	eorscc	r2, r0, r2, asr r0
    4964:	30303032 	eorscc	r3, r0, r2, lsr r0
    4968:	5f5f0030 	svcpl	0x005f0030
    496c:	736b6c62 	cmnvc	fp, #25088	@ 0x6200
    4970:	5f657a69 	svcpl	0x00657a69
    4974:	535f0074 	cmppl	pc, #116	@ 0x74
    4978:	48545f43 	ldmdami	r4, {r0, r1, r6, r8, r9, sl, fp, ip, lr}^
    497c:	44414552 	strbmi	r4, [r1], #-1362	@ 0xfffffaae
    4980:	4f50535f 	svcmi	0x0050535f
    4984:	49444152 	stmdbmi	r4, {r1, r4, r6, r8, lr}^
    4988:	45535f43 	ldrbmi	r5, [r3, #-3907]	@ 0xfffff0bd
    498c:	52455652 	subpl	r5, r5, #85983232	@ 0x5200000
    4990:	00313820 	eorseq	r3, r1, r0, lsr #16
    4994:	74705f5f 	ldrbtvc	r5, [r0], #-3935	@ 0xfffff0a1
    4998:	20745f72 	rsbscs	r5, r4, r2, ror pc
    499c:	64696f76 	strbtvs	r6, [r9], #-3958	@ 0xfffff08a
    49a0:	5f002a20 	svcpl	0x00002a20
    49a4:	4e454552 	mcrmi	5, 2, r4, cr5, cr2, {2}
    49a8:	41525f54 	cmpmi	r2, r4, asr pc
    49ac:	3834444e 	ldmdacc	r4!, {r1, r2, r3, r6, sl, lr}
    49b0:	4444415f 	strbmi	r4, [r4], #-351	@ 0xfffffea1
    49b4:	72747028 	rsbsvc	r7, r4, #40	@ 0x28
    49b8:	28282029 	stmdacs	r8!, {r0, r3, r5, sp}
    49bc:	29727470 	ldmdbcs	r2!, {r4, r5, r6, sl, ip, sp, lr}^
    49c0:	6e5f3e2d 	cdpvs	14, 5, cr3, cr15, cr13, {1}
    49c4:	5f2e7765 	svcpl	0x002e7765
    49c8:	6e656572 	mcrvs	5, 3, r6, cr5, cr2, {3}
    49cc:	725f2e74 	subsvc	r2, pc, #116, 28	@ 0x740
    49d0:	5f2e3834 	svcpl	0x002e3834
    49d4:	29646461 	stmdbcs	r4!, {r0, r5, r6, sl, sp, lr}^
    49d8:	43535f00 	cmpmi	r3, #0, 30
    49dc:	5741525f 			@ <UNDEFINED> instruction: 0x5741525f
    49e0:	434f535f 	cmpmi	pc, #2080374785	@ 0x7c000001
    49e4:	5354454b 	cmppl	r4, #314572800	@ 0x12c00000
    49e8:	00303720 	eorseq	r3, r0, r0, lsr #14
    49ec:	755f7473 	ldrbvc	r7, [pc, #-1139]	@ 4581 <__max_heap_size+0x4181>
    49f0:	73006469 	tstvc	r0, #1761607680	@ 0x69000000
    49f4:	70735f74 	rsbsvc	r5, r3, r4, ror pc
    49f8:	34657261 	strbtcc	r7, [r5], #-609	@ 0xfffffd9f
    49fc:	615f5f00 	cmpvs	pc, r0, lsl #30
    4a00:	636f6c6c 	cmnvs	pc, #108, 24	@ 0x6c00
    4a04:	696c615f 	stmdbvs	ip!, {r0, r1, r2, r3, r4, r6, r8, sp, lr}^
    4a08:	78286e67 	stmdavc	r8!, {r0, r1, r2, r5, r6, r9, sl, fp, sp, lr}
    4a0c:	5f5f2029 	svcpl	0x005f2029
    4a10:	72747461 	rsbsvc	r7, r4, #1627389952	@ 0x61000000
    4a14:	74756269 	ldrbtvc	r6, [r5], #-617	@ 0xfffffd97
    4a18:	285f5f65 	ldmdacs	pc, {r0, r2, r5, r6, r8, r9, sl, fp, ip, lr}^	@ <UNPREDICTABLE>
    4a1c:	615f5f28 	cmpvs	pc, r8, lsr #30
    4a20:	636f6c6c 	cmnvs	pc, #108, 24	@ 0x6c00
    4a24:	696c615f 	stmdbvs	ip!, {r0, r1, r2, r3, r4, r6, r8, sp, lr}^
    4a28:	5f5f6e67 	svcpl	0x005f6e67
    4a2c:	29297828 	stmdbcs	r9!, {r3, r5, fp, ip, sp, lr}
    4a30:	5f5f0029 	svcpl	0x005f0029
    4a34:	6f6c6e75 	svcvs	0x006c6e75
    4a38:	28736b63 	ldmdacs	r3!, {r0, r1, r5, r6, r8, r9, fp, sp, lr}^
    4a3c:	292e2e2e 	stmdbcs	lr!, {r1, r2, r3, r5, r9, sl, fp, sp}
    4a40:	6c5f5f20 	ldclvs	15, cr5, [pc], {32}
    4a44:	5f6b636f 	svcpl	0x006b636f
    4a48:	6f6e6e61 	svcvs	0x006e6e61
    4a4c:	65746174 	ldrbvs	r6, [r4, #-372]!	@ 0xfffffe8c
    4a50:	6c6e7528 	stclvs	5, cr7, [lr], #-160	@ 0xffffff60
    4a54:	5f6b636f 	svcpl	0x006b636f
    4a58:	636e7566 	cmnvs	lr, #427819008	@ 0x19800000
    4a5c:	6e6f6974 			@ <UNDEFINED> instruction: 0x6e6f6974
    4a60:	565f5f28 	ldrbpl	r5, [pc], -r8, lsr #30
    4a64:	52415f41 	subpl	r5, r1, #260	@ 0x104
    4a68:	5f5f5347 	svcpl	0x005f5347
    4a6c:	5f002929 	svcpl	0x00002929
    4a70:	6572705f 	ldrbvs	r7, [r2, #-95]!	@ 0xffffffa1
    4a74:	74636964 	strbtvc	r6, [r3], #-2404	@ 0xfffff69c
    4a78:	7572745f 	ldrbvc	r7, [r2, #-1119]!	@ 0xfffffba1
    4a7c:	78652865 	stmdavc	r5!, {r0, r2, r5, r6, fp, sp}^
    4a80:	5f202970 	svcpl	0x00202970
    4a84:	6975625f 	ldmdbvs	r5!, {r0, r1, r2, r3, r4, r6, r9, sp, lr}^
    4a88:	6e69746c 	cdpvs	4, 6, cr7, cr9, cr12, {3}
    4a8c:	7078655f 	rsbsvc	r6, r8, pc, asr r5
    4a90:	28746365 	ldmdacs	r4!, {r0, r2, r5, r6, r8, r9, sp, lr}^
    4a94:	70786528 	rsbsvc	r6, r8, r8, lsr #10
    4a98:	31202c29 			@ <UNDEFINED> instruction: 0x31202c29
    4a9c:	535f0029 	cmppl	pc, #41	@ 0x29
    4aa0:	5f325f43 	svcpl	0x00325f43
    4aa4:	445f5753 	ldrbmi	r5, [pc], #-1875	@ 4aac <__max_heap_size+0x46ac>
    4aa8:	31205645 			@ <UNDEFINED> instruction: 0x31205645
    4aac:	5f003931 	svcpl	0x00003931
    4ab0:	636f6c5f 	cmnvs	pc, #24320	@ 0x5f00
    4ab4:	65725f6b 	ldrbvs	r5, [r2, #-3947]!	@ 0xfffff095
    4ab8:	7361656c 	cmnvc	r1, #108, 10	@ 0x1b000000
    4abc:	65725f65 	ldrbvs	r5, [r2, #-3941]!	@ 0xfffff09b
    4ac0:	73727563 	cmnvc	r2, #415236096	@ 0x18c00000
    4ac4:	28657669 	stmdacs	r5!, {r0, r3, r5, r6, r9, sl, ip, sp, lr}^
    4ac8:	6b636f6c 	blvs	18e0880 <__max_heap_size+0x18e0480>
    4acc:	5f5f2029 	svcpl	0x005f2029
    4ad0:	61746572 	cmnvs	r4, r2, ror r5
    4ad4:	74656772 	strbtvc	r6, [r5], #-1906	@ 0xfffff88e
    4ad8:	636f6c5f 	cmnvs	pc, #24320	@ 0x5f00
    4adc:	65725f6b 	ldrbvs	r5, [r2, #-3947]!	@ 0xfffff095
    4ae0:	7361656c 	cmnvc	r1, #108, 10	@ 0x1b000000
    4ae4:	65725f65 	ldrbvs	r5, [r2, #-3941]!	@ 0xfffff09b
    4ae8:	73727563 	cmnvc	r2, #415236096	@ 0x18c00000
    4aec:	28657669 	stmdacs	r5!, {r0, r3, r5, r6, r9, sl, ip, sp, lr}^
    4af0:	6b636f6c 	blvs	18e08a8 <__max_heap_size+0x18e04a8>
    4af4:	4c430029 	stclmi	0, cr0, [r3], {41}	@ 0x29
    4af8:	5f4b434f 	svcpl	0x004b434f
    4afc:	41534944 	cmpmi	r3, r4, asr #18
    4b00:	574f4c4c 	strbpl	r4, [pc, -ip, asr #24]
    4b04:	30204445 	eorcc	r4, r0, r5, asr #8
    4b08:	615f5f00 	cmpvs	pc, r0, lsl #30
    4b0c:	69727474 	ldmdbvs	r2!, {r2, r4, r5, r6, sl, ip, sp, lr}^
    4b10:	65747562 	ldrbvs	r7, [r4, #-1378]!	@ 0xfffffa9e
    4b14:	726f665f 	rsbvc	r6, pc, #99614720	@ 0x5f00000
    4b18:	5f74616d 	svcpl	0x0074616d
    4b1c:	66727473 			@ <UNDEFINED> instruction: 0x66727473
    4b20:	5f6e6f6d 	svcpl	0x006e6f6d
    4b24:	2c61285f 	stclcs	8, cr2, [r1], #-380	@ 0xfffffe84
    4b28:	00202962 	eoreq	r2, r0, r2, ror #18
    4b2c:	4453425f 	ldrbmi	r4, [r3], #-607	@ 0xfffffda1
    4b30:	5a49535f 	bpl	12598b4 <__max_heap_size+0x12594b4>
    4b34:	5f545f45 	svcpl	0x00545f45
    4b38:	49464544 	stmdbmi	r6, {r2, r6, r8, sl, lr}^
    4b3c:	5f44454e 	svcpl	0x0044454e
    4b40:	5f5f0020 	svcpl	0x005f0020
    4b44:	746e695f 	strbtvc	r6, [lr], #-2399	@ 0xfffff6a1
    4b48:	7a69735f 	bvc	1a618cc <__max_heap_size+0x1a614cc>
    4b4c:	5f745f65 	svcpl	0x00745f65
    4b50:	5f002068 	svcpl	0x00002068
    4b54:	554e475f 	strbpl	r4, [lr, #-1887]	@ 0xfffff8a1
    4b58:	4b494c43 	blmi	1257c6c <__max_heap_size+0x125786c>
    4b5c:	414d5f45 	cmpmi	sp, r5, asr #30
    4b60:	425f4854 	subsmi	r4, pc, #84, 16	@ 0x540000
    4b64:	544c4955 	strbpl	r4, [ip], #-2389	@ 0xfffff6ab
    4b68:	525f4e49 	subspl	r4, pc, #1168	@ 0x490
    4b6c:	504f4c45 	subpl	r4, pc, r5, asr #24
    4b70:	5f002053 	svcpl	0x00002053
    4b74:	544d505f 	strbpl	r5, [sp], #-95	@ 0xffffffa1
    4b78:	67726128 	ldrbvs	r6, [r2, -r8, lsr #2]!
    4b7c:	61202973 			@ <UNDEFINED> instruction: 0x61202973
    4b80:	00736772 	rsbseq	r6, r3, r2, ror r7
    4b84:	5f43535f 	svcpl	0x0043535f
    4b88:	454e494c 	strbmi	r4, [lr, #-2380]	@ 0xfffff6b4
    4b8c:	58414d5f 	stmdapl	r1, {r0, r1, r2, r3, r4, r6, r8, sl, fp, lr}^
    4b90:	00383620 	eorseq	r3, r8, r0, lsr #12
    4b94:	725f7473 	subsvc	r7, pc, #1929379840	@ 0x73000000
    4b98:	00766564 	rsbseq	r6, r6, r4, ror #10
    4b9c:	4545525f 	strbmi	r5, [r5, #-607]	@ 0xfffffda1
    4ba0:	535f544e 	cmppl	pc, #1308622848	@ 0x4e000000
    4ba4:	4c4c414d 	stclmi	1, cr4, [ip], {77}	@ 0x4d
    4ba8:	4548435f 	strbmi	r4, [r8, #-863]	@ 0xfffffca1
    4bac:	495f4b43 	ldmdbmi	pc, {r0, r1, r6, r8, r9, fp, lr}^	@ <UNPREDICTABLE>
    4bb0:	2854494e 	ldmdacs	r4, {r1, r2, r3, r6, r8, fp, lr}^
    4bb4:	29727470 	ldmdbcs	r2!, {r4, r5, r6, sl, ip, sp, lr}^
    4bb8:	525f0020 	subspl	r0, pc, #32
    4bbc:	5f444145 	svcpl	0x00444145
    4bc0:	54495257 	strbpl	r5, [r9], #-599	@ 0xfffffda9
    4bc4:	45525f45 	ldrbmi	r5, [r2, #-3909]	@ 0xfffff0bb
    4bc8:	4e525554 	mrcmi	5, 2, r5, cr2, cr4, {2}
    4bcc:	5059545f 	subspl	r5, r9, pc, asr r4
    4bd0:	6e692045 	cdpvs	0, 6, cr2, cr9, cr5, {2}
    4bd4:	525f0074 	subspl	r0, pc, #116	@ 0x74
    4bd8:	544e4545 	strbpl	r4, [lr], #-1349	@ 0xfffffabb
    4bdc:	454d455f 	strbmi	r4, [sp, #-1375]	@ 0xfffffaa1
    4be0:	4e454752 	mcrmi	7, 2, r4, cr5, cr2, {2}
    4be4:	5f285943 	svcpl	0x00285943
    4be8:	29727470 	ldmdbcs	r2!, {r4, r5, r6, sl, ip, sp, lr}^
    4bec:	5f282820 	svcpl	0x00282820
    4bf0:	29727470 	ldmdbcs	r2!, {r4, r5, r6, sl, ip, sp, lr}^
    4bf4:	655f3e2d 	ldrbvs	r3, [pc, #-3629]	@ 3dcf <__max_heap_size+0x39cf>
    4bf8:	6772656d 	ldrbvs	r6, [r2, -sp, ror #10]!
    4bfc:	79636e65 	stmdbvc	r3!, {r0, r2, r5, r6, r9, sl, fp, sp, lr}^
    4c00:	5f530029 	svcpl	0x00530029
    4c04:	544f5249 	strbpl	r5, [pc], #-585	@ 4c0c <__max_heap_size+0x480c>
    4c08:	30302048 	eorscc	r2, r0, r8, asr #32
    4c0c:	30303030 	eorscc	r3, r0, r0, lsr r0
    4c10:	5f5f0034 	svcpl	0x005f0034
    4c14:	49464544 	stmdbmi	r6, {r2, r6, r8, sl, lr}^
    4c18:	5f44454e 	svcpl	0x0044454e
    4c1c:	657a6973 	ldrbvs	r6, [sl, #-2419]!	@ 0xfffff68d
    4c20:	0020745f 	eoreq	r7, r0, pc, asr r4
    4c24:	5f43535f 	svcpl	0x0043535f
    4c28:	42505f32 	subsmi	r5, r0, #50, 30	@ 0xc8
    4c2c:	52545f53 	subspl	r5, r4, #332	@ 0x14c
    4c30:	204b4341 	subcs	r4, fp, r1, asr #6
    4c34:	00383131 	eorseq	r3, r8, r1, lsr r1
    4c38:	656e5f5f 	strbvs	r5, [lr, #-3935]!	@ 0xfffff0a1
    4c3c:	775f6465 	ldrbvc	r6, [pc, -r5, ror #8]
    4c40:	5f746e69 	svcpl	0x00746e69
    4c44:	5f5f0074 	svcpl	0x005f0074
    4c48:	5f6d7973 	svcpl	0x006d7973
    4c4c:	61666564 	cmnvs	r6, r4, ror #10
    4c50:	28746c75 	ldmdacs	r4!, {r0, r2, r4, r5, r6, sl, fp, sp, lr}^
    4c54:	2c6d7973 			@ <UNDEFINED> instruction: 0x2c6d7973
    4c58:	6c706d69 	ldclvs	13, cr6, [r0], #-420	@ 0xfffffe5c
    4c5c:	7265762c 	rsbvc	r7, r5, #44, 12	@ 0x2c00000
    4c60:	20296469 	eorcs	r6, r9, r9, ror #8
    4c64:	73615f5f 	cmnvc	r1, #380	@ 0x17c
    4c68:	285f5f6d 	ldmdacs	pc, {r0, r2, r3, r5, r6, r8, r9, sl, fp, ip, lr}^	@ <UNPREDICTABLE>
    4c6c:	79732e22 	ldmdbvc	r3!, {r1, r5, r9, sl, fp, sp}^
    4c70:	7265766d 	rsbvc	r7, r5, #114294784	@ 0x6d00000
    4c74:	23202220 			@ <UNDEFINED> instruction: 0x23202220
    4c78:	6c706d69 	ldclvs	13, cr6, [r0], #-420	@ 0xfffffe5c
    4c7c:	202c2220 	eorcs	r2, ip, r0, lsr #4
    4c80:	73232022 			@ <UNDEFINED> instruction: 0x73232022
    4c84:	22206d79 	eorcs	r6, r0, #7744	@ 0x1e40
    4c88:	20224040 	eorcs	r4, r2, r0, asr #32
    4c8c:	72657623 	rsbvc	r7, r5, #36700160	@ 0x2300000
    4c90:	00296469 	eoreq	r6, r9, r9, ror #8
    4c94:	5f43535f 	svcpl	0x0043535f
    4c98:	45524854 	ldrbmi	r4, [r2, #-2132]	@ 0xfffff7ac
    4c9c:	525f4441 	subspl	r4, pc, #1090519040	@ 0x41000000
    4ca0:	5355424f 	cmppl	r5, #-268435452	@ 0xf0000004
    4ca4:	52505f54 	subspl	r5, r0, #84, 30	@ 0x150
    4ca8:	505f4f49 	subspl	r4, pc, r9, asr #30
    4cac:	45544f52 	ldrbmi	r4, [r4, #-3922]	@ 0xfffff0ae
    4cb0:	31205443 			@ <UNDEFINED> instruction: 0x31205443
    4cb4:	5f003332 	svcpl	0x00003332
    4cb8:	6c6c615f 	stclvs	1, cr6, [ip], #-380	@ 0xfffffe84
    4cbc:	735f636f 	cmpvc	pc, #-1140850687	@ 0xbc000001
    4cc0:	32657a69 	rsbcc	r7, r5, #430080	@ 0x69000
    4cc4:	782c6e28 	stmdavc	ip!, {r3, r5, r9, sl, fp, sp, lr}
    4cc8:	5f5f2029 	svcpl	0x005f2029
    4ccc:	72747461 	rsbsvc	r7, r4, #1627389952	@ 0x61000000
    4cd0:	74756269 	ldrbtvc	r6, [r5], #-617	@ 0xfffffd97
    4cd4:	285f5f65 	ldmdacs	pc, {r0, r2, r5, r6, r8, r9, sl, fp, ip, lr}^	@ <UNPREDICTABLE>
    4cd8:	615f5f28 	cmpvs	pc, r8, lsr #30
    4cdc:	636f6c6c 	cmnvs	pc, #108, 24	@ 0x6c00
    4ce0:	7a69735f 	bvc	1a61a64 <__max_heap_size+0x1a61664>
    4ce4:	285f5f65 	ldmdacs	pc, {r0, r2, r5, r6, r8, r9, sl, fp, ip, lr}^	@ <UNPREDICTABLE>
    4ce8:	78202c6e 	stmdavc	r0!, {r1, r2, r3, r5, r6, sl, fp, sp}
    4cec:	00292929 	eoreq	r2, r9, r9, lsr #18
    4cf0:	5f43505f 	svcpl	0x0043505f
    4cf4:	4f4c4c41 	svcmi	0x004c4c41
    4cf8:	49535f43 	ldmdbmi	r3, {r0, r1, r6, r8, r9, sl, fp, ip, lr}^
    4cfc:	4d5f455a 	ldclmi	5, cr4, [pc, #-360]	@ 4b9c <__max_heap_size+0x479c>
    4d00:	31204e49 			@ <UNDEFINED> instruction: 0x31204e49
    4d04:	535f0035 	cmppl	pc, #53	@ 0x35
    4d08:	454d5f43 	strbmi	r5, [sp, #-3907]	@ 0xfffff0bd
    4d0c:	434f4c4d 	cmpmi	pc, #19712	@ 0x4d00
    4d10:	3432204b 	ldrtcc	r2, [r2], #-75	@ 0xffffffb5
    4d14:	43535f00 	cmpmi	r3, #0, 30
    4d18:	56454c5f 			@ <UNDEFINED> instruction: 0x56454c5f
    4d1c:	5f314c45 	svcpl	0x00314c45
    4d20:	43414344 	cmpmi	r1, #68, 6	@ 0x10000001
    4d24:	535f4548 	cmppl	pc, #72, 10	@ 0x12000000
    4d28:	20455a49 	subcs	r5, r5, r9, asr #20
    4d2c:	00383231 	eorseq	r3, r8, r1, lsr r2
    4d30:	5641485f 			@ <UNDEFINED> instruction: 0x5641485f
    4d34:	4f4c5f45 	svcmi	0x004c5f45
    4d38:	445f474e 	ldrbmi	r4, [pc], #-1870	@ 4d40 <__max_heap_size+0x4940>
    4d3c:	4c42554f 	stclmi	5, cr5, [r2], {79}	@ 0x4f
    4d40:	00312045 	eorseq	r2, r1, r5, asr #32
    4d44:	4545525f 	strbmi	r5, [r5, #-607]	@ 0xfffffda1
    4d48:	455f544e 	ldrbmi	r5, [pc, #-1102]	@ 4902 <__max_heap_size+0x4502>
    4d4c:	4752454d 	ldrbmi	r4, [r2, -sp, asr #10]
    4d50:	59434e45 	stmdbpl	r3, {r0, r2, r6, r9, sl, fp, lr}^
    4d54:	5a49535f 	bpl	1259ad8 <__max_heap_size+0x12596d8>
    4d58:	35322045 	ldrcc	r2, [r2, #-69]!	@ 0xffffffbb
    4d5c:	43535f00 	cmpmi	r3, #0, 30
    4d60:	5248545f 	subpl	r5, r8, #1593835520	@ 0x5f000000
    4d64:	5f444145 	svcpl	0x00444145
    4d68:	54555043 	ldrbpl	r5, [r5], #-67	@ 0xffffffbd
    4d6c:	20454d49 	subcs	r4, r5, r9, asr #26
    4d70:	5f003038 	svcpl	0x00003038
    4d74:	325f4353 	subscc	r4, pc, #1275068417	@ 0x4c000001
    4d78:	5245565f 	subpl	r5, r5, #99614720	@ 0x5f00000
    4d7c:	4e4f4953 			@ <UNDEFINED> instruction: 0x4e4f4953
    4d80:	31323120 	teqcc	r2, r0, lsr #2
    4d84:	635f5f00 	cmpvs	pc, #0, 30
    4d88:	72646461 	rsbvc	r6, r4, #1627389952	@ 0x61000000
    4d8c:	645f745f 	ldrbvs	r7, [pc], #-1119	@ 4d94 <__max_heap_size+0x4994>
    4d90:	6e696665 	cdpvs	6, 6, cr6, cr9, cr5, {3}
    4d94:	00206465 	eoreq	r6, r0, r5, ror #8
    4d98:	4545525f 	strbmi	r5, [r5, #-607]	@ 0xfffffda1
    4d9c:	495f544e 	ldmdbmi	pc, {r1, r2, r3, r6, sl, ip, lr}^	@ <UNPREDICTABLE>
    4da0:	5f54494e 	svcpl	0x0054494e
    4da4:	45534552 	ldrbmi	r4, [r3, #-1362]	@ 0xfffffaae
    4da8:	44455652 	strbmi	r5, [r5], #-1618	@ 0xfffff9ae
    4dac:	0020305f 	eoreq	r3, r0, pc, asr r0
    4db0:	4b4f5f46 	blmi	13dcad0 <__max_heap_size+0x13dc6d0>
    4db4:	5f003020 	svcpl	0x00003020
    4db8:	4345445f 	cmpmi	r5, #1593835520	@ 0x5f000000
    4dbc:	54534e4f 	ldrbpl	r4, [r3], #-3663	@ 0xfffff1b1
    4dc0:	70797428 	rsbsvc	r7, r9, r8, lsr #8
    4dc4:	61762c65 	cmnvs	r6, r5, ror #24
    4dc8:	28202972 	stmdacs	r0!, {r1, r4, r5, r6, r8, fp, sp}
    4dcc:	70797428 	rsbsvc	r7, r9, r8, lsr #8
    4dd0:	5f282965 	svcpl	0x00282965
    4dd4:	6e69755f 	mcrvs	5, 3, r7, cr9, cr15, {2}
    4dd8:	72747074 	rsbsvc	r7, r4, #116	@ 0x74
    4ddc:	2829745f 	stmdacs	r9!, {r0, r1, r2, r3, r4, r6, sl, ip, sp, lr}
    4de0:	736e6f63 	cmnvc	lr, #396	@ 0x18c
    4de4:	6f762074 	svcvs	0x00762074
    4de8:	2a206469 	bcs	81df94 <__max_heap_size+0x81db94>
    4dec:	61762829 	cmnvs	r6, r9, lsr #16
    4df0:	00292972 	eoreq	r2, r9, r2, ror r9
    4df4:	6f6e5f5f 	svcvs	0x006e5f5f
    4df8:	696c6e69 	stmdbvs	ip!, {r0, r3, r5, r6, r9, sl, fp, sp, lr}^
    4dfc:	5f20656e 	svcpl	0x0020656e
    4e00:	7474615f 	ldrbtvc	r6, [r4], #-351	@ 0xfffffea1
    4e04:	75626972 	strbvc	r6, [r2, #-2418]!	@ 0xfffff68e
    4e08:	5f5f6574 	svcpl	0x005f6574
    4e0c:	5f282820 	svcpl	0x00282820
    4e10:	696f6e5f 	stmdbvs	pc!, {r0, r1, r2, r3, r4, r6, r9, sl, fp, sp, lr}^	@ <UNPREDICTABLE>
    4e14:	6e696c6e 	cdpvs	12, 6, cr6, cr9, cr14, {3}
    4e18:	295f5f65 	ldmdbcs	pc, {r0, r2, r5, r6, r8, r9, sl, fp, ip, lr}^	@ <UNPREDICTABLE>
    4e1c:	535f0029 	cmppl	pc, #41	@ 0x29
    4e20:	45525f43 	ldrbmi	r5, [r2, #-3907]	@ 0xfffff0bd
    4e24:	52454441 	subpl	r4, r5, #1090519040	@ 0x41000000
    4e28:	4952575f 	ldmdbmi	r2, {r0, r1, r2, r3, r4, r6, r8, r9, sl, ip, lr}^
    4e2c:	5f524554 	svcpl	0x00524554
    4e30:	4b434f4c 	blmi	10d8b68 <__max_heap_size+0x10d8768>
    4e34:	31372053 	teqcc	r7, r3, asr r0
    4e38:	43535f00 	cmpmi	r3, #0, 30
    4e3c:	5f37565f 	svcpl	0x0037565f
    4e40:	3436504c 	ldrtcc	r5, [r6], #-76	@ 0xffffffb4
    4e44:	46464f5f 			@ <UNDEFINED> instruction: 0x46464f5f
    4e48:	39203436 	stmdbcc	r0!, {r1, r2, r4, r5, sl, ip, sp}
    4e4c:	4d5f0034 	ldclmi	0, cr0, [pc, #-208]	@ 4d84 <__max_heap_size+0x4984>
    4e50:	454c5f42 	strbmi	r5, [ip, #-3906]	@ 0xfffff0be
    4e54:	414d5f4e 	cmpmi	sp, lr, asr #30
    4e58:	00382058 	eorseq	r2, r8, r8, asr r0
    4e5c:	4f445f5f 	svcmi	0x00445f5f
    4e60:	454c4255 	strbmi	r4, [ip, #-597]	@ 0xfffffdab
    4e64:	5059545f 	subspl	r5, r9, pc, asr r4
    4e68:	6f642045 	svcvs	0x00642045
    4e6c:	656c6275 	strbvs	r6, [ip, #-629]!	@ 0xfffffd8b
    4e70:	46495f00 	strbmi	r5, [r9], -r0, lsl #30
    4e74:	20474552 	subcs	r4, r7, r2, asr r5
    4e78:	30303130 	eorscc	r3, r0, r0, lsr r1
    4e7c:	00303030 	eorseq	r3, r0, r0, lsr r0
    4e80:	69685f5f 	stmdbvs	r8!, {r0, r1, r2, r3, r4, r6, r8, r9, sl, fp, ip, lr}^
    4e84:	6e656464 	cdpvs	4, 6, cr6, cr5, cr4, {3}
    4e88:	615f5f20 	cmpvs	pc, r0, lsr #30
    4e8c:	69727474 	ldmdbvs	r2!, {r2, r4, r5, r6, sl, ip, sp, lr}^
    4e90:	65747562 	ldrbvs	r7, [r4, #-1378]!	@ 0xfffffa9e
    4e94:	28285f5f 	stmdacs	r8!, {r0, r1, r2, r3, r4, r6, r8, r9, sl, fp, ip, lr}
    4e98:	69765f5f 	ldmdbvs	r6!, {r0, r1, r2, r3, r4, r6, r8, r9, sl, fp, ip, lr}^
    4e9c:	69626973 	stmdbvs	r2!, {r0, r1, r4, r5, r6, r8, fp, sp, lr}^
    4ea0:	7974696c 	ldmdbvc	r4!, {r2, r3, r5, r6, r8, fp, sp, lr}^
    4ea4:	22285f5f 	eorcs	r5, r8, #380	@ 0x17c
    4ea8:	64646968 	strbtvs	r6, [r4], #-2408	@ 0xfffff698
    4eac:	29226e65 	stmdbcs	r2!, {r0, r2, r5, r6, r9, sl, fp, sp, lr}
    4eb0:	5f002929 	svcpl	0x00002929
    4eb4:	535f4353 	cmppl	pc, #1275068417	@ 0x4c000001
    4eb8:	45524148 	ldrbmi	r4, [r2, #-328]	@ 0xfffffeb8
    4ebc:	454d5f44 	strbmi	r5, [sp, #-3908]	@ 0xfffff0bc
    4ec0:	59524f4d 	ldmdbpl	r2, {r0, r2, r3, r6, r8, r9, sl, fp, lr}^
    4ec4:	4a424f5f 	bmi	1098c48 <__max_heap_size+0x1098848>
    4ec8:	53544345 	cmppl	r4, #335544321	@ 0x14000001
    4ecc:	00313320 	eorseq	r3, r1, r0, lsr #6
    4ed0:	5f43535f 	svcpl	0x0043535f
    4ed4:	414d4553 	cmpmi	sp, r3, asr r5
    4ed8:	524f4850 	subpl	r4, pc, #80, 16	@ 0x500000
    4edc:	33205345 			@ <UNDEFINED> instruction: 0x33205345
    4ee0:	555f0030 	ldrbpl	r0, [pc, #-48]	@ 4eb8 <__max_heap_size+0x4ab8>
    4ee4:	545f4449 	ldrbpl	r4, [pc], #-1097	@ 4eec <__max_heap_size+0x4aec>
    4ee8:	4345445f 	cmpmi	r5, #1593835520	@ 0x5f000000
    4eec:	4552414c 	ldrbmi	r4, [r2, #-332]	@ 0xfffffeb4
    4ef0:	5f002044 	svcpl	0x00002044
    4ef4:	4e454552 	mcrmi	5, 2, r4, cr5, cr2, {2}
    4ef8:	424d5f54 	submi	r5, sp, #84, 30	@ 0x150
    4efc:	574f5452 			@ <UNDEFINED> instruction: 0x574f5452
    4f00:	54535f43 	ldrbpl	r5, [r3], #-3907	@ 0xfffff0bd
    4f04:	28455441 	stmdacs	r5, {r0, r6, sl, ip, lr}^
    4f08:	29727470 	ldmdbcs	r2!, {r4, r5, r6, sl, ip, sp, lr}^
    4f0c:	70282820 	eorvc	r2, r8, r0, lsr #16
    4f10:	2d297274 	stccs	2, cr7, [r9, #-464]!	@ 0xfffffe30
    4f14:	656e5f3e 	strbvs	r5, [lr, #-3902]!	@ 0xfffff0c2
    4f18:	725f2e77 	subsvc	r2, pc, #1904	@ 0x770
    4f1c:	746e6565 	strbtvc	r6, [lr], #-1381	@ 0xfffffa9b
    4f20:	626d5f2e 	rsbvs	r5, sp, #46, 30	@ 0xb8
    4f24:	776f7472 			@ <UNDEFINED> instruction: 0x776f7472
    4f28:	74735f63 	ldrbtvc	r5, [r3], #-3939	@ 0xfffff09d
    4f2c:	29657461 	stmdbcs	r5!, {r0, r5, r6, sl, ip, sp, lr}^
    4f30:	49575f00 	ldmdbmi	r7, {r8, r9, sl, fp, ip, lr}^
    4f34:	545f544e 	ldrbpl	r5, [pc], #-1102	@ 4f3c <__max_heap_size+0x4b3c>
    4f38:	5f5f0020 	svcpl	0x005f0020
    4f3c:	6465656e 	strbtvs	r6, [r5], #-1390	@ 0xfffffa92
    4f40:	7a69735f 	bvc	1a61cc4 <__max_heap_size+0x1a618c4>
    4f44:	20745f65 	rsbscs	r5, r4, r5, ror #30
    4f48:	43535f00 	cmpmi	r3, #0, 30
    4f4c:	5245565f 	subpl	r5, r5, #99614720	@ 0x5f00000
    4f50:	4e4f4953 			@ <UNDEFINED> instruction: 0x4e4f4953
    4f54:	5f003720 	svcpl	0x00003720
    4f58:	4843414d 	stmdami	r3, {r0, r2, r3, r6, r8, lr}^
    4f5c:	454d4954 	strbmi	r4, [sp, #-2388]	@ 0xfffff6ac
    4f60:	205f485f 	subscs	r4, pc, pc, asr r8	@ <UNPREDICTABLE>
    4f64:	65687700 	strbvs	r7, [r8, #-1792]!	@ 0xfffff900
    4f68:	0065636e 	rsbeq	r6, r5, lr, ror #6
    4f6c:	5f43535f 	svcpl	0x0043535f
    4f70:	5f435f32 	svcpl	0x00435f32
    4f74:	444e4942 	strbmi	r4, [lr], #-2370	@ 0xfffff6be
    4f78:	38303120 	ldmdacc	r0!, {r5, r8, ip, sp}
    4f7c:	43535f00 	cmpmi	r3, #0, 30
    4f80:	505f325f 	subspl	r3, pc, pc, asr r2	@ <UNPREDICTABLE>
    4f84:	435f5342 	cmpmi	pc, #134217729	@ 0x8000001
    4f88:	4b434548 	blmi	10d64b0 <__max_heap_size+0x10d60b0>
    4f8c:	4e494f50 	mcrmi	15, 2, r4, cr9, cr0, {2}
    4f90:	31312054 	teqcc	r1, r4, asr r0
    4f94:	525f0035 	subspl	r0, pc, #53	@ 0x35
    4f98:	544e4545 	strbpl	r4, [lr], #-1349	@ 0xfffffabb
    4f9c:	494e495f 	stmdbmi	lr, {r0, r1, r2, r3, r4, r6, r8, fp, lr}^
    4fa0:	45525f54 	ldrbmi	r5, [r2, #-3924]	@ 0xfffff0ac
    4fa4:	56524553 			@ <UNDEFINED> instruction: 0x56524553
    4fa8:	315f4445 	cmpcc	pc, r5, asr #8
    4fac:	5f5f0020 	svcpl	0x005f0020
    4fb0:	6b616577 	blvs	185e594 <__max_heap_size+0x185e194>
    4fb4:	6d79735f 	ldclvs	3, cr7, [r9, #-380]!	@ 0xfffffe84
    4fb8:	206c6f62 	rsbcs	r6, ip, r2, ror #30
    4fbc:	74615f5f 	strbtvc	r5, [r1], #-3935	@ 0xfffff0a1
    4fc0:	62697274 	rsbvs	r7, r9, #116, 4	@ 0x40000007
    4fc4:	5f657475 	svcpl	0x00657475
    4fc8:	5f28285f 	svcpl	0x0028285f
    4fcc:	6165775f 	cmnvs	r5, pc, asr r7
    4fd0:	295f5f6b 	ldmdbcs	pc, {r0, r1, r3, r5, r6, r8, r9, sl, fp, ip, lr}^	@ <UNPREDICTABLE>
    4fd4:	5f5f0029 	svcpl	0x005f0029
    4fd8:	64657375 	strbtvs	r7, [r5], #-885	@ 0xfffffc8b
    4fdc:	615f5f20 	cmpvs	pc, r0, lsr #30
    4fe0:	69727474 	ldmdbvs	r2!, {r2, r4, r5, r6, sl, ip, sp, lr}^
    4fe4:	65747562 	ldrbvs	r7, [r4, #-1378]!	@ 0xfffffa9e
    4fe8:	28285f5f 	stmdacs	r8!, {r0, r1, r2, r3, r4, r6, r8, r9, sl, fp, ip, lr}
    4fec:	73755f5f 	cmnvc	r5, #380	@ 0x17c
    4ff0:	5f5f6465 	svcpl	0x005f6465
    4ff4:	5f002929 	svcpl	0x00002929
    4ff8:	6e65675f 	mcrvs	7, 3, r6, cr5, cr15, {2}
    4ffc:	63697265 	cmnvs	r9, #1342177286	@ 0x50000006
    5000:	70786528 	rsbsvc	r6, r8, r8, lsr #10
    5004:	2c742c72 	ldclcs	12, cr2, [r4], #-456	@ 0xfffffe38
    5008:	2c736579 	ldclcs	5, cr6, [r3], #-484	@ 0xfffffe1c
    500c:	20296f6e 	eorcs	r6, r9, lr, ror #30
    5010:	6e65475f 	mcrvs	7, 3, r4, cr5, cr15, {2}
    5014:	63697265 	cmnvs	r9, #1342177286	@ 0x50000006
    5018:	70786528 	rsbsvc	r6, r8, r8, lsr #10
    501c:	74202c72 	strtvc	r2, [r0], #-3186	@ 0xfffff38e
    5020:	6579203a 	ldrbvs	r2, [r9, #-58]!	@ 0xffffffc6
    5024:	64202c73 	strtvs	r2, [r0], #-3187	@ 0xfffff38d
    5028:	75616665 	strbvc	r6, [r1, #-1637]!	@ 0xfffff99b
    502c:	203a746c 	eorscs	r7, sl, ip, ror #8
    5030:	00296f6e 	eoreq	r6, r9, lr, ror #30
    5034:	4e475f5f 	mcrmi	15, 2, r5, cr7, cr15, {2}
    5038:	494c4355 	stmdbmi	ip, {r0, r2, r4, r6, r8, r9, lr}^
    503c:	435f454b 	cmpmi	pc, #314572800	@ 0x12c00000
    5040:	5f524f54 	svcpl	0x00524f54
    5044:	54434553 	strbpl	r4, [r3], #-1363	@ 0xfffffaad
    5048:	5f4e4f49 	svcpl	0x004e4f49
    504c:	444e4148 	strbmi	r4, [lr], #-328	@ 0xfffffeb8
    5050:	474e494c 	strbmi	r4, [lr, -ip, asr #18]
    5054:	5f003120 	svcpl	0x00003120
    5058:	4e454552 	mcrmi	5, 2, r4, cr5, cr2, {2}
    505c:	695f2054 	ldmdbvs	pc, {r2, r4, r6, sp}^	@ <UNPREDICTABLE>
    5060:	7275706d 	rsbsvc	r7, r5, #109	@ 0x6d
    5064:	74705f65 	ldrbtvc	r5, [r0], #-3941	@ 0xfffff09b
    5068:	5f5f0072 	svcpl	0x005f0072
    506c:	6f707865 	svcvs	0x00707865
    5070:	64657472 	strbtvs	r7, [r5], #-1138	@ 0xfffffb8e
    5074:	615f5f20 	cmpvs	pc, r0, lsr #30
    5078:	69727474 	ldmdbvs	r2!, {r2, r4, r5, r6, sl, ip, sp, lr}^
    507c:	65747562 	ldrbvs	r7, [r4, #-1378]!	@ 0xfffffa9e
    5080:	28285f5f 	stmdacs	r8!, {r0, r1, r2, r3, r4, r6, r8, r9, sl, fp, ip, lr}
    5084:	69765f5f 	ldmdbvs	r6!, {r0, r1, r2, r3, r4, r6, r8, r9, sl, fp, ip, lr}^
    5088:	69626973 	stmdbvs	r2!, {r0, r1, r4, r5, r6, r8, fp, sp, lr}^
    508c:	7974696c 	ldmdbvc	r4!, {r2, r3, r5, r6, r8, fp, sp, lr}^
    5090:	22285f5f 	eorcs	r5, r8, #380	@ 0x17c
    5094:	61666564 	cmnvs	r6, r4, ror #10
    5098:	22746c75 	rsbscs	r6, r4, #29952	@ 0x7500
    509c:	00292929 	eoreq	r2, r9, r9, lsr #18
    50a0:	4946495f 	stmdbmi	r6, {r0, r1, r2, r3, r4, r6, r8, fp, lr}^
    50a4:	30204f46 	eorcc	r4, r0, r6, asr #30
    50a8:	30303130 	eorscc	r3, r0, r0, lsr r1
    50ac:	5f003030 	svcpl	0x00003030
    50b0:	4e454552 	mcrmi	5, 2, r4, cr5, cr2, {2}
    50b4:	52455f54 	subpl	r5, r5, #84, 30	@ 0x150
    50b8:	284f4e52 	stmdacs	pc, {r1, r4, r6, r9, sl, fp, lr}^	@ <UNPREDICTABLE>
    50bc:	7274705f 	rsbsvc	r7, r4, #95	@ 0x5f
    50c0:	28282029 	stmdacs	r8!, {r0, r3, r5, sp}
    50c4:	7274705f 	rsbsvc	r7, r4, #95	@ 0x5f
    50c8:	5f3e2d29 	svcpl	0x003e2d29
    50cc:	6e727265 	cdpvs	2, 7, cr7, cr2, cr5, {3}
    50d0:	5f00296f 	svcpl	0x0000296f
    50d4:	5f43435f 	svcpl	0x0043435f
    50d8:	50505553 	subspl	r5, r0, r3, asr r5
    50dc:	5354524f 	cmppl	r4, #-268435452	@ 0xf0000004
    50e0:	495f5f5f 	ldmdbmi	pc, {r0, r1, r2, r3, r4, r6, r8, r9, sl, fp, ip, lr}^	@ <UNPREDICTABLE>
    50e4:	4e494c4e 	cdpmi	12, 4, cr4, cr9, cr14, {2}
    50e8:	00312045 	eorseq	r2, r1, r5, asr #32
    50ec:	5359535f 	cmppl	r9, #2080374785	@ 0x7c000001
    50f0:	4544435f 	strbmi	r4, [r4, #-863]	@ 0xfffffca1
    50f4:	485f5346 	ldmdami	pc, {r1, r2, r6, r8, r9, ip, lr}^	@ <UNPREDICTABLE>
    50f8:	5f00205f 	svcpl	0x0000205f
    50fc:	646f6d5f 	strbtvs	r6, [pc], #-3423	@ 5104 <__max_heap_size+0x4d04>
    5100:	00745f65 	rsbseq	r5, r4, r5, ror #30
    5104:	4545525f 	strbmi	r5, [r5, #-607]	@ 0xfffffda1
    5108:	495f544e 	ldmdbmi	pc, {r1, r2, r3, r6, sl, ip, lr}^	@ <UNPREDICTABLE>
    510c:	5f28434e 	svcpl	0x0028434e
    5110:	29727470 	ldmdbcs	r2!, {r4, r5, r6, sl, ip, sp, lr}^
    5114:	5f282820 	svcpl	0x00282820
    5118:	29727470 	ldmdbcs	r2!, {r4, r5, r6, sl, ip, sp, lr}^
    511c:	695f3e2d 	ldmdbvs	pc, {r0, r2, r3, r5, r9, sl, fp, ip, sp}^	@ <UNPREDICTABLE>
    5120:	0029636e 	eoreq	r6, r9, lr, ror #6
    5124:	505f545f 	subspl	r5, pc, pc, asr r4	@ <UNPREDICTABLE>
    5128:	49445254 	stmdbmi	r4, {r2, r4, r6, r9, ip, lr}^
    512c:	205f4646 	subscs	r4, pc, r6, asr #12
    5130:	43535f00 	cmpmi	r3, #0, 30
    5134:	56454c5f 			@ <UNDEFINED> instruction: 0x56454c5f
    5138:	5f324c45 	svcpl	0x00324c45
    513c:	48434143 	stmdami	r3, {r0, r1, r6, r8, lr}^
    5140:	53415f45 	cmppl	r1, #276	@ 0x114
    5144:	20434f53 	subcs	r4, r3, r3, asr pc
    5148:	00323331 	eorseq	r3, r2, r1, lsr r3
    514c:	5f43535f 	svcpl	0x0043535f
    5150:	4c414552 	stclmi	5, cr4, [r1], {82}	@ 0x52
    5154:	454d4954 	strbmi	r4, [sp, #-2388]	@ 0xfffff6ac
    5158:	4749535f 			@ <UNDEFINED> instruction: 0x4749535f
    515c:	534c414e 	cmppl	ip, #-2147483629	@ 0x80000013
    5160:	00393220 	eorseq	r3, r9, r0, lsr #4
    5164:	65725f5f 	ldrbvs	r5, [r2, #-3935]!	@ 0xfffff0a1
    5168:	72697571 	rsbvc	r7, r9, #473956352	@ 0x1c400000
    516c:	735f7365 	cmpvc	pc, #-1811939327	@ 0x94000001
    5170:	65726168 	ldrbvs	r6, [r2, #-360]!	@ 0xfffffe98
    5174:	2e2e2864 	cdpcs	8, 2, cr2, cr14, cr4, {3}
    5178:	5f20292e 	svcpl	0x0020292e
    517c:	636f6c5f 	cmnvs	pc, #24320	@ 0x5f00
    5180:	6e615f6b 	cdpvs	15, 6, cr5, cr1, cr11, {3}
    5184:	61746f6e 	cmnvs	r4, lr, ror #30
    5188:	73286574 			@ <UNDEFINED> instruction: 0x73286574
    518c:	65726168 	ldrbvs	r6, [r2, #-360]!	@ 0xfffffe98
    5190:	6f6c5f64 	svcvs	0x006c5f64
    5194:	5f736b63 	svcpl	0x00736b63
    5198:	75716572 	ldrbvc	r6, [r1, #-1394]!	@ 0xfffffa8e
    519c:	64657269 	strbtvs	r7, [r5], #-617	@ 0xfffffd97
    51a0:	565f5f28 	ldrbpl	r5, [pc], -r8, lsr #30
    51a4:	52415f41 	subpl	r5, r1, #260	@ 0x104
    51a8:	5f5f5347 	svcpl	0x005f5347
    51ac:	5f002929 	svcpl	0x00002929
    51b0:	5f444e45 	svcpl	0x00444e45
    51b4:	5f445453 	svcpl	0x00445453
    51b8:	53002043 	tstpl	r0, #67	@ 0x43
    51bc:	4353495f 	cmpmi	r3, #1556480	@ 0x17c000
    51c0:	6d285248 	stcvs	2, cr5, [r8, #-288]!	@ 0xfffffee0
    51c4:	28282029 	stmdacs	r8!, {r0, r3, r5, sp}
    51c8:	26296d28 	strtcs	r6, [r9], -r8, lsr #26
    51cc:	4d46495f 			@ <UNDEFINED> instruction: 0x4d46495f
    51d0:	3d202954 			@ <UNDEFINED> instruction: 0x3d202954
    51d4:	495f203d 	ldmdbmi	pc, {r0, r2, r3, r4, r5, sp}^	@ <UNPREDICTABLE>
    51d8:	52484346 	subpl	r4, r8, #402653185	@ 0x18000001
    51dc:	535f0029 	cmppl	pc, #41	@ 0x29
    51e0:	52545f43 	subspl	r5, r4, #268	@ 0x10c
    51e4:	5f454341 	svcpl	0x00454341
    51e8:	454d414e 	strbmi	r4, [sp, #-334]	@ 0xfffffeb2
    51ec:	58414d5f 	stmdapl	r1, {r0, r1, r2, r3, r4, r6, r8, sl, fp, lr}^
    51f0:	00383820 	eorseq	r3, r8, r0, lsr #16
    51f4:	5359535f 	cmppl	r9, #2080374785	@ 0x7c000001
    51f8:	5059545f 	subspl	r5, r9, pc, asr r4
    51fc:	485f5345 	ldmdami	pc, {r0, r2, r6, r8, r9, ip, lr}^	@ <UNPREDICTABLE>
    5200:	5f530020 	svcpl	0x00530020
    5204:	49465349 	stmdbmi	r6, {r0, r3, r6, r8, r9, ip, lr}^
    5208:	6d284f46 	stcvs	15, cr4, [r8, #-280]!	@ 0xfffffee8
    520c:	28282029 	stmdacs	r8!, {r0, r3, r5, sp}
    5210:	26296d28 	strtcs	r6, [r9], -r8, lsr #26
    5214:	4d46495f 			@ <UNDEFINED> instruction: 0x4d46495f
    5218:	3d202954 			@ <UNDEFINED> instruction: 0x3d202954
    521c:	495f203d 	ldmdbmi	pc, {r0, r2, r3, r4, r5, sp}^	@ <UNPREDICTABLE>
    5220:	4f464946 	svcmi	0x00464946
    5224:	505f0029 	subspl	r0, pc, r9, lsr #32
    5228:	53415f43 	cmppl	r1, #268	@ 0x10c
    522c:	5f434e59 	svcpl	0x00434e59
    5230:	39204f49 	stmdbcc	r0!, {r0, r3, r6, r8, r9, sl, fp, lr}
    5234:	43535f00 	cmpmi	r3, #0, 30
    5238:	5058455f 	subspl	r4, r8, pc, asr r5
    523c:	454e5f52 	strbmi	r5, [lr, #-3922]	@ 0xfffff0ae
    5240:	4d5f5453 	ldclmi	4, cr5, [pc, #-332]	@ 50fc <__max_heap_size+0x4cfc>
    5244:	36205841 	strtcc	r5, [r0], -r1, asr #16
    5248:	4e5f0034 	mrcmi	0, 2, r0, cr15, cr4, {1}
    524c:	5f6c6c75 	svcpl	0x006c6c75
    5250:	70736e75 	rsbsvc	r6, r3, r5, ror lr
    5254:	66696365 	strbtvs	r6, [r9], -r5, ror #6
    5258:	20646569 	rsbcs	r6, r4, r9, ror #10
    525c:	43535f00 	cmpmi	r3, #0, 30
    5260:	56454c5f 			@ <UNDEFINED> instruction: 0x56454c5f
    5264:	5f314c45 	svcpl	0x00314c45
    5268:	43414344 	cmpmi	r1, #68, 6	@ 0x10000001
    526c:	4c5f4548 	ldclmi	5, cr4, [pc], {72}	@ 0x48
    5270:	53454e49 	cmppl	r5, #1168	@ 0x490
    5274:	20455a49 	subcs	r5, r5, r9, asr #20
    5278:	00303331 	eorseq	r3, r0, r1, lsr r3
    527c:	5f43535f 	svcpl	0x0043535f
    5280:	43415254 	cmpmi	r1, #84, 4	@ 0x40000005
    5284:	56455f45 	strbpl	r5, [r5], -r5, asr #30
    5288:	5f544e45 	svcpl	0x00544e45
    528c:	454d414e 	strbmi	r4, [sp, #-334]	@ 0xfffffeb2
    5290:	58414d5f 	stmdapl	r1, {r0, r1, r2, r3, r4, r6, r8, sl, fp, lr}^
    5294:	00353820 	eorseq	r3, r5, r0, lsr #16
    5298:	53585f5f 	cmppl	r8, #380	@ 0x17c
    529c:	4e495254 	mcrmi	2, 2, r5, cr9, cr4, {2}
    52a0:	29782847 	ldmdbcs	r8!, {r0, r1, r2, r6, fp, sp}^
    52a4:	535f5f20 	cmppl	pc, #32, 30	@ 0x80
    52a8:	4e495254 	mcrmi	2, 2, r5, cr9, cr4, {2}
    52ac:	29782847 	ldmdbcs	r8!, {r0, r1, r2, r6, fp, sp}^
    52b0:	615f5f00 	cmpvs	pc, r0, lsl #30
    52b4:	69727474 	ldmdbvs	r2!, {r2, r4, r5, r6, sl, ip, sp, lr}^
    52b8:	65747562 	ldrbvs	r7, [r4, #-1378]!	@ 0xfffffa9e
    52bc:	7275705f 	rsbsvc	r7, r5, #95	@ 0x5f
    52c0:	205f5f65 	subscs	r5, pc, r5, ror #30
    52c4:	49575f00 	ldmdbmi	r7, {r8, r9, sl, fp, ip, lr}^
    52c8:	4f5f4544 	svcmi	0x005f4544
    52cc:	4e454952 			@ <UNDEFINED> instruction: 0x4e454952
    52d0:	00312054 	eorseq	r2, r1, r4, asr r0
    52d4:	6d5f7473 	ldclvs	4, cr7, [pc, #-460]	@ 5110 <__max_heap_size+0x4d10>
    52d8:	656d6974 	strbvs	r6, [sp, #-2420]!	@ 0xfffff68c
    52dc:	5f747320 	svcpl	0x00747320
    52e0:	6d69746d 	stclvs	4, cr7, [r9, #-436]!	@ 0xfffffe4c
    52e4:	5f76742e 	svcpl	0x0076742e
    52e8:	00636573 	rsbeq	r6, r3, r3, ror r5
    52ec:	4545525f 	strbmi	r5, [r5, #-607]	@ 0xfffffda1
    52f0:	535f544e 	cmppl	pc, #1308622848	@ 0x4e000000
    52f4:	474e4749 	strbmi	r4, [lr, -r9, asr #14]
    52f8:	70284d41 	eorvc	r4, r8, r1, asr #26
    52fc:	20297274 	eorcs	r7, r9, r4, ror r2
    5300:	74702828 	ldrbtvc	r2, [r0], #-2088	@ 0xfffff7d8
    5304:	3e2d2972 			@ <UNDEFINED> instruction: 0x3e2d2972
    5308:	77656e5f 			@ <UNDEFINED> instruction: 0x77656e5f
    530c:	65725f2e 	ldrbvs	r5, [r2, #-3886]!	@ 0xfffff0d2
    5310:	2e746e65 	cdpcs	14, 7, cr6, cr4, cr5, {3}
    5314:	6d61675f 	stclvs	7, cr6, [r1, #-380]!	@ 0xfffffe84
    5318:	735f616d 	cmpvc	pc, #1073741851	@ 0x4000001b
    531c:	676e6769 	strbvs	r6, [lr, -r9, ror #14]!
    5320:	00296d61 	eoreq	r6, r9, r1, ror #26
    5324:	5f43535f 	svcpl	0x0043535f
    5328:	4556454c 	ldrbmi	r4, [r6, #-1356]	@ 0xfffffab4
    532c:	495f314c 	ldmdbmi	pc, {r2, r3, r6, r8, ip, sp}^	@ <UNPREDICTABLE>
    5330:	48434143 	stmdami	r3, {r0, r1, r6, r8, lr}^
    5334:	49535f45 	ldmdbmi	r3, {r0, r2, r6, r8, r9, sl, fp, ip, lr}^
    5338:	3120455a 			@ <UNDEFINED> instruction: 0x3120455a
    533c:	53003532 	tstpl	r0, #209715200	@ 0xc800000
    5340:	4946495f 	stmdbmi	r6, {r0, r1, r2, r3, r4, r6, r8, fp, lr}^
    5344:	5f204f46 	svcpl	0x00204f46
    5348:	46494649 	strbmi	r4, [r9], -r9, asr #12
    534c:	5f5f004f 	svcpl	0x005f004f
    5350:	6b636f6c 	blvs	18e1108 <__max_heap_size+0x18e0d08>
    5354:	7972745f 	ldmdbvc	r2!, {r0, r1, r2, r3, r4, r6, sl, ip, sp, lr}^
    5358:	7163615f 	cmnvc	r3, pc, asr r1
    535c:	65726975 	ldrbvs	r6, [r2, #-2421]!	@ 0xfffff68b
    5360:	6365725f 	cmnvs	r5, #-268435451	@ 0xf0000005
    5364:	69737275 	ldmdbvs	r3!, {r0, r2, r4, r5, r6, r9, ip, sp, lr}^
    5368:	6c286576 	stcvs	5, cr6, [r8], #-472	@ 0xfffffe28
    536c:	296b636f 	stmdbcs	fp!, {r0, r1, r2, r3, r5, r6, r8, r9, sp, lr}^
    5370:	725f5f20 	subsvc	r5, pc, #32, 30	@ 0x80
    5374:	72617465 	rsbvc	r7, r1, #1694498816	@ 0x65000000
    5378:	5f746567 	svcpl	0x00746567
    537c:	6b636f6c 	blvs	18e1134 <__max_heap_size+0x18e0d34>
    5380:	7972745f 	ldmdbvc	r2!, {r0, r1, r2, r3, r4, r6, sl, ip, sp, lr}^
    5384:	7163615f 	cmnvc	r3, pc, asr r1
    5388:	65726975 	ldrbvs	r6, [r2, #-2421]!	@ 0xfffff68b
    538c:	6365725f 	cmnvs	r5, #-268435451	@ 0xf0000005
    5390:	69737275 	ldmdbvs	r3!, {r0, r2, r4, r5, r6, r9, ip, sp, lr}^
    5394:	6c286576 	stcvs	5, cr6, [r8], #-472	@ 0xfffffe28
    5398:	296b636f 	stmdbcs	fp!, {r0, r1, r2, r3, r5, r6, r8, r9, sp, lr}^
    539c:	46495f00 	strbmi	r5, [r9], -r0, lsl #30
    53a0:	4b434f53 	blmi	10d90f4 <__max_heap_size+0x10d8cf4>
    53a4:	34313020 	ldrtcc	r3, [r1], #-32	@ 0xffffffe0
    53a8:	30303030 	eorscc	r3, r0, r0, lsr r0
    53ac:	5f747300 	svcpl	0x00747300
    53b0:	6e696c6e 	cdpvs	12, 6, cr6, cr9, cr14, {3}
    53b4:	5f5f006b 	svcpl	0x005f006b
    53b8:	4f53424f 	svcmi	0x0053424f
    53bc:	4554454c 	ldrbmi	r4, [r4, #-1356]	@ 0xfffffab4
    53c0:	54414d5f 	strbpl	r4, [r1], #-3423	@ 0xfffff2a1
    53c4:	5f5f2048 	svcpl	0x005f2048
    53c8:	4f53424f 	svcmi	0x0053424f
    53cc:	4554454c 	ldrbmi	r4, [r4, #-1356]	@ 0xfffffab4
    53d0:	54414d5f 	strbpl	r4, [r1], #-3423	@ 0xfffff2a1
    53d4:	45445f48 	strbmi	r5, [r4, #-3912]	@ 0xfffff0b8
    53d8:	4c554146 	ldclmi	1, cr4, [r5], {70}	@ 0x46
    53dc:	535f0054 	cmppl	pc, #84	@ 0x54
    53e0:	54455a49 	strbpl	r5, [r5], #-2633	@ 0xfffff5b7
    53e4:	5f00205f 	svcpl	0x0000205f
    53e8:	535f4353 	cmppl	pc, #1275068417	@ 0x4c000001
    53ec:	55514749 	ldrbpl	r4, [r1, #-1865]	@ 0xfffff8b7
    53f0:	5f455545 	svcpl	0x00455545
    53f4:	2058414d 	subscs	r4, r8, sp, asr #2
    53f8:	54003831 	strpl	r3, [r0], #-2097	@ 0xfffff7cf
    53fc:	52454d49 	subpl	r4, r5, #4672	@ 0x1240
    5400:	5342415f 	cmppl	r2, #-1073741801	@ 0xc0000017
    5404:	454d4954 	strbmi	r4, [sp, #-2388]	@ 0xfffff6ac
    5408:	5f003420 	svcpl	0x00003420
    540c:	545f4353 	ldrbpl	r4, [pc], #-851	@ 5414 <__max_heap_size+0x5014>
    5410:	45434152 	strbmi	r4, [r3, #-338]	@ 0xfffffeae
    5414:	4556455f 	ldrbmi	r4, [r6, #-1375]	@ 0xfffffaa1
    5418:	465f544e 	ldrbmi	r5, [pc], -lr, asr #8
    541c:	45544c49 	ldrbmi	r4, [r4, #-3145]	@ 0xfffff3b7
    5420:	34382052 	ldrtcc	r2, [r8], #-82	@ 0xffffffae
    5424:	6f5f5f00 	svcvs	0x005f5f00
    5428:	65736666 	ldrbvs	r6, [r3, #-1638]!	@ 0xfffff99a
    542c:	28666f74 	stmdacs	r6!, {r2, r4, r5, r6, r8, r9, sl, fp, sp, lr}^
    5430:	65707974 	ldrbvs	r7, [r0, #-2420]!	@ 0xfffff68c
    5434:	6569662c 	strbvs	r6, [r9, #-1580]!	@ 0xfffff9d4
    5438:	2029646c 	eorcs	r6, r9, ip, ror #8
    543c:	7366666f 	cmnvc	r6, #116391936	@ 0x6f00000
    5440:	666f7465 	strbtvs	r7, [pc], -r5, ror #8
    5444:	70797428 	rsbsvc	r7, r9, r8, lsr #8
    5448:	66202c65 	strtvs	r2, [r0], -r5, ror #24
    544c:	646c6569 	strbtvs	r6, [ip], #-1385	@ 0xfffffa97
    5450:	5f530029 	svcpl	0x00530029
    5454:	49555349 	ldmdbmi	r5, {r0, r3, r6, r8, r9, ip, lr}^
    5458:	30302044 	eorscc	r2, r0, r4, asr #32
    545c:	30303430 	eorscc	r3, r0, r0, lsr r4
    5460:	535f0030 	cmppl	pc, #48	@ 0x30
    5464:	43425f43 	cmpmi	r2, #268	@ 0x10c
    5468:	5341425f 	cmppl	r1, #-268435451	@ 0xf0000005
    546c:	414d5f45 	cmpmi	sp, r5, asr #30
    5470:	37352058 			@ <UNDEFINED> instruction: 0x37352058
    5474:	53425f00 	cmppl	r2, #0, 30
    5478:	43575f44 	cmpmi	r7, #68, 30	@ 0x110
    547c:	5f524148 	svcpl	0x00524148
    5480:	00205f54 	eoreq	r5, r0, r4, asr pc
    5484:	4b4c425f 	blmi	1315e08 <__max_heap_size+0x1315a08>
    5488:	455a4953 	ldrbmi	r4, [sl, #-2387]	@ 0xfffff6ad
    548c:	445f545f 	ldrbmi	r5, [pc], #-1119	@ 5494 <__max_heap_size+0x5094>
    5490:	414c4345 	cmpmi	ip, r5, asr #6
    5494:	20444552 	subcs	r4, r4, r2, asr r5
    5498:	6e5f5f00 	cdpvs	15, 5, cr5, cr15, cr0, {0}
    549c:	6e61736f 	cdpvs	3, 6, cr7, cr1, cr15, {3}
    54a0:	7a697469 	bvc	1a6264c <__max_heap_size+0x1a6224c>
    54a4:	6d656d65 	stclvs	13, cr6, [r5, #-404]!	@ 0xfffffe6c
    54a8:	2079726f 	rsbscs	r7, r9, pc, ror #4
    54ac:	6e5f5f00 	cdpvs	15, 5, cr5, cr15, cr0, {0}
    54b0:	6e61736f 	cdpvs	3, 6, cr7, cr1, cr15, {3}
    54b4:	7a697469 	bvc	1a62660 <__max_heap_size+0x1a62260>
    54b8:	64646165 	strbtvs	r6, [r4], #-357	@ 0xfffffe9b
    54bc:	73736572 	cmnvc	r3, #478150656	@ 0x1c800000
    54c0:	535f0020 	cmppl	pc, #32
    54c4:	52415f43 	subpl	r5, r1, #268	@ 0x10c
    54c8:	414d5f47 	cmpmi	sp, r7, asr #30
    54cc:	00302058 	eorseq	r2, r0, r8, asr r0
    54d0:	4545525f 	strbmi	r5, [r5, #-607]	@ 0xfffffda1
    54d4:	535f544e 	cmppl	pc, #1308622848	@ 0x4e000000
    54d8:	4e494454 	mcrmi	4, 2, r4, cr9, cr4, {2}
    54dc:	74705f28 	ldrbtvc	r5, [r0], #-3880	@ 0xfffff0d8
    54e0:	28202972 	stmdacs	r0!, {r1, r4, r5, r6, r8, fp, sp}
    54e4:	74705f28 	ldrbtvc	r5, [r0], #-3880	@ 0xfffff0d8
    54e8:	3e2d2972 			@ <UNDEFINED> instruction: 0x3e2d2972
    54ec:	6474735f 	ldrbtvs	r7, [r4], #-863	@ 0xfffffca1
    54f0:	00296e69 	eoreq	r6, r9, r9, ror #28
    54f4:	434f4c43 	cmpmi	pc, #17152	@ 0x4300
    54f8:	4e455f4b 	cdpmi	15, 4, cr5, cr5, cr11, {2}
    54fc:	454c4241 	strbmi	r4, [ip, #-577]	@ 0xfffffdbf
    5500:	00312044 	eorseq	r2, r1, r4, asr #32
    5504:	5f43535f 	svcpl	0x0043535f
    5508:	45504f58 	ldrbmi	r4, [r0, #-3928]	@ 0xfffff0a8
    550c:	45565f4e 	ldrbmi	r5, [r6, #-3918]	@ 0xfffff0b2
    5510:	4f495352 	svcmi	0x00495352
    5514:	3031204e 	eorscc	r2, r1, lr, asr #32
    5518:	465f0036 			@ <UNDEFINED> instruction: 0x465f0036
    551c:	4b4c4253 	blmi	1315e70 <__max_heap_size+0x1315a70>
    5520:	5f544e43 	svcpl	0x00544e43
    5524:	45445f54 	strbmi	r5, [r4, #-3924]	@ 0xfffff0ac
    5528:	52414c43 	subpl	r4, r1, #17152	@ 0x4300
    552c:	00204445 	eoreq	r4, r0, r5, asr #8
    5530:	54415f5f 	strbpl	r5, [r1], #-3935	@ 0xfffff0a1
    5534:	42495254 	submi	r5, r9, #84, 4	@ 0x40000005
    5538:	5f455455 	svcpl	0x00455455
    553c:	55504d49 	ldrbpl	r4, [r0, #-3401]	@ 0xfffff2b7
    5540:	445f4552 	ldrbmi	r4, [pc], #-1362	@ 5548 <__max_heap_size+0x5148>
    5544:	5f415441 	svcpl	0x00415441
    5548:	5f00205f 	svcpl	0x0000205f
    554c:	525f4353 	subspl	r4, pc, #1275068417	@ 0x4c000001
    5550:	47495354 			@ <UNDEFINED> instruction: 0x47495354
    5554:	58414d5f 	stmdapl	r1, {r0, r1, r2, r3, r4, r6, r8, sl, fp, lr}^
    5558:	00353120 	eorseq	r3, r5, r0, lsr #2
    555c:	53495f53 	cmppl	r9, #332	@ 0x14c
    5560:	4b434f53 	blmi	10d92b4 <__max_heap_size+0x10d8eb4>
    5564:	20296d28 	eorcs	r6, r9, r8, lsr #26
    5568:	6d282828 	stcvs	8, cr2, [r8, #-160]!	@ 0xffffff60
    556c:	495f2629 	ldmdbmi	pc, {r0, r3, r5, r9, sl, sp}^	@ <UNPREDICTABLE>
    5570:	29544d46 	ldmdbcs	r4, {r1, r2, r6, r8, sl, fp, lr}^
    5574:	203d3d20 	eorscs	r3, sp, r0, lsr #26
    5578:	5346495f 	cmppl	r6, #1556480	@ 0x17c000
    557c:	294b434f 	stmdbcs	fp, {r0, r1, r2, r3, r6, r8, r9, lr}^
    5580:	45525f00 	ldrbmi	r5, [r2, #-3840]	@ 0xfffff100
    5584:	5f544e45 	svcpl	0x00544e45
    5588:	43454843 	cmpmi	r5, #4390912	@ 0x430000
    558c:	4d455f4b 	stclmi	15, cr5, [r5, #-300]	@ 0xfffffed4
    5590:	45475245 	strbmi	r5, [r7, #-581]	@ 0xfffffdbb
    5594:	2859434e 	ldmdacs	r9, {r1, r2, r3, r6, r8, r9, lr}^
    5598:	29727470 	ldmdbcs	r2!, {r4, r5, r6, sl, ip, sp, lr}^
    559c:	5f5f0020 	svcpl	0x005f0020
    55a0:	5f66666f 	svcpl	0x0066666f
    55a4:	535f0074 	cmppl	pc, #116	@ 0x74
    55a8:	36565f43 	ldrbcc	r5, [r6], -r3, asr #30
    55ac:	42504c5f 	subsmi	r4, r0, #24320	@ 0x5f00
    55b0:	4f5f4749 	svcmi	0x005f4749
    55b4:	49424646 	stmdbmi	r2, {r1, r2, r6, r9, sl, lr}^
    55b8:	535f2047 	cmppl	pc, #71	@ 0x47
    55bc:	37565f43 	ldrbcc	r5, [r6, -r3, asr #30]
    55c0:	42504c5f 	subsmi	r4, r0, #24320	@ 0x5f00
    55c4:	4f5f4749 	svcmi	0x005f4749
    55c8:	49424646 	stmdbmi	r2, {r1, r2, r6, r9, sl, lr}^
    55cc:	495f0047 	ldmdbmi	pc, {r0, r1, r2, r6}^	@ <UNPREDICTABLE>
    55d0:	4b4e4c46 	blmi	13986f0 <__max_heap_size+0x13982f0>
    55d4:	32313020 	eorscc	r3, r1, #32
    55d8:	30303030 	eorscc	r3, r0, r0, lsr r0
    55dc:	43505f00 	cmpmi	r0, #0, 30
    55e0:	4952505f 	ldmdbmi	r2, {r0, r1, r2, r3, r4, r6, ip, lr}^
    55e4:	4f495f4f 	svcmi	0x00495f4f
    55e8:	00303120 	eorseq	r3, r0, r0, lsr #2
    55ec:	65725f5f 	ldrbvs	r5, [r2, #-3935]!	@ 0xfffff0a1
    55f0:	69727473 	ldmdbvs	r2!, {r0, r1, r4, r5, r6, sl, ip, sp, lr}^
    55f4:	72207463 	eorvc	r7, r0, #1660944384	@ 0x63000000
    55f8:	72747365 	rsbsvc	r7, r4, #-1811939327	@ 0x94000001
    55fc:	00746369 	rsbseq	r6, r4, r9, ror #6
    5600:	4c4c554e 	stclmi	5, cr5, [ip], {78}	@ 0x4e
    5604:	76282820 	strtvc	r2, [r8], -r0, lsr #16
    5608:	2064696f 	rsbcs	r6, r4, pc, ror #18
    560c:	2930292a 	ldmdbcs	r0!, {r1, r3, r5, r8, fp, sp}
    5610:	4c5f5f00 	ldclmi	15, cr5, [pc], {-0}
    5614:	5f4b434f 	svcpl	0x004b434f
    5618:	54494e49 	strbpl	r4, [r9], #-3657	@ 0xfffff1b7
    561c:	4345525f 	cmpmi	r5, #-268435451	@ 0xf0000005
    5620:	49535255 	ldmdbmi	r3, {r0, r2, r4, r6, r9, ip, lr}^
    5624:	63284556 			@ <UNDEFINED> instruction: 0x63284556
    5628:	7373616c 	cmnvc	r3, #108, 2
    562c:	636f6c2c 	cmnvs	pc, #44, 24	@ 0x2c00
    5630:	5f20296b 	svcpl	0x0020296b
    5634:	434f4c5f 	cmpmi	pc, #24320	@ 0x5f00
    5638:	4e495f4b 	cdpmi	15, 4, cr5, cr9, cr11, {2}
    563c:	63285449 			@ <UNDEFINED> instruction: 0x63285449
    5640:	7373616c 	cmnvc	r3, #108, 2
    5644:	636f6c2c 	cmnvs	pc, #44, 24	@ 0x2c00
    5648:	5f00296b 	svcpl	0x0000296b
    564c:	7373615f 	cmnvc	r3, #-1073741801	@ 0xc0000017
    5650:	73747265 	cmnvc	r4, #1342177286	@ 0x50000006
    5654:	6378655f 	cmnvs	r8, #398458880	@ 0x17c00000
    5658:	6973756c 	ldmdbvs	r3!, {r2, r3, r5, r6, r8, sl, ip, sp, lr}^
    565c:	2e286576 	mcrcs	5, 1, r6, cr8, cr6, {3}
    5660:	20292e2e 	eorcs	r2, r9, lr, lsr #28
    5664:	6f6c5f5f 	svcvs	0x006c5f5f
    5668:	615f6b63 	cmpvs	pc, r3, ror #22
    566c:	746f6e6e 	strbtvc	r6, [pc], #-3694	@ 5674 <__max_heap_size+0x5274>
    5670:	28657461 	stmdacs	r5!, {r0, r5, r6, sl, ip, sp, lr}^
    5674:	65737361 	ldrbvs	r7, [r3, #-865]!	@ 0xfffffc9f
    5678:	655f7472 	ldrbvs	r7, [pc, #-1138]	@ 520e <__max_heap_size+0x4e0e>
    567c:	756c6378 	strbvc	r6, [ip, #-888]!	@ 0xfffffc88
    5680:	65766973 	ldrbvs	r6, [r6, #-2419]!	@ 0xfffff68d
    5684:	636f6c5f 	cmnvs	pc, #24320	@ 0x5f00
    5688:	5f5f286b 	svcpl	0x005f286b
    568c:	415f4156 	cmpmi	pc, r6, asr r1	@ <UNPREDICTABLE>
    5690:	5f534752 	svcpl	0x00534752
    5694:	0029295f 	eoreq	r2, r9, pc, asr r9
    5698:	4545525f 	strbmi	r5, [r5, #-607]	@ 0xfffffda1
    569c:	535f544e 	cmppl	pc, #1308622848	@ 0x4e000000
    56a0:	465f4749 	ldrbmi	r4, [pc], -r9, asr #14
    56a4:	28434e55 	stmdacs	r3, {r0, r2, r4, r6, r9, sl, fp, lr}^
    56a8:	7274705f 	rsbsvc	r7, r4, #95	@ 0x5f
    56ac:	28282029 	stmdacs	r8!, {r0, r3, r5, sp}
    56b0:	7274705f 	rsbsvc	r7, r4, #95	@ 0x5f
    56b4:	5f3e2d29 	svcpl	0x003e2d29
    56b8:	5f676973 	svcpl	0x00676973
    56bc:	636e7566 	cmnvs	lr, #427819008	@ 0x19800000
    56c0:	5f5f0029 	svcpl	0x005f0029
    56c4:	6465656e 	strbtvs	r6, [r5], #-1390	@ 0xfffffa92
    56c8:	4c554e5f 	ldclmi	14, cr4, [r5], {95}	@ 0x5f
    56cc:	555f004c 	ldrbpl	r0, [pc, #-76]	@ 5688 <__max_heap_size+0x5288>
    56d0:	5453494e 	ldrbpl	r4, [r3], #-2382	@ 0xfffff6b2
    56d4:	5f485f44 	svcpl	0x00485f44
    56d8:	535f0020 	cmppl	pc, #32
    56dc:	454c5f43 	strbmi	r5, [ip, #-3907]	@ 0xfffff0bd
    56e0:	334c4556 	cmpcc	ip, #360710144	@ 0x15800000
    56e4:	4341435f 	cmpmi	r1, #2080374785	@ 0x7c000001
    56e8:	415f4548 	cmpmi	pc, r8, asr #10
    56ec:	434f5353 	cmpmi	pc, #1275068417	@ 0x4c000001
    56f0:	35333120 	ldrcc	r3, [r3, #-288]!	@ 0xfffffee0
    56f4:	43535f00 	cmpmi	r3, #0, 30
    56f8:	5248545f 	subpl	r5, r8, #1593835520	@ 0x5f000000
    56fc:	5f444145 	svcpl	0x00444145
    5700:	43415453 	cmpmi	r1, #1392508928	@ 0x53000000
    5704:	494d5f4b 	stmdbmi	sp, {r0, r1, r3, r6, r8, r9, sl, fp, ip, lr}^
    5708:	3933204e 	ldmdbcc	r3!, {r1, r2, r3, r6, sp}
    570c:	5f747300 	svcpl	0x00747300
    5710:	00646967 	rsbeq	r6, r4, r7, ror #18
    5714:	4545525f 	strbmi	r5, [r5, #-607]	@ 0xfffffda1
    5718:	4d5f544e 	ldclmi	4, cr5, [pc, #-312]	@ 55e8 <__max_heap_size+0x51e8>
    571c:	4e454c42 	cdpmi	12, 4, cr4, cr5, cr2, {2}
    5720:	4154535f 	cmpmi	r4, pc, asr r3
    5724:	70284554 	eorvc	r4, r8, r4, asr r5
    5728:	20297274 	eorcs	r7, r9, r4, ror r2
    572c:	74702828 	ldrbtvc	r2, [r0], #-2088	@ 0xfffff7d8
    5730:	3e2d2972 			@ <UNDEFINED> instruction: 0x3e2d2972
    5734:	77656e5f 			@ <UNDEFINED> instruction: 0x77656e5f
    5738:	65725f2e 	ldrbvs	r5, [r2, #-3886]!	@ 0xfffff0d2
    573c:	2e746e65 	cdpcs	14, 7, cr6, cr4, cr5, {3}
    5740:	6c626d5f 	stclvs	13, cr6, [r2], #-380	@ 0xfffffe84
    5744:	735f6e65 	cmpvc	pc, #1616	@ 0x650
    5748:	65746174 	ldrbvs	r6, [r4, #-372]!	@ 0xfffffe8c
    574c:	5f5f0029 	svcpl	0x005f0029
    5750:	6c797274 	ldclvs	2, cr7, [r9], #-464	@ 0xfffffe30
    5754:	736b636f 	cmnvc	fp, #-1140850687	@ 0xbc000001
    5758:	6168735f 	cmnvs	r8, pc, asr r3
    575c:	28646572 	stmdacs	r4!, {r1, r4, r5, r6, r8, sl, sp, lr}^
    5760:	292e2e2e 	stmdbcs	lr!, {r1, r2, r3, r5, r9, sl, fp, sp}
    5764:	6c5f5f20 	ldclvs	15, cr5, [pc], {32}
    5768:	5f6b636f 	svcpl	0x006b636f
    576c:	6f6e6e61 	svcvs	0x006e6e61
    5770:	65746174 	ldrbvs	r6, [r4, #-372]!	@ 0xfffffe8c
    5774:	61687328 	cmnvs	r8, r8, lsr #6
    5778:	5f646572 	svcpl	0x00646572
    577c:	6c797274 	ldclvs	2, cr7, [r9], #-464	@ 0xfffffe30
    5780:	5f6b636f 	svcpl	0x006b636f
    5784:	636e7566 	cmnvs	lr, #427819008	@ 0x19800000
    5788:	6e6f6974 			@ <UNDEFINED> instruction: 0x6e6f6974
    578c:	565f5f28 	ldrbpl	r5, [pc], -r8, lsr #30
    5790:	52415f41 	subpl	r5, r1, #260	@ 0x104
    5794:	5f5f5347 	svcpl	0x005f5347
    5798:	43002929 	tstmi	r0, #671744	@ 0xa4000
    579c:	4b434f4c 	blmi	10d94d4 <__max_heap_size+0x10d90d4>
    57a0:	4145525f 	cmpmi	r5, pc, asr r2
    57a4:	4d49544c 	stclmi	4, cr5, [r9, #-304]	@ 0xfffffed0
    57a8:	31282045 			@ <UNDEFINED> instruction: 0x31282045
    57ac:	5f5f0029 	svcpl	0x005f0029
    57b0:	6b636f6c 	blvs	18e1568 <__max_heap_size+0x18e1168>
    57b4:	68735f73 	ldmdavs	r3!, {r0, r1, r4, r5, r6, r8, r9, sl, fp, ip, lr}^
    57b8:	64657261 	strbtvs	r7, [r5], #-609	@ 0xfffffd9f
    57bc:	2e2e2e28 	cdpcs	14, 2, cr2, cr14, cr8, {1}
    57c0:	5f5f2029 	svcpl	0x005f2029
    57c4:	6b636f6c 	blvs	18e157c <__max_heap_size+0x18e117c>
    57c8:	6e6e615f 	mcrvs	1, 3, r6, cr14, cr15, {2}
    57cc:	7461746f 	strbtvc	r7, [r1], #-1135	@ 0xfffffb91
    57d0:	68732865 	ldmdavs	r3!, {r0, r2, r5, r6, fp, sp}^
    57d4:	64657261 	strbtvs	r7, [r5], #-609	@ 0xfffffd9f
    57d8:	636f6c5f 	cmnvs	pc, #24320	@ 0x5f00
    57dc:	75665f6b 	strbvc	r5, [r6, #-3947]!	@ 0xfffff095
    57e0:	6974636e 	ldmdbvs	r4!, {r1, r2, r3, r5, r6, r8, r9, sp, lr}^
    57e4:	5f286e6f 	svcpl	0x00286e6f
    57e8:	5f41565f 	svcpl	0x0041565f
    57ec:	53475241 	cmppl	r7, #268435460	@ 0x10000004
    57f0:	29295f5f 	stmdbcs	r9!, {r0, r1, r2, r3, r4, r6, r8, r9, sl, fp, ip, lr}
    57f4:	736e7500 	cmnvc	lr, #0, 10
    57f8:	656e6769 	strbvs	r6, [lr, #-1897]!	@ 0xfffff897
    57fc:	69732064 	ldmdbvs	r3!, {r2, r5, r6, sp}^
    5800:	64656e67 	strbtvs	r6, [r5], #-3687	@ 0xfffff199
    5804:	43535f00 	cmpmi	r3, #0, 30
    5808:	5342585f 	cmppl	r2, #6225920	@ 0x5f0000
    580c:	4c495f35 	stclmi	15, cr5, [r9], {53}	@ 0x35
    5810:	5f323350 	svcpl	0x00323350
    5814:	4246464f 	submi	r4, r6, #82837504	@ 0x4f00000
    5818:	5f204749 	svcpl	0x00204749
    581c:	565f4353 			@ <UNDEFINED> instruction: 0x565f4353
    5820:	4c495f37 	stclmi	15, cr5, [r9], {55}	@ 0x37
    5824:	5f323350 	svcpl	0x00323350
    5828:	4246464f 	submi	r4, r6, #82837504	@ 0x4f00000
    582c:	5f004749 	svcpl	0x00004749
    5830:	756f625f 	strbvc	r6, [pc, #-607]!	@ 55d9 <__max_heap_size+0x51d9>
    5834:	6465646e 	strbtvs	r6, [r5], #-1134	@ 0xfffffb92
    5838:	505f0020 	subspl	r0, pc, r0, lsr #32
    583c:	41505f43 	cmpmi	r0, r3, asr #30
    5840:	4d5f4854 	ldclmi	8, cr4, [pc, #-336]	@ 56f8 <__max_heap_size+0x52f8>
    5844:	34205841 	strtcc	r5, [r0], #-2113	@ 0xfffff7bf
    5848:	43535f00 	cmpmi	r3, #0, 30
    584c:	4f49415f 	svcmi	0x0049415f
    5850:	58414d5f 	stmdapl	r1, {r0, r1, r2, r3, r4, r6, r8, sl, fp, lr}^
    5854:	00353320 	eorseq	r3, r5, r0, lsr #6
    5858:	5f43535f 	svcpl	0x0043535f
    585c:	48435f32 	stmdami	r3, {r1, r4, r5, r8, r9, sl, fp, ip, lr}^
    5860:	545f5241 	ldrbpl	r5, [pc], #-577	@ 5868 <__max_heap_size+0x5468>
    5864:	204d5245 	subcs	r5, sp, r5, asr #4
    5868:	00373031 	eorseq	r3, r7, r1, lsr r0
    586c:	4f4c5f5f 	svcmi	0x004c5f5f
    5870:	495f4b43 	ldmdbmi	pc, {r0, r1, r6, r8, r9, fp, lr}^	@ <UNPREDICTABLE>
    5874:	2854494e 	ldmdacs	r4, {r1, r2, r3, r6, r8, fp, lr}^
    5878:	73616c63 	cmnvc	r1, #25344	@ 0x6300
    587c:	6f6c2c73 	svcvs	0x006c2c73
    5880:	20296b63 	eorcs	r6, r9, r3, ror #22
    5884:	65747865 	ldrbvs	r7, [r4, #-2149]!	@ 0xfffff79b
    5888:	73206e72 			@ <UNDEFINED> instruction: 0x73206e72
    588c:	63757274 	cmnvs	r5, #116, 4	@ 0x40000007
    5890:	5f5f2074 	svcpl	0x005f2074
    5894:	6b636f6c 	blvs	18e164c <__max_heap_size+0x18e124c>
    5898:	6c5f5f20 	ldclvs	15, cr5, [pc], {32}
    589c:	5f6b636f 	svcpl	0x006b636f
    58a0:	20232320 	eorcs	r2, r3, r0, lsr #6
    58a4:	6b636f6c 	blvs	18e165c <__max_heap_size+0x18e125c>
    58a8:	6c63203b 	stclvs	0, cr2, [r3], #-236	@ 0xffffff14
    58ac:	20737361 	rsbscs	r7, r3, r1, ror #6
    58b0:	434f4c5f 	cmpmi	pc, #24320	@ 0x5f00
    58b4:	20545f4b 	subscs	r5, r4, fp, asr #30
    58b8:	6b636f6c 	blvs	18e1670 <__max_heap_size+0x18e1270>
    58bc:	26203d20 	strtcs	r3, [r0], -r0, lsr #26
    58c0:	6f6c5f5f 	svcvs	0x006c5f5f
    58c4:	205f6b63 	subscs	r6, pc, r3, ror #22
    58c8:	6c202323 	stcvs	3, cr2, [r0], #-140	@ 0xffffff74
    58cc:	006b636f 	rsbeq	r6, fp, pc, ror #6
    58d0:	4d49545f 	stclmi	4, cr5, [r9, #-380]	@ 0xfffffe84
    58d4:	5f485f45 	svcpl	0x00485f45
    58d8:	495f0020 	ldmdbmi	pc, {r5}^	@ <UNPREDICTABLE>
    58dc:	52494446 	subpl	r4, r9, #1174405120	@ 0x46000000
    58e0:	34303020 	ldrtcc	r3, [r0], #-32	@ 0xffffffe0
    58e4:	30303030 	eorscc	r3, r0, r0, lsr r0
    58e8:	43535f00 	cmpmi	r3, #0, 30
    58ec:	534f505f 	cmppl	pc, #95	@ 0x5f
    58f0:	325f5849 	subscc	r5, pc, #4784128	@ 0x490000
    58f4:	45565f36 	ldrbmi	r5, [r6, #-3894]	@ 0xfffff0ca
    58f8:	4f495352 	svcmi	0x00495352
    58fc:	3431204e 	ldrtcc	r2, [r1], #-78	@ 0xffffffb2
    5900:	535f0030 	cmppl	pc, #48	@ 0x30
    5904:	4f585f43 	svcmi	0x00585f43
    5908:	5f4e4550 	svcpl	0x004e4550
    590c:	204d4853 	subcs	r4, sp, r3, asr r8
    5910:	00333031 	eorseq	r3, r3, r1, lsr r0
    5914:	5f43535f 	svcpl	0x0043535f
    5918:	52524142 	subspl	r4, r2, #-2147483632	@ 0x80000010
    591c:	53524549 	cmppl	r2, #306184192	@ 0x12400000
    5920:	00363520 	eorseq	r3, r6, r0, lsr #10
    5924:	74617473 	strbtvc	r7, [r1], #-1139	@ 0xfffffb8d
    5928:	5f007375 	svcpl	0x00007375
    592c:	4843414d 	stmdami	r3, {r0, r2, r3, r6, r8, lr}^
    5930:	5f454e49 	svcpl	0x00454e49
    5934:	5059545f 	subspl	r5, r9, pc, asr r4
    5938:	485f5345 	ldmdami	pc, {r0, r2, r6, r8, r9, ip, lr}^	@ <UNPREDICTABLE>
    593c:	545f0020 	ldrbpl	r0, [pc], #-32	@ 5944 <__max_heap_size+0x5544>
    5940:	5a49535f 	bpl	125a6c4 <__max_heap_size+0x125a2c4>
    5944:	00205f45 	eoreq	r5, r0, r5, asr #30
    5948:	74615f5f 	strbtvc	r5, [r1], #-3935	@ 0xfffff0a1
    594c:	62697274 	rsbvs	r7, r9, #116, 4	@ 0x40000007
    5950:	5f657475 	svcpl	0x00657475
    5954:	6c6c616d 	stclvs	1, cr6, [ip], #-436	@ 0xfffffe4c
    5958:	5f5f636f 	svcpl	0x005f636f
    595c:	5f5f0020 	svcpl	0x005f0020
    5960:	4c4c554e 	stclmi	5, cr5, [ip], {78}	@ 0x4e
    5964:	4c494241 	stclmi	2, cr4, [r9], {65}	@ 0x41
    5968:	5f595449 	svcpl	0x00595449
    596c:	47415250 			@ <UNDEFINED> instruction: 0x47415250
    5970:	505f414d 	subspl	r4, pc, sp, asr #2
    5974:	0020504f 	eoreq	r5, r0, pc, asr #32
    5978:	4545525f 	strbmi	r5, [r5, #-607]	@ 0xfffffda1
    597c:	495f544e 	ldmdbmi	pc, {r1, r2, r3, r6, sl, ip, lr}^	@ <UNPREDICTABLE>
    5980:	554e5f53 	strbpl	r5, [lr, #-3923]	@ 0xfffff0ad
    5984:	5f284c4c 	svcpl	0x00284c4c
    5988:	29727470 	ldmdbcs	r2!, {r4, r5, r6, sl, ip, sp, lr}^
    598c:	5f282820 	svcpl	0x00282820
    5990:	29727470 	ldmdbcs	r2!, {r4, r5, r6, sl, ip, sp, lr}^
    5994:	203d3d20 	eorscs	r3, sp, r0, lsr #26
    5998:	4c4c554e 	stclmi	5, cr5, [ip], {78}	@ 0x4e
    599c:	5f530029 	svcpl	0x00530029
    59a0:	48434649 	stmdami	r3, {r0, r3, r6, r9, sl, lr}^
    59a4:	495f2052 	ldmdbmi	pc, {r1, r4, r6, sp}^	@ <UNPREDICTABLE>
    59a8:	52484346 	subpl	r4, r8, #402653185	@ 0x18000001
    59ac:	43535f00 	cmpmi	r3, #0, 30
    59b0:	52504e5f 	subspl	r4, r0, #1520	@ 0x5f0
    59b4:	5345434f 	cmppl	r5, #1006632961	@ 0x3c000001
    59b8:	53524f53 	cmppl	r2, #332	@ 0x14c
    59bc:	4c4e4f5f 	stclmi	15, cr4, [lr], {95}	@ 0x5f
    59c0:	3031204e 	eorscc	r2, r1, lr, asr #32
    59c4:	43535f00 	cmpmi	r3, #0, 30
    59c8:	505f325f 	subspl	r3, pc, pc, asr r2	@ <UNPREDICTABLE>
    59cc:	4d5f5342 	ldclmi	3, cr5, [pc, #-264]	@ 58cc <__max_heap_size+0x54cc>
    59d0:	41535345 	cmpmi	r3, r5, asr #6
    59d4:	31204547 			@ <UNDEFINED> instruction: 0x31204547
    59d8:	5f003731 	svcpl	0x00003731
    59dc:	5f455355 	svcpl	0x00455355
    59e0:	4f544447 	svcmi	0x00544447
    59e4:	5f002041 	svcpl	0x00002041
    59e8:	6e696d5f 	mcrvs	13, 3, r6, cr9, cr15, {2}
    59ec:	7a69735f 	bvc	1a62770 <__max_heap_size+0x1a62370>
    59f0:	29782865 	ldmdbcs	r8!, {r0, r2, r5, r6, fp, sp}^
    59f4:	61747320 	cmnvs	r4, r0, lsr #6
    59f8:	20636974 	rsbcs	r6, r3, r4, ror r9
    59fc:	00297828 	eoreq	r7, r9, r8, lsr #16
    5a00:	52495f53 	subpl	r5, r9, #332	@ 0x14c
    5a04:	20555857 	subscs	r5, r5, r7, asr r8
    5a08:	495f5328 	ldmdbmi	pc, {r3, r5, r8, r9, ip, lr}^	@ <UNPREDICTABLE>
    5a0c:	52535552 	subspl	r5, r3, #343932928	@ 0x14800000
    5a10:	53207c20 			@ <UNDEFINED> instruction: 0x53207c20
    5a14:	5557495f 	ldrbpl	r4, [r7, #-2399]	@ 0xfffff6a1
    5a18:	7c205253 	stcvc	2, cr5, [r0], #-332	@ 0xfffffeb4
    5a1c:	495f5320 	ldmdbmi	pc, {r5, r8, r9, ip, lr}^	@ <UNPREDICTABLE>
    5a20:	52535558 	subspl	r5, r3, #88, 10	@ 0x16000000
    5a24:	5f5f0029 	svcpl	0x005f0029
    5a28:	6465656e 	strbtvs	r6, [r5], #-1390	@ 0xfffffa92
    5a2c:	4c554e5f 	ldclmi	14, cr4, [r5], {95}	@ 0x5f
    5a30:	5f00204c 	svcpl	0x0000204c
    5a34:	415f4353 	cmpmi	pc, r3, asr r3	@ <UNPREDICTABLE>
    5a38:	53495644 	cmppl	r9, #68, 12	@ 0x4400000
    5a3c:	5f59524f 	svcpl	0x0059524f
    5a40:	4f464e49 	svcmi	0x00464e49
    5a44:	00343520 	eorseq	r3, r4, r0, lsr #10
    5a48:	5f43535f 	svcpl	0x0043535f
    5a4c:	495f3756 	ldmdbmi	pc, {r1, r2, r4, r6, r8, r9, sl, ip, sp}^	@ <UNPREDICTABLE>
    5a50:	3233504c 	eorscc	r5, r3, #76	@ 0x4c
    5a54:	46464f5f 			@ <UNDEFINED> instruction: 0x46464f5f
    5a58:	20474942 	subcs	r4, r7, r2, asr #18
    5a5c:	5f003339 	svcpl	0x00003339
    5a60:	6365735f 	cmnvs	r5, #2080374785	@ 0x7c000001
    5a64:	6e6f6974 			@ <UNDEFINED> instruction: 0x6e6f6974
    5a68:	20297828 	eorcs	r7, r9, r8, lsr #16
    5a6c:	74615f5f 	strbtvc	r5, [r1], #-3935	@ 0xfffff0a1
    5a70:	62697274 	rsbvs	r7, r9, #116, 4	@ 0x40000007
    5a74:	5f657475 	svcpl	0x00657475
    5a78:	5f28285f 	svcpl	0x0028285f
    5a7c:	6365735f 	cmnvs	r5, #2080374785	@ 0x7c000001
    5a80:	6e6f6974 			@ <UNDEFINED> instruction: 0x6e6f6974
    5a84:	78285f5f 	stmdavc	r8!, {r0, r1, r2, r3, r4, r6, r8, r9, sl, fp, ip, lr}
    5a88:	00292929 	eoreq	r2, r9, r9, lsr #18
    5a8c:	7366666f 	cmnvc	r6, #116391936	@ 0x6f00000
    5a90:	666f7465 	strbtvs	r7, [pc], -r5, ror #8
    5a94:	50595428 	subspl	r5, r9, r8, lsr #8
    5a98:	454d2c45 	strbmi	r2, [sp, #-3141]	@ 0xfffff3bb
    5a9c:	5245424d 	subpl	r4, r5, #-805306364	@ 0xd0000004
    5aa0:	5f5f2029 	svcpl	0x005f2029
    5aa4:	6c697562 	stclvs	5, cr7, [r9], #-392	@ 0xfffffe78
    5aa8:	5f6e6974 	svcpl	0x006e6974
    5aac:	7366666f 	cmnvc	r6, #116391936	@ 0x6f00000
    5ab0:	666f7465 	strbtvs	r7, [pc], -r5, ror #8
    5ab4:	59542820 	ldmdbpl	r4, {r5, fp, sp}^
    5ab8:	202c4550 	eorcs	r4, ip, r0, asr r5
    5abc:	424d454d 	submi	r4, sp, #322961408	@ 0x13400000
    5ac0:	00295245 	eoreq	r5, r9, r5, asr #4
    5ac4:	57495f53 			@ <UNDEFINED> instruction: 0x57495f53
    5ac8:	2048544f 	subcs	r5, r8, pc, asr #8
    5acc:	30303030 	eorscc	r3, r0, r0, lsr r0
    5ad0:	00323030 	eorseq	r3, r2, r0, lsr r0
    5ad4:	75705f5f 	ldrbvc	r5, [r0, #-3935]!	@ 0xfffff0a1
    5ad8:	20326572 	eorscs	r6, r2, r2, ror r5
    5adc:	74615f5f 	strbtvc	r5, [r1], #-3935	@ 0xfffff0a1
    5ae0:	62697274 	rsbvs	r7, r9, #116, 4	@ 0x40000007
    5ae4:	5f657475 	svcpl	0x00657475
    5ae8:	5f28285f 	svcpl	0x0028285f
    5aec:	6e6f635f 	mcrvs	3, 3, r6, cr15, cr15, {2}
    5af0:	5f5f7473 	svcpl	0x005f7473
    5af4:	5f002929 	svcpl	0x00002929
    5af8:	4c554e5f 	ldclmi	14, cr4, [r5], {95}	@ 0x5f
    5afc:	4942414c 	stmdbmi	r2, {r2, r3, r6, r8, lr}^
    5b00:	5954494c 	ldmdbpl	r4, {r2, r3, r6, r8, fp, lr}^
    5b04:	4152505f 	cmpmi	r2, pc, asr r0
    5b08:	5f414d47 	svcpl	0x00414d47
    5b0c:	48535550 	ldmdami	r3, {r4, r6, r8, sl, ip, lr}^
    5b10:	525f0020 	subspl	r0, pc, #32
    5b14:	34444e41 	strbcc	r4, [r4], #-3649	@ 0xfffff1bf
    5b18:	45535f38 	ldrbmi	r5, [r3, #-3896]	@ 0xfffff0c8
    5b1c:	315f4445 	cmpcc	pc, r5, asr #8
    5b20:	78302820 	ldmdavc	r0!, {r5, fp, sp}
    5b24:	64636261 	strbtvs	r6, [r3], #-609	@ 0xfffffd9f
    5b28:	5f5f0029 	svcpl	0x005f0029
    5b2c:	746e695f 	strbtvc	r6, [lr], #-2399	@ 0xfffff6a1
    5b30:	7274705f 	rsbsvc	r7, r4, #95	@ 0x5f
    5b34:	66666964 	strbtvs	r6, [r6], -r4, ror #18
    5b38:	685f745f 	ldmdavs	pc, {r0, r1, r2, r3, r4, r6, sl, ip, sp, lr}^	@ <UNPREDICTABLE>
    5b3c:	525f0020 	subspl	r0, pc, #32
    5b40:	544e4545 	strbpl	r4, [lr], #-1349	@ 0xfffffabb
    5b44:	454c435f 	strbmi	r4, [ip, #-863]	@ 0xfffffca1
    5b48:	50554e41 	subspl	r4, r5, r1, asr #28
    5b4c:	74705f28 	ldrbtvc	r5, [r0], #-3880	@ 0xfffff0d8
    5b50:	28202972 	stmdacs	r0!, {r1, r4, r5, r6, r8, fp, sp}
    5b54:	74705f28 	ldrbtvc	r5, [r0], #-3880	@ 0xfffff0d8
    5b58:	3e2d2972 			@ <UNDEFINED> instruction: 0x3e2d2972
    5b5c:	6c635f5f 	stclvs	15, cr5, [r3], #-380	@ 0xfffffe84
    5b60:	756e6165 	strbvc	r6, [lr, #-357]!	@ 0xfffffe9b
    5b64:	5f002970 	svcpl	0x00002970
    5b68:	4d5f4353 	ldclmi	3, cr4, [pc, #-332]	@ 5a24 <__max_heap_size+0x5624>
    5b6c:	544f4e4f 	strbpl	r4, [pc], #-3663	@ 5b74 <__max_heap_size+0x5774>
    5b70:	43494e4f 	cmpmi	r9, #1264	@ 0x4f0
    5b74:	4f4c435f 	svcmi	0x004c435f
    5b78:	36204b43 	strtcc	r4, [r0], -r3, asr #22
    5b7c:	5f5f0039 	svcpl	0x005f0039
    5b80:	43554e47 	cmpmi	r5, #1136	@ 0x470
    5b84:	454b494c 	strbmi	r4, [fp, #-2380]	@ 0xfffff6b4
    5b88:	54414d5f 	strbpl	r4, [r1], #-3423	@ 0xfffff2a1
    5b8c:	55425f48 	strbpl	r5, [r2, #-3912]	@ 0xfffff0b8
    5b90:	49544c49 	ldmdbmi	r4, {r0, r3, r6, sl, fp, lr}^
    5b94:	4f435f4e 	svcmi	0x00435f4e
    5b98:	4154534e 	cmpmi	r4, lr, asr #6
    5b9c:	2053544e 	subscs	r5, r3, lr, asr #8
    5ba0:	495f5300 	ldmdbmi	pc, {r8, r9, ip, lr}^	@ <UNPREDICTABLE>
    5ba4:	44494753 	strbmi	r4, [r9], #-1875	@ 0xfffff8ad
    5ba8:	30303020 	eorscc	r3, r0, r0, lsr #32
    5bac:	30303032 	eorscc	r3, r0, r2, lsr r0
    5bb0:	43535f00 	cmpmi	r3, #0, 30
    5bb4:	5248545f 	subpl	r5, r8, #1593835520	@ 0x5f000000
    5bb8:	5f444145 	svcpl	0x00444145
    5bbc:	52545441 	subspl	r5, r4, #1090519040	@ 0x41000000
    5bc0:	4154535f 	cmpmi	r4, pc, asr r3
    5bc4:	49534b43 	ldmdbmi	r3, {r0, r1, r6, r8, r9, fp, lr}^
    5bc8:	3420455a 	strtcc	r4, [r0], #-1370	@ 0xfffffaa6
    5bcc:	415f0034 	cmpmi	pc, r4, lsr r0	@ <UNPREDICTABLE>
    5bd0:	5f49534e 	svcpl	0x0049534e
    5bd4:	44445453 	strbmi	r5, [r4], #-1107	@ 0xfffffbad
    5bd8:	485f4645 	ldmdami	pc, {r0, r2, r6, r9, sl, lr}^	@ <UNPREDICTABLE>
    5bdc:	525f0020 	subspl	r0, pc, #32
    5be0:	544e4545 	strbpl	r4, [lr], #-1349	@ 0xfffffabb
    5be4:	4548435f 	strbmi	r4, [r8, #-863]	@ 0xfffffca1
    5be8:	535f4b43 	cmppl	pc, #68608	@ 0x10c00
    5bec:	414e4749 	cmpmi	lr, r9, asr #14
    5bf0:	55425f4c 	strbpl	r5, [r2, #-3916]	@ 0xfffff0b4
    5bf4:	74702846 	ldrbtvc	r2, [r0], #-2118	@ 0xfffff7ba
    5bf8:	00202972 	eoreq	r2, r0, r2, ror r9
    5bfc:	5f43535f 	svcpl	0x0043535f
    5c00:	4c4d5953 			@ <UNDEFINED> instruction: 0x4c4d5953
    5c04:	5f504f4f 	svcpl	0x00504f4f
    5c08:	2058414d 	subscs	r4, r8, sp, asr #2
    5c0c:	6f003937 	svcvs	0x00003937
    5c10:	6466646c 	strbtvs	r6, [r6], #-1132	@ 0xfffffb94
    5c14:	625f5f00 	subsvs	r5, pc, #0, 30
    5c18:	746c6975 	strbtvc	r6, [ip], #-2421	@ 0xfffff68b
    5c1c:	615f6e69 	cmpvs	pc, r9, ror #28
    5c20:	6e67696c 			@ <UNDEFINED> instruction: 0x6e67696c
    5c24:	2870755f 	ldmdacs	r0!, {r0, r1, r2, r3, r4, r6, r8, sl, ip, sp, lr}^
    5c28:	6c612c78 	stclvs	12, cr2, [r1], #-480	@ 0xfffffe20
    5c2c:	296e6769 	stmdbcs	lr!, {r0, r3, r5, r6, r8, r9, sl, sp, lr}^
    5c30:	5f282820 	svcpl	0x00282820
    5c34:	7079745f 	rsbsvc	r7, r9, pc, asr r4
    5c38:	5f666f65 	svcpl	0x00666f65
    5c3c:	2978285f 	ldmdbcs	r8!, {r0, r1, r2, r3, r4, r6, fp, sp}^
    5c40:	28282829 	stmdacs	r8!, {r0, r3, r5, fp, sp}
    5c44:	69755f5f 	ldmdbvs	r5!, {r0, r1, r2, r3, r4, r6, r8, r9, sl, fp, ip, lr}^
    5c48:	7470746e 	ldrbtvc	r7, [r0], #-1134	@ 0xfffffb92
    5c4c:	29745f72 	ldmdbcs	r4!, {r1, r4, r5, r6, r8, r9, sl, fp, ip, lr}^
    5c50:	2b297828 	blcs	a63cf8 <__max_heap_size+0xa638f8>
    5c54:	6c612828 	stclvs	8, cr2, [r1], #-160	@ 0xffffff60
    5c58:	296e6769 	stmdbcs	lr!, {r0, r3, r5, r6, r8, r9, sl, sp, lr}^
    5c5c:	2929312d 	stmdbcs	r9!, {r0, r2, r3, r5, r8, ip, sp}
    5c60:	287e2826 	ldmdacs	lr!, {r1, r2, r5, fp, sp}^
    5c64:	696c6128 	stmdbvs	ip!, {r3, r5, r8, sp, lr}^
    5c68:	2d296e67 	stccs	14, cr6, [r9, #-412]!	@ 0xfffffe64
    5c6c:	29292931 	stmdbcs	r9!, {r0, r4, r5, r8, fp, sp}
    5c70:	5f5f0029 	svcpl	0x005f0029
    5c74:	70746e69 	rsbsvc	r6, r4, r9, ror #28
    5c78:	745f7274 	ldrbvc	r7, [pc], #-628	@ 5c80 <__max_heap_size+0x5880>
    5c7c:	43535f00 	cmpmi	r3, #0, 30
    5c80:	435f325f 	cmpmi	pc, #-268435451	@ 0xf0000005
    5c84:	5645445f 			@ <UNDEFINED> instruction: 0x5645445f
    5c88:	39303120 	ldmdbcc	r0!, {r5, r8, ip, sp}
    5c8c:	635f5f00 	cmpvs	pc, #0, 30
    5c90:	74736e6f 	ldrbtvc	r6, [r3], #-3695	@ 0xfffff191
    5c94:	6e6f6320 	cdpvs	3, 6, cr6, cr15, cr0, {1}
    5c98:	5f007473 	svcpl	0x00007473
    5c9c:	6c6c615f 	stclvs	1, cr6, [ip], #-380	@ 0xfffffe84
    5ca0:	735f636f 	cmpvc	pc, #-1140850687	@ 0xbc000001
    5ca4:	28657a69 	stmdacs	r5!, {r0, r3, r5, r6, r9, fp, ip, sp, lr}^
    5ca8:	5f202978 	svcpl	0x00202978
    5cac:	7474615f 	ldrbtvc	r6, [r4], #-351	@ 0xfffffea1
    5cb0:	75626972 	strbvc	r6, [r2, #-2418]!	@ 0xfffff68e
    5cb4:	5f5f6574 	svcpl	0x005f6574
    5cb8:	5f5f2828 	svcpl	0x005f2828
    5cbc:	6f6c6c61 	svcvs	0x006c6c61
    5cc0:	69735f63 	ldmdbvs	r3!, {r0, r1, r5, r6, r8, r9, sl, fp, ip, lr}^
    5cc4:	5f5f657a 	svcpl	0x005f657a
    5cc8:	29297828 	stmdbcs	r9!, {r3, r5, fp, ip, sp, lr}
    5ccc:	535f0029 	cmppl	pc, #41	@ 0x29
    5cd0:	454c5f43 	strbmi	r5, [ip, #-3907]	@ 0xfffff0bd
    5cd4:	344c4556 	strbcc	r4, [ip], #-1366	@ 0xfffffaaa
    5cd8:	4341435f 	cmpmi	r1, #2080374785	@ 0x7c000001
    5cdc:	535f4548 	cmppl	pc, #72, 10	@ 0x12000000
    5ce0:	20455a49 	subcs	r5, r5, r9, asr #20
    5ce4:	00373331 	eorseq	r3, r7, r1, lsr r3
    5ce8:	4e41575f 	mcrmi	7, 2, r5, cr1, cr15, {2}
    5cec:	53555f54 	cmppl	r5, #84, 30	@ 0x150
    5cf0:	44475f45 	strbmi	r5, [r7], #-3909	@ 0xfffff0bb
    5cf4:	20414f54 	subcs	r4, r1, r4, asr pc
    5cf8:	74730031 	ldrbtvc	r0, [r3], #-49	@ 0xffffffcf
    5cfc:	6b6c625f 	blvs	1b1e680 <__max_heap_size+0x1b1e280>
    5d00:	657a6973 	ldrbvs	r6, [sl, #-2419]!	@ 0xfffff68d
    5d04:	62735f00 	rsbsvs	r5, r3, #0, 30
    5d08:	5f006b72 	svcpl	0x00006b72
    5d0c:	6f6e695f 	svcvs	0x006e695f
    5d10:	5f00745f 	svcpl	0x0000745f
    5d14:	58455441 	stmdapl	r5, {r0, r6, sl, ip, lr}^
    5d18:	445f5449 	ldrbmi	r5, [pc], #-1097	@ 5d20 <__max_heap_size+0x5920>
    5d1c:	4d414e59 	stclmi	14, cr4, [r1, #-356]	@ 0xfffffe9c
    5d20:	415f4349 	cmpmi	pc, r9, asr #6
    5d24:	434f4c4c 	cmpmi	pc, #76, 24	@ 0x4c00
    5d28:	5f003120 	svcpl	0x00003120
    5d2c:	65656e5f 	strbvs	r6, [r5, #-3679]!	@ 0xfffff1a1
    5d30:	69735f64 	ldmdbvs	r3!, {r2, r5, r6, r8, r9, sl, fp, ip, lr}^
    5d34:	745f657a 	ldrbvc	r6, [pc], #-1402	@ 5d3c <__max_heap_size+0x593c>
    5d38:	43535f00 	cmpmi	r3, #0, 30
    5d3c:	4554415f 	ldrbmi	r4, [r4, #-351]	@ 0xfffffea1
    5d40:	5f544958 	svcpl	0x00544958
    5d44:	2058414d 	subscs	r4, r8, sp, asr #2
    5d48:	5f003535 	svcpl	0x00003535
    5d4c:	4d5f4353 	ldclmi	3, cr4, [pc, #-332]	@ 5c08 <__max_heap_size+0x5808>
    5d50:	41535345 	cmpmi	r3, r5, asr #6
    5d54:	505f4547 	subspl	r4, pc, r7, asr #10
    5d58:	49535341 	ldmdbmi	r3, {r0, r6, r8, r9, ip, lr}^
    5d5c:	3220474e 	eorcc	r4, r0, #20447232	@ 0x1380000
    5d60:	535f0037 	cmppl	pc, #55	@ 0x37
    5d64:	50495f43 	subpl	r5, r9, r3, asr #30
    5d68:	36203656 			@ <UNDEFINED> instruction: 0x36203656
    5d6c:	525f0037 	subspl	r0, pc, #55	@ 0x37
    5d70:	544e4545 	strbpl	r4, [lr], #-1349	@ 0xfffffabb
    5d74:	4e41525f 	mcrmi	2, 2, r5, cr1, cr15, {2}
    5d78:	5f383444 	svcpl	0x00383444
    5d7c:	544c554d 	strbpl	r5, [ip], #-1357	@ 0xfffffab3
    5d80:	72747028 	rsbsvc	r7, r4, #40	@ 0x28
    5d84:	28282029 	stmdacs	r8!, {r0, r3, r5, sp}
    5d88:	29727470 	ldmdbcs	r2!, {r4, r5, r6, sl, ip, sp, lr}^
    5d8c:	6e5f3e2d 	cdpvs	14, 5, cr3, cr15, cr13, {1}
    5d90:	5f2e7765 	svcpl	0x002e7765
    5d94:	6e656572 	mcrvs	5, 3, r6, cr5, cr2, {3}
    5d98:	725f2e74 	subsvc	r2, pc, #116, 28	@ 0x740
    5d9c:	5f2e3834 	svcpl	0x002e3834
    5da0:	746c756d 	strbtvc	r7, [ip], #-1389	@ 0xfffffa93
    5da4:	535f0029 	cmppl	pc, #41	@ 0x29
    5da8:	4c435f43 	stclmi	15, cr5, [r3], {67}	@ 0x43
    5dac:	5f4b434f 	svcpl	0x004b434f
    5db0:	454c4553 	strbmi	r4, [ip, #-1363]	@ 0xfffffaad
    5db4:	4f495443 	svcmi	0x00495443
    5db8:	3136204e 	teqcc	r6, lr, asr #32
    5dbc:	45525f00 	ldrbmi	r5, [r2, #-3840]	@ 0xfffff100
    5dc0:	5f544e45 	svcpl	0x00544e45
    5dc4:	54494e49 	strbpl	r4, [r9], #-3657	@ 0xfffff1b7
    5dc8:	5254505f 	subspl	r5, r4, #95	@ 0x5f
    5dcc:	52455a5f 	subpl	r5, r5, #389120	@ 0x5f000
    5dd0:	2844454f 	stmdacs	r4, {r0, r1, r2, r3, r6, r8, sl, lr}^
    5dd4:	29726176 	ldmdbcs	r2!, {r1, r2, r4, r5, r6, r8, sp, lr}^
    5dd8:	28207b20 	stmdacs	r0!, {r5, r8, r9, fp, ip, sp, lr}
    5ddc:	29726176 	ldmdbcs	r2!, {r1, r2, r4, r5, r6, r8, sp, lr}^
    5de0:	735f3e2d 	cmpvc	pc, #720	@ 0x2d0
    5de4:	6e696474 	mcrvs	4, 3, r6, cr9, cr4, {3}
    5de8:	26203d20 	strtcs	r3, [r0], -r0, lsr #26
    5dec:	66735f5f 			@ <UNDEFINED> instruction: 0x66735f5f
    5df0:	3b5d305b 	blcc	1751f64 <__max_heap_size+0x1751b64>
    5df4:	61762820 	cmnvs	r6, r0, lsr #16
    5df8:	3e2d2972 			@ <UNDEFINED> instruction: 0x3e2d2972
    5dfc:	6474735f 	ldrbtvs	r7, [r4], #-863	@ 0xfffffca1
    5e00:	2074756f 	rsbscs	r7, r4, pc, ror #10
    5e04:	5f26203d 	svcpl	0x0026203d
    5e08:	5b66735f 	blpl	19a2b8c <__max_heap_size+0x19a278c>
    5e0c:	203b5d31 	eorscs	r5, fp, r1, lsr sp
    5e10:	72617628 	rsbvc	r7, r1, #40, 12	@ 0x2800000
    5e14:	5f3e2d29 	svcpl	0x003e2d29
    5e18:	65647473 	strbvs	r7, [r4, #-1139]!	@ 0xfffffb8d
    5e1c:	3d207272 	stccc	2, cr7, [r0, #-456]!	@ 0xfffffe38
    5e20:	5f5f2620 	svcpl	0x005f2620
    5e24:	325b6673 	subscc	r6, fp, #120586240	@ 0x7300000
    5e28:	28203b5d 	stmdacs	r0!, {r0, r2, r3, r4, r6, r8, r9, fp, ip, sp}
    5e2c:	29726176 	ldmdbcs	r2!, {r1, r2, r4, r5, r6, r8, sp, lr}^
    5e30:	6e5f3e2d 	cdpvs	14, 5, cr3, cr15, cr13, {1}
    5e34:	5f2e7765 	svcpl	0x002e7765
    5e38:	6e656572 	mcrvs	5, 3, r6, cr5, cr2, {3}
    5e3c:	725f2e74 	subsvc	r2, pc, #116, 28	@ 0x740
    5e40:	5f646e61 	svcpl	0x00646e61
    5e44:	7478656e 	ldrbtvc	r6, [r8], #-1390	@ 0xfffffa92
    5e48:	31203d20 			@ <UNDEFINED> instruction: 0x31203d20
    5e4c:	7628203b 			@ <UNDEFINED> instruction: 0x7628203b
    5e50:	2d297261 	stccs	2, cr7, [r9, #-388]!	@ 0xfffffe7c
    5e54:	656e5f3e 	strbvs	r5, [lr, #-3902]!	@ 0xfffff0c2
    5e58:	725f2e77 	subsvc	r2, pc, #1904	@ 0x770
    5e5c:	746e6565 	strbtvc	r6, [lr], #-1381	@ 0xfffffa9b
    5e60:	34725f2e 	ldrbtcc	r5, [r2], #-3886	@ 0xfffff0d2
    5e64:	735f2e38 	cmpvc	pc, #56, 28	@ 0x380
    5e68:	5b646565 	blpl	191f404 <__max_heap_size+0x191f004>
    5e6c:	3d205d30 	stccc	13, cr5, [r0, #-192]!	@ 0xffffff40
    5e70:	41525f20 	cmpmi	r2, r0, lsr #30
    5e74:	3834444e 	ldmdacc	r4!, {r1, r2, r3, r6, sl, lr}
    5e78:	4545535f 	strbmi	r5, [r5, #-863]	@ 0xfffffca1
    5e7c:	3b305f44 	blcc	c1db94 <__max_heap_size+0xc1d794>
    5e80:	61762820 	cmnvs	r6, r0, lsr #16
    5e84:	3e2d2972 			@ <UNDEFINED> instruction: 0x3e2d2972
    5e88:	77656e5f 			@ <UNDEFINED> instruction: 0x77656e5f
    5e8c:	65725f2e 	ldrbvs	r5, [r2, #-3886]!	@ 0xfffff0d2
    5e90:	2e746e65 	cdpcs	14, 7, cr6, cr4, cr5, {3}
    5e94:	3834725f 	ldmdacc	r4!, {r0, r1, r2, r3, r4, r6, r9, ip, sp, lr}
    5e98:	65735f2e 	ldrbvs	r5, [r3, #-3886]!	@ 0xfffff0d2
    5e9c:	315b6465 	cmpcc	fp, r5, ror #8
    5ea0:	203d205d 	eorscs	r2, sp, sp, asr r0
    5ea4:	4e41525f 	mcrmi	2, 2, r5, cr1, cr15, {2}
    5ea8:	5f383444 	svcpl	0x00383444
    5eac:	44454553 	strbmi	r4, [r5], #-1363	@ 0xfffffaad
    5eb0:	203b315f 	eorscs	r3, fp, pc, asr r1
    5eb4:	72617628 	rsbvc	r7, r1, #40, 12	@ 0x2800000
    5eb8:	5f3e2d29 	svcpl	0x003e2d29
    5ebc:	2e77656e 	cdpcs	5, 7, cr6, cr7, cr14, {3}
    5ec0:	6565725f 	strbvs	r7, [r5, #-607]!	@ 0xfffffda1
    5ec4:	5f2e746e 	svcpl	0x002e746e
    5ec8:	2e383472 	mrccs	4, 1, r3, cr8, cr2, {3}
    5ecc:	6565735f 	strbvs	r7, [r5, #-863]!	@ 0xfffffca1
    5ed0:	5d325b64 	vldmdbpl	r2!, {d5-<overflow reg d54>}
    5ed4:	5f203d20 	svcpl	0x00203d20
    5ed8:	444e4152 	strbmi	r4, [lr], #-338	@ 0xfffffeae
    5edc:	535f3834 	cmppl	pc, #52, 16	@ 0x340000
    5ee0:	5f444545 	svcpl	0x00444545
    5ee4:	28203b32 	stmdacs	r0!, {r1, r4, r5, r8, r9, fp, ip, sp}
    5ee8:	29726176 	ldmdbcs	r2!, {r1, r2, r4, r5, r6, r8, sp, lr}^
    5eec:	6e5f3e2d 	cdpvs	14, 5, cr3, cr15, cr13, {1}
    5ef0:	5f2e7765 	svcpl	0x002e7765
    5ef4:	6e656572 	mcrvs	5, 3, r6, cr5, cr2, {3}
    5ef8:	725f2e74 	subsvc	r2, pc, #116, 28	@ 0x740
    5efc:	5f2e3834 	svcpl	0x002e3834
    5f00:	746c756d 	strbtvc	r7, [ip], #-1389	@ 0xfffffa93
    5f04:	205d305b 	subscs	r3, sp, fp, asr r0
    5f08:	525f203d 	subspl	r2, pc, #61	@ 0x3d
    5f0c:	34444e41 	strbcc	r4, [r4], #-3649	@ 0xfffff1bf
    5f10:	554d5f38 	strbpl	r5, [sp, #-3896]	@ 0xfffff0c8
    5f14:	305f544c 	subscc	r5, pc, ip, asr #8
    5f18:	7628203b 			@ <UNDEFINED> instruction: 0x7628203b
    5f1c:	2d297261 	stccs	2, cr7, [r9, #-388]!	@ 0xfffffe7c
    5f20:	656e5f3e 	strbvs	r5, [lr, #-3902]!	@ 0xfffff0c2
    5f24:	725f2e77 	subsvc	r2, pc, #1904	@ 0x770
    5f28:	746e6565 	strbtvc	r6, [lr], #-1381	@ 0xfffffa9b
    5f2c:	34725f2e 	ldrbtcc	r5, [r2], #-3886	@ 0xfffff0d2
    5f30:	6d5f2e38 	ldclvs	14, cr2, [pc, #-224]	@ 5e58 <__max_heap_size+0x5a58>
    5f34:	5b746c75 	blpl	1d21110 <__max_heap_size+0x1d20d10>
    5f38:	3d205d31 	stccc	13, cr5, [r0, #-196]!	@ 0xffffff3c
    5f3c:	41525f20 	cmpmi	r2, r0, lsr #30
    5f40:	3834444e 	ldmdacc	r4!, {r1, r2, r3, r6, sl, lr}
    5f44:	4c554d5f 	ldclmi	13, cr4, [r5], {95}	@ 0x5f
    5f48:	3b315f54 	blcc	c5dca0 <__max_heap_size+0xc5d8a0>
    5f4c:	61762820 	cmnvs	r6, r0, lsr #16
    5f50:	3e2d2972 			@ <UNDEFINED> instruction: 0x3e2d2972
    5f54:	77656e5f 			@ <UNDEFINED> instruction: 0x77656e5f
    5f58:	65725f2e 	ldrbvs	r5, [r2, #-3886]!	@ 0xfffff0d2
    5f5c:	2e746e65 	cdpcs	14, 7, cr6, cr4, cr5, {3}
    5f60:	3834725f 	ldmdacc	r4!, {r0, r1, r2, r3, r4, r6, r9, ip, sp, lr}
    5f64:	756d5f2e 	strbvc	r5, [sp, #-3886]!	@ 0xfffff0d2
    5f68:	325b746c 	subscc	r7, fp, #108, 8	@ 0x6c000000
    5f6c:	203d205d 	eorscs	r2, sp, sp, asr r0
    5f70:	4e41525f 	mcrmi	2, 2, r5, cr1, cr15, {2}
    5f74:	5f383444 	svcpl	0x00383444
    5f78:	544c554d 	strbpl	r5, [ip], #-1357	@ 0xfffffab3
    5f7c:	203b325f 	eorscs	r3, fp, pc, asr r2
    5f80:	72617628 	rsbvc	r7, r1, #40, 12	@ 0x2800000
    5f84:	5f3e2d29 	svcpl	0x003e2d29
    5f88:	2e77656e 	cdpcs	5, 7, cr6, cr7, cr14, {3}
    5f8c:	6565725f 	strbvs	r7, [r5, #-607]!	@ 0xfffffda1
    5f90:	5f2e746e 	svcpl	0x002e746e
    5f94:	2e383472 	mrccs	4, 1, r3, cr8, cr2, {3}
    5f98:	6464615f 	strbtvs	r6, [r4], #-351	@ 0xfffffea1
    5f9c:	5f203d20 	svcpl	0x00203d20
    5fa0:	444e4152 	strbmi	r4, [lr], #-338	@ 0xfffffeae
    5fa4:	415f3834 	cmpmi	pc, r4, lsr r8	@ <UNPREDICTABLE>
    5fa8:	203b4444 	eorscs	r4, fp, r4, asr #8
    5fac:	5f5f007d 	svcpl	0x005f007d
    5fb0:	61686377 	cmnvs	r8, r7, ror r3
    5fb4:	5f745f72 	svcpl	0x00745f72
    5fb8:	5f00205f 	svcpl	0x0000205f
    5fbc:	4d5f4350 	ldclmi	3, cr4, [pc, #-320]	@ 5e84 <__max_heap_size+0x5a84>
    5fc0:	495f5841 	ldmdbmi	pc, {r0, r6, fp, ip, lr}^	@ <UNPREDICTABLE>
    5fc4:	5455504e 	ldrbpl	r5, [r5], #-78	@ 0xffffffb2
    5fc8:	5f003220 	svcpl	0x00003220
    5fcc:	425f4353 	subsmi	r4, pc, #1275068417	@ 0x4c000001
    5fd0:	49445f43 	stmdbmi	r4, {r0, r1, r6, r8, r9, sl, fp, ip, lr}^
    5fd4:	414d5f4d 	cmpmi	sp, sp, asr #30
    5fd8:	38352058 	ldmdacc	r5!, {r3, r4, r6, sp}
    5fdc:	43535f00 	cmpmi	r3, #0, 30
    5fe0:	56454c5f 			@ <UNDEFINED> instruction: 0x56454c5f
    5fe4:	5f334c45 	svcpl	0x00334c45
    5fe8:	48434143 	stmdami	r3, {r0, r1, r6, r8, lr}^
    5fec:	494c5f45 	stmdbmi	ip, {r0, r2, r6, r8, r9, sl, fp, ip, lr}^
    5ff0:	4953454e 	ldmdbmi	r3, {r1, r2, r3, r6, r8, sl, lr}^
    5ff4:	3120455a 			@ <UNDEFINED> instruction: 0x3120455a
    5ff8:	5f003633 	svcpl	0x00003633
    5ffc:	6b6c625f 	blvs	1b1e980 <__max_heap_size+0x1b1e580>
    6000:	5f746e63 	svcpl	0x00746e63
    6004:	5f5f0074 	svcpl	0x005f0074
    6008:	49464544 	stmdbmi	r6, {r2, r6, r8, sl, lr}^
    600c:	5f44454e 	svcpl	0x0044454e
    6010:	61686377 	cmnvs	r8, r7, ror r3
    6014:	20745f72 	rsbscs	r5, r4, r2, ror pc
    6018:	5f767400 	svcpl	0x00767400
    601c:	6365736e 	cmnvs	r5, #-1207959551	@ 0xb8000001
    6020:	45525f00 	ldrbmi	r5, [r2, #-3840]	@ 0xfffff100
    6024:	5f544e45 	svcpl	0x00544e45
    6028:	4c544547 	ldclmi	5, cr4, [r4], {71}	@ 0x47
    602c:	4c41434f 	stclmi	3, cr4, [r1], {79}	@ 0x4f
    6030:	4d414e45 	stclmi	14, cr4, [r1, #-276]	@ 0xfffffeec
    6034:	5f4c5f45 	svcpl	0x004c5f45
    6038:	28465542 	stmdacs	r6, {r1, r6, r8, sl, ip, lr}^
    603c:	29727470 	ldmdbcs	r2!, {r4, r5, r6, sl, ip, sp, lr}^
    6040:	70282820 	eorvc	r2, r8, r0, lsr #16
    6044:	2d297274 	stccs	2, cr7, [r9, #-464]!	@ 0xfffffe30
    6048:	656e5f3e 	strbvs	r5, [lr, #-3902]!	@ 0xfffff0c2
    604c:	725f2e77 	subsvc	r2, pc, #1904	@ 0x770
    6050:	746e6565 	strbtvc	r6, [lr], #-1381	@ 0xfffffa9b
    6054:	65675f2e 	strbvs	r5, [r7, #-3886]!	@ 0xfffff0d2
    6058:	636f6c74 	cmnvs	pc, #116, 24	@ 0x7400
    605c:	6e656c61 	cdpvs	12, 6, cr6, cr5, cr1, {3}
    6060:	5f656d61 	svcpl	0x00656d61
    6064:	75625f6c 	strbvc	r5, [r2, #-3948]!	@ 0xfffff094
    6068:	5f002966 	svcpl	0x00002966
    606c:	4c5f4353 	ldclmi	3, cr4, [pc], {83}	@ 0x53
    6070:	4c455645 	stclmi	6, cr5, [r5], {69}	@ 0x45
    6074:	43495f31 	cmpmi	r9, #49, 30	@ 0xc4
    6078:	45484341 	strbmi	r4, [r8, #-833]	@ 0xfffffcbf
    607c:	4e494c5f 	mcrmi	12, 2, r4, cr9, cr15, {2}
    6080:	5a495345 	bpl	125ad9c <__max_heap_size+0x125a99c>
    6084:	32312045 	eorscc	r2, r1, #69	@ 0x45
    6088:	535f0037 	cmppl	pc, #55	@ 0x37
    608c:	43425f43 	cmpmi	r2, #268	@ 0x10c
    6090:	4143535f 	cmpmi	r3, pc, asr r3
    6094:	4d5f454c 	ldclmi	5, cr4, [pc, #-304]	@ 5f6c <__max_heap_size+0x5b6c>
    6098:	35205841 	strcc	r5, [r0, #-2113]!	@ 0xfffff7bf
    609c:	525f0039 	subspl	r0, pc, #57	@ 0x39
    60a0:	544e4545 	strbpl	r4, [lr], #-1349	@ 0xfffffabb
    60a4:	434f4c5f 	cmpmi	pc, #24320	@ 0x5f00
    60a8:	28454c41 	stmdacs	r5, {r0, r6, sl, fp, lr}^
    60ac:	7274705f 	rsbsvc	r7, r4, #95	@ 0x5f
    60b0:	28282029 	stmdacs	r8!, {r0, r3, r5, sp}
    60b4:	7274705f 	rsbsvc	r7, r4, #95	@ 0x5f
    60b8:	5f3e2d29 	svcpl	0x003e2d29
    60bc:	61636f6c 	cmnvs	r3, ip, ror #30
    60c0:	0029656c 	eoreq	r6, r9, ip, ror #10
    60c4:	74735f5f 	ldrbtvc	r5, [r3], #-3935	@ 0xfffff0a1
    60c8:	69746672 	ldmdbvs	r4!, {r1, r4, r5, r6, r9, sl, sp, lr}^
    60cc:	696c656d 	stmdbvs	ip!, {r0, r2, r3, r5, r6, r8, sl, sp, lr}^
    60d0:	6628656b 	strtvs	r6, [r8], -fp, ror #10
    60d4:	7261746d 	rsbvc	r7, r1, #1828716544	@ 0x6d000000
    60d8:	69662c67 	stmdbvs	r6!, {r0, r1, r2, r5, r6, sl, fp, sp}^
    60dc:	76747372 			@ <UNDEFINED> instruction: 0x76747372
    60e0:	72617261 	rsbvc	r7, r1, #268435462	@ 0x10000006
    60e4:	5f202967 	svcpl	0x00202967
    60e8:	7474615f 	ldrbtvc	r6, [r4], #-351	@ 0xfffffea1
    60ec:	75626972 	strbvc	r6, [r2, #-2418]!	@ 0xfffff68e
    60f0:	5f5f6574 	svcpl	0x005f6574
    60f4:	5f5f2828 	svcpl	0x005f2828
    60f8:	6d726f66 	ldclvs	15, cr6, [r2, #-408]!	@ 0xfffffe68
    60fc:	5f5f7461 	svcpl	0x005f7461
    6100:	5f5f2820 	svcpl	0x005f2820
    6104:	66727473 			@ <UNDEFINED> instruction: 0x66727473
    6108:	656d6974 	strbvs	r6, [sp, #-2420]!	@ 0xfffff68c
    610c:	202c5f5f 	eorcs	r5, ip, pc, asr pc
    6110:	61746d66 	cmnvs	r4, r6, ror #26
    6114:	202c6772 	eorcs	r6, ip, r2, ror r7
    6118:	73726966 	cmnvc	r2, #1671168	@ 0x198000
    611c:	72617674 	rsbvc	r7, r1, #116, 12	@ 0x7400000
    6120:	29677261 	stmdbcs	r7!, {r0, r5, r6, r9, ip, sp, lr}^
    6124:	5f002929 	svcpl	0x00002929
    6128:	7465725f 	strbtvc	r7, [r5], #-607	@ 0xfffffda1
    612c:	736e7275 	cmnvc	lr, #1342177287	@ 0x50000007
    6130:	6977745f 	ldmdbvs	r7!, {r0, r1, r2, r3, r4, r6, sl, ip, sp, lr}^
    6134:	5f206563 	svcpl	0x00206563
    6138:	7474615f 	ldrbtvc	r6, [r4], #-351	@ 0xfffffea1
    613c:	75626972 	strbvc	r6, [r2, #-2418]!	@ 0xfffff68e
    6140:	5f5f6574 	svcpl	0x005f6574
    6144:	5f5f2828 	svcpl	0x005f2828
    6148:	75746572 	ldrbvc	r6, [r4, #-1394]!	@ 0xfffffa8e
    614c:	5f736e72 	svcpl	0x00736e72
    6150:	63697774 	cmnvs	r9, #116, 14	@ 0x1d00000
    6154:	295f5f65 	ldmdbcs	pc, {r0, r2, r5, r6, r8, r9, sl, fp, ip, lr}^	@ <UNPREDICTABLE>
    6158:	5f5f0029 	svcpl	0x005f0029
    615c:	41484357 	cmpmi	r8, r7, asr r3
    6160:	20545f52 	subscs	r5, r4, r2, asr pc
    6164:	535f5f00 	cmppl	pc, #0, 30
    6168:	435f5359 	cmpmi	pc, #1677721601	@ 0x64000001
    616c:	49464e4f 	stmdbmi	r6, {r0, r1, r2, r3, r6, r9, sl, fp, lr}^
    6170:	5f485f47 	svcpl	0x00485f47
    6174:	5f00205f 	svcpl	0x0000205f
    6178:	4e454552 	mcrmi	5, 2, r4, cr5, cr2, {2}
    617c:	4e495f54 	mcrmi	15, 2, r5, cr9, cr4, {2}
    6180:	525f5449 	subspl	r5, pc, #1224736768	@ 0x49000000
    6184:	52455345 	subpl	r5, r5, #335544321	@ 0x14000001
    6188:	5f444556 	svcpl	0x00444556
    618c:	5f002038 	svcpl	0x00002038
    6190:	45564148 	ldrbmi	r4, [r6, #-328]	@ 0xfffffeb8
    6194:	5f43435f 	svcpl	0x0043435f
    6198:	49484e49 	stmdbmi	r8, {r0, r3, r6, r9, sl, fp, lr}^
    619c:	5f544942 	svcpl	0x00544942
    61a0:	504f4f4c 	subpl	r4, pc, ip, asr #30
    61a4:	5f4f545f 	svcpl	0x004f545f
    61a8:	4342494c 	cmpmi	r2, #76, 18	@ 0x130000
    61ac:	204c4c41 	subcs	r4, ip, r1, asr #24
    61b0:	5f5f0031 	svcpl	0x005f0031
    61b4:	64657270 	strbtvs	r7, [r5], #-624	@ 0xfffffd90
    61b8:	5f746369 	svcpl	0x00746369
    61bc:	736c6166 	cmnvc	ip, #-2147483623	@ 0x80000019
    61c0:	78652865 	stmdavc	r5!, {r0, r2, r5, r6, fp, sp}^
    61c4:	5f202970 	svcpl	0x00202970
    61c8:	6975625f 	ldmdbvs	r5!, {r0, r1, r2, r3, r4, r6, r9, sp, lr}^
    61cc:	6e69746c 	cdpvs	4, 6, cr7, cr9, cr12, {3}
    61d0:	7078655f 	rsbsvc	r6, r8, pc, asr r5
    61d4:	28746365 	ldmdacs	r4!, {r0, r2, r5, r6, r8, r9, sp, lr}^
    61d8:	70786528 	rsbsvc	r6, r8, r8, lsr #10
    61dc:	30202c29 	eorcc	r2, r0, r9, lsr #24
    61e0:	5f5f0029 	svcpl	0x005f0029
    61e4:	73756e75 	cmnvc	r5, #1872	@ 0x750
    61e8:	5f206465 	svcpl	0x00206465
    61ec:	7474615f 	ldrbtvc	r6, [r4], #-351	@ 0xfffffea1
    61f0:	75626972 	strbvc	r6, [r2, #-2418]!	@ 0xfffff68e
    61f4:	5f5f6574 	svcpl	0x005f6574
    61f8:	5f5f2828 	svcpl	0x005f2828
    61fc:	73756e75 	cmnvc	r5, #1872	@ 0x750
    6200:	5f5f6465 	svcpl	0x005f6465
    6204:	5f002929 	svcpl	0x00002929
    6208:	6e6f6e5f 	mcrvs	14, 3, r6, cr15, cr15, {2}
    620c:	6c6c756e 	stclvs	5, cr7, [ip], #-440	@ 0xfffffe48
    6210:	6c6c615f 	stclvs	1, cr6, [ip], #-380	@ 0xfffffe84
    6214:	615f5f20 	cmpvs	pc, r0, lsr #30
    6218:	69727474 	ldmdbvs	r2!, {r2, r4, r5, r6, sl, ip, sp, lr}^
    621c:	65747562 	ldrbvs	r7, [r4, #-1378]!	@ 0xfffffa9e
    6220:	28285f5f 	stmdacs	r8!, {r0, r1, r2, r3, r4, r6, r8, r9, sl, fp, ip, lr}
    6224:	6f6e5f5f 	svcvs	0x006e5f5f
    6228:	6c756e6e 	ldclvs	14, cr6, [r5], #-440	@ 0xfffffe48
    622c:	295f5f6c 	ldmdbcs	pc, {r2, r3, r5, r6, r8, r9, sl, fp, ip, lr}^	@ <UNPREDICTABLE>
    6230:	525f0029 	subspl	r0, pc, #41	@ 0x29
    6234:	544e4545 	strbpl	r4, [lr], #-1349	@ 0xfffffabb
    6238:	53424d5f 	cmppl	r2, #6080	@ 0x17c0
    623c:	574f5452 			@ <UNDEFINED> instruction: 0x574f5452
    6240:	535f5343 	cmppl	pc, #201326593	@ 0xc000001
    6244:	45544154 	ldrbmi	r4, [r4, #-340]	@ 0xfffffeac
    6248:	72747028 	rsbsvc	r7, r4, #40	@ 0x28
    624c:	28282029 	stmdacs	r8!, {r0, r3, r5, sp}
    6250:	29727470 	ldmdbcs	r2!, {r4, r5, r6, sl, ip, sp, lr}^
    6254:	6e5f3e2d 	cdpvs	14, 5, cr3, cr15, cr13, {1}
    6258:	5f2e7765 	svcpl	0x002e7765
    625c:	6e656572 	mcrvs	5, 3, r6, cr5, cr2, {3}
    6260:	6d5f2e74 	ldclvs	14, cr2, [pc, #-464]	@ 6098 <__max_heap_size+0x5c98>
    6264:	74727362 	ldrbtvc	r7, [r2], #-866	@ 0xfffffc9e
    6268:	7363776f 	cmnvc	r3, #29097984	@ 0x1bc0000
    626c:	6174735f 	cmnvs	r4, pc, asr r3
    6270:	00296574 	eoreq	r6, r9, r4, ror r5
    6274:	5f43535f 	svcpl	0x0043535f
    6278:	524f5053 	subpl	r5, pc, #83	@ 0x53
    627c:	43494441 	cmpmi	r9, #1090519040	@ 0x41000000
    6280:	5245535f 	subpl	r5, r5, #2080374785	@ 0x7c000001
    6284:	20524556 	subscs	r4, r2, r6, asr r5
    6288:	5f003737 	svcpl	0x00003737
    628c:	535f4353 	cmppl	pc, #1275068417	@ 0x4c000001
    6290:	45525f53 	ldrbmi	r5, [r2, #-3923]	@ 0xfffff0ad
    6294:	4d5f4c50 	ldclmi	12, cr4, [pc, #-320]	@ 615c <__max_heap_size+0x5d5c>
    6298:	37205841 	strcc	r5, [r0, -r1, asr #16]!
    629c:	545f0038 	ldrbpl	r0, [pc], #-56	@ 62a4 <__max_heap_size+0x5ea4>
    62a0:	5f454d49 	svcpl	0x00454d49
    62a4:	45445f54 	strbmi	r5, [r4, #-3924]	@ 0xfffff0ac
    62a8:	52414c43 	subpl	r4, r1, #17152	@ 0x4300
    62ac:	00204445 	eoreq	r4, r0, r5, asr #8
    62b0:	4545525f 	strbmi	r5, [r5, #-607]	@ 0xfffffda1
    62b4:	535f544e 	cmppl	pc, #1308622848	@ 0x4e000000
    62b8:	52454454 	subpl	r4, r5, #84, 8	@ 0x54000000
    62bc:	705f2852 	subsvc	r2, pc, r2, asr r8	@ <UNPREDICTABLE>
    62c0:	20297274 	eorcs	r7, r9, r4, ror r2
    62c4:	705f2828 	subsvc	r2, pc, r8, lsr #16
    62c8:	2d297274 	stccs	2, cr7, [r9, #-464]!	@ 0xfffffe30
    62cc:	74735f3e 	ldrbtvc	r5, [r3], #-3902	@ 0xfffff0c2
    62d0:	72726564 	rsbsvc	r6, r2, #100, 10	@ 0x19000000
    62d4:	5f5f0029 	svcpl	0x005f0029
    62d8:	4f524854 	svcmi	0x00524854
    62dc:	53002057 	tstpl	r0, #87	@ 0x57
    62e0:	4d46495f 			@ <UNDEFINED> instruction: 0x4d46495f
    62e4:	495f2054 	ldmdbmi	pc, {r2, r4, r6, sp}^	@ <UNPREDICTABLE>
    62e8:	00544d46 	subseq	r4, r4, r6, asr #26
    62ec:	4545525f 	strbmi	r5, [r5, #-607]	@ 0xfffffda1
    62f0:	4c5f544e 	ldclmi	4, cr5, [pc], {78}	@ 0x4e
    62f4:	5f413436 	svcpl	0x00413436
    62f8:	28465542 	stmdacs	r6, {r1, r6, r8, sl, ip, lr}^
    62fc:	29727470 	ldmdbcs	r2!, {r4, r5, r6, sl, ip, sp, lr}^
    6300:	70282820 	eorvc	r2, r8, r0, lsr #16
    6304:	2d297274 	stccs	2, cr7, [r9, #-464]!	@ 0xfffffe30
    6308:	656e5f3e 	strbvs	r5, [lr, #-3902]!	@ 0xfffff0c2
    630c:	725f2e77 	subsvc	r2, pc, #1904	@ 0x770
    6310:	746e6565 	strbtvc	r6, [lr], #-1381	@ 0xfffffa9b
    6314:	366c5f2e 	strbtcc	r5, [ip], -lr, lsr #30
    6318:	625f6134 	subsvs	r6, pc, #52, 2
    631c:	00296675 	eoreq	r6, r9, r5, ror r6
    6320:	5f43535f 	svcpl	0x0043535f
    6324:	5f4f4941 	svcpl	0x004f4941
    6328:	4f495250 	svcmi	0x00495250
    632c:	4c45445f 	stclmi	4, cr4, [r5], {95}	@ 0x5f
    6330:	4d5f4154 	ldclmi	1, cr4, [pc, #-336]	@ 61e8 <__max_heap_size+0x5de8>
    6334:	33205841 			@ <UNDEFINED> instruction: 0x33205841
    6338:	4e5f0036 	mrcmi	0, 2, r0, cr15, cr6, {1}
    633c:	5248544f 	subpl	r5, r8, #1325400064	@ 0x4f000000
    6340:	0020574f 	eoreq	r5, r0, pc, asr #14
    6344:	61775f5f 	cmnvs	r7, pc, asr pc
    6348:	725f6e72 	subsvc	r6, pc, #1824	@ 0x720
    634c:	72656665 	rsbvc	r6, r5, #105906176	@ 0x6500000
    6350:	65636e65 	strbvs	r6, [r3, #-3685]!	@ 0xfffff19b
    6354:	79732873 	ldmdbvc	r3!, {r0, r1, r4, r5, r6, fp, sp}^
    6358:	736d2c6d 	cmnvc	sp, #27904	@ 0x6d00
    635c:	5f202967 	svcpl	0x00202967
    6360:	6d73615f 	ldclvs	1, cr6, [r3, #-380]!	@ 0xfffffe84
    6364:	22285f5f 	eorcs	r5, r8, #380	@ 0x17c
    6368:	6365732e 	cmnvs	r5, #-1207959552	@ 0xb8000000
    636c:	6e6f6974 			@ <UNDEFINED> instruction: 0x6e6f6974
    6370:	6e672e20 	cdpvs	14, 6, cr2, cr7, cr0, {1}
    6374:	61772e75 	cmnvs	r7, r5, ror lr
    6378:	6e696e72 	mcrvs	14, 3, r6, cr9, cr2, {3}
    637c:	20222e67 	eorcs	r2, r2, r7, ror #28
    6380:	6d797323 	ldclvs	3, cr7, [r9, #-140]!	@ 0xffffff74
    6384:	5f203b29 	svcpl	0x00203b29
    6388:	6d73615f 	ldclvs	1, cr6, [r3, #-380]!	@ 0xfffffe84
    638c:	22285f5f 	eorcs	r5, r8, #380	@ 0x17c
    6390:	6373612e 	cmnvs	r3, #-2147483637	@ 0x8000000b
    6394:	5c207a69 			@ <UNDEFINED> instruction: 0x5c207a69
    6398:	6d202222 	stcvs	2, cr2, [r0, #-136]!	@ 0xffffff78
    639c:	22206773 	eorcs	r6, r0, #30146560	@ 0x1cc0000
    63a0:	2922225c 	stmdbcs	r2!, {r2, r3, r4, r6, r9, sp}
    63a4:	5f5f203b 	svcpl	0x005f203b
    63a8:	5f6d7361 	svcpl	0x006d7361
    63ac:	2e22285f 	mcrcs	8, 1, r2, cr2, cr15, {2}
    63b0:	76657270 			@ <UNDEFINED> instruction: 0x76657270
    63b4:	73756f69 	cmnvc	r5, #420	@ 0x1a4
    63b8:	5f002922 	svcpl	0x00002922
    63bc:	49534e41 	ldmdbmi	r3, {r0, r6, r9, sl, fp, lr}^
    63c0:	4c434544 	stclmi	5, cr4, [r3], {68}	@ 0x44
    63c4:	205f485f 	subscs	r4, pc, pc, asr r8	@ <UNPREDICTABLE>
    63c8:	495f5300 	ldmdbmi	pc, {r8, r9, ip, lr}^	@ <UNPREDICTABLE>
    63cc:	50524757 	subspl	r4, r2, r7, asr r7
    63d0:	30303020 	eorscc	r3, r0, r0, lsr #32
    63d4:	30323030 	eorscc	r3, r2, r0, lsr r0
    63d8:	41575f00 	cmpmi	r7, r0, lsl #30
    63dc:	495f544e 	ldmdbmi	pc, {r1, r2, r3, r6, sl, ip, lr}^	@ <UNPREDICTABLE>
    63e0:	39435f4f 	stmdbcc	r3, {r0, r1, r2, r3, r6, r8, r9, sl, fp, ip, lr}^
    63e4:	4f465f39 	svcmi	0x00465f39
    63e8:	54414d52 	strbpl	r4, [r1], #-3410	@ 0xfffff2ae
    63ec:	00312053 	eorseq	r2, r1, r3, asr r0
    63f0:	6e756f63 	cdpvs	15, 7, cr6, cr5, cr3, {3}
    63f4:	5f5f0074 	svcpl	0x005f0074
    63f8:	414f4c46 	cmpmi	pc, r6, asr #24
    63fc:	59545f54 	ldmdbpl	r4, {r2, r4, r6, r8, r9, sl, fp, ip, lr}^
    6400:	66204550 			@ <UNDEFINED> instruction: 0x66204550
    6404:	74616f6c 	strbtvc	r6, [r1], #-3948	@ 0xfffff094
    6408:	43535f00 	cmpmi	r3, #0, 30
    640c:	474f4c5f 			@ <UNDEFINED> instruction: 0x474f4c5f
    6410:	4e5f4e49 	cdpmi	14, 5, cr4, cr15, cr9, {2}
    6414:	5f454d41 	svcpl	0x00454d41
    6418:	2058414d 	subscs	r4, r8, sp, asr #2
    641c:	5f003235 	svcpl	0x00003235
    6420:	74697865 	strbtvc	r7, [r9], #-2149	@ 0xfffff79b
    6424:	4e495f00 	cdpmi	15, 4, cr5, cr9, cr0, {0}
    6428:	5f545f4f 	svcpl	0x00545f4f
    642c:	4c434544 	stclmi	5, cr4, [r3], {68}	@ 0x44
    6430:	44455241 	strbmi	r5, [r5], #-577	@ 0xfffffdbf
    6434:	525f0020 	subspl	r0, pc, #32
    6438:	544e4545 	strbpl	r4, [lr], #-1349	@ 0xfffffabb
    643c:	54424d5f 	strbpl	r4, [r2], #-3423	@ 0xfffff2a1
    6440:	5f43574f 	svcpl	0x0043574f
    6444:	54415453 	strbpl	r5, [r1], #-1107	@ 0xfffffbad
    6448:	74702845 	ldrbtvc	r2, [r0], #-2117	@ 0xfffff7bb
    644c:	28202972 	stmdacs	r0!, {r1, r4, r5, r6, r8, fp, sp}
    6450:	72747028 	rsbsvc	r7, r4, #40	@ 0x28
    6454:	5f3e2d29 	svcpl	0x003e2d29
    6458:	2e77656e 	cdpcs	5, 7, cr6, cr7, cr14, {3}
    645c:	6565725f 	strbvs	r7, [r5, #-607]!	@ 0xfffffda1
    6460:	5f2e746e 	svcpl	0x002e746e
    6464:	6f74626d 	svcvs	0x0074626d
    6468:	735f6377 	cmpvc	pc, #-603979775	@ 0xdc000001
    646c:	65746174 	ldrbvs	r6, [r4, #-372]!	@ 0xfffffe8c
    6470:	535f0029 	cmppl	pc, #41	@ 0x29
    6474:	54535f43 	ldrbpl	r5, [r3], #-3907	@ 0xfffff0bd
    6478:	4d414552 	stclmi	5, cr4, [r1, #-328]	@ 0xfffffeb8
    647c:	58414d5f 	stmdapl	r1, {r0, r1, r2, r3, r4, r6, r8, sl, fp, lr}^
    6480:	30303120 	eorscc	r3, r0, r0, lsr #2
    6484:	43535f00 	cmpmi	r3, #0, 30
    6488:	4c4f435f 	stclmi	3, cr4, [pc], {95}	@ 0x5f
    648c:	45575f4c 	ldrbmi	r5, [r7, #-3916]	@ 0xfffff0b4
    6490:	54484749 	strbpl	r4, [r8], #-1865	@ 0xfffff8b7
    6494:	414d5f53 	cmpmi	sp, r3, asr pc
    6498:	32362058 	eorscc	r2, r6, #88	@ 0x58
    649c:	43535f00 	cmpmi	r3, #0, 30
    64a0:	504f585f 	subpl	r5, pc, pc, asr r8	@ <UNPREDICTABLE>
    64a4:	4c5f4e45 	ldclmi	14, cr4, [pc], {69}	@ 0x45
    64a8:	43414745 	cmpmi	r1, #18087936	@ 0x1140000
    64ac:	38392059 	ldmdacc	r9!, {r0, r3, r4, r6, sp}
    64b0:	43575f00 	cmpmi	r7, #0, 30
    64b4:	5f524148 	svcpl	0x00524148
    64b8:	45445f54 	strbmi	r5, [r4, #-3924]	@ 0xfffff0ac
    64bc:	52414c43 	subpl	r4, r1, #17152	@ 0x4300
    64c0:	00204445 	eoreq	r4, r0, r5, asr #8
    64c4:	72636e69 	rsbvc	r6, r3, #1680	@ 0x690
    64c8:	59535f00 	ldmdbpl	r3, {r8, r9, sl, fp, ip, lr}^
    64cc:	45525f53 	ldrbmi	r5, [r2, #-3923]	@ 0xfffff0ad
    64d0:	5f544e45 	svcpl	0x00544e45
    64d4:	00205f48 	eoreq	r5, r0, r8, asr #30
    64d8:	53495f53 	cmppl	r9, #332	@ 0x14c
    64dc:	284b4e4c 	stmdacs	fp, {r2, r3, r6, r9, sl, fp, lr}^
    64e0:	2820296d 	stmdacs	r0!, {r0, r2, r3, r5, r6, r8, fp, sp}
    64e4:	296d2828 	stmdbcs	sp!, {r3, r5, fp, sp}^
    64e8:	46495f26 	strbmi	r5, [r9], -r6, lsr #30
    64ec:	2029544d 	eorcs	r5, r9, sp, asr #8
    64f0:	5f203d3d 	svcpl	0x00203d3d
    64f4:	4e4c4649 	cdpmi	6, 4, cr4, cr12, cr9, {2}
    64f8:	5f00294b 	svcpl	0x0000294b
    64fc:	444e4152 	strbmi	r4, [lr], #-338	@ 0xfffffeae
    6500:	4d5f3834 	ldclmi	8, cr3, [pc, #-208]	@ 6438 <__max_heap_size+0x6038>
    6504:	5f544c55 	svcpl	0x00544c55
    6508:	30282032 	eorcc	r2, r8, r2, lsr r0
    650c:	30303078 	eorscc	r3, r0, r8, ror r0
    6510:	5f002935 	svcpl	0x00002935
    6514:	425f4353 	subsmi	r4, pc, #1275068417	@ 0x4c000001
    6518:	54535f43 	ldrbpl	r5, [r3], #-3907	@ 0xfffff0bd
    651c:	474e4952 			@ <UNDEFINED> instruction: 0x474e4952
    6520:	58414d5f 	stmdapl	r1, {r0, r1, r2, r3, r4, r6, r8, sl, fp, lr}^
    6524:	00303620 	eorseq	r3, r0, r0, lsr #12
    6528:	5f43535f 	svcpl	0x0043535f
    652c:	4c454853 	stclmi	8, cr4, [r5], {83}	@ 0x53
    6530:	3437204c 	ldrtcc	r2, [r7], #-76	@ 0xffffffb4
    6534:	5f545f00 	svcpl	0x00545f00
    6538:	44525450 	ldrbmi	r5, [r2], #-1104	@ 0xfffffbb0
    653c:	20464649 	subcs	r4, r6, r9, asr #12
    6540:	495f5300 	ldmdbmi	pc, {r8, r9, ip, lr}^	@ <UNPREDICTABLE>
    6544:	50524758 	subspl	r4, r2, r8, asr r7
    6548:	30303020 	eorscc	r3, r0, r0, lsr #32
    654c:	30313030 	eorscc	r3, r1, r0, lsr r0
    6550:	725f5f00 	subsvc	r5, pc, #0, 30
    6554:	69757165 	ldmdbvs	r5!, {r0, r2, r5, r6, r8, ip, sp, lr}^
    6558:	5f736572 	svcpl	0x00736572
    655c:	6f6c6e75 	svcvs	0x006c6e75
    6560:	64656b63 	strbtvs	r6, [r5], #-2915	@ 0xfffff49d
    6564:	2e2e2e28 	cdpcs	14, 2, cr2, cr14, cr8, {1}
    6568:	5f5f2029 	svcpl	0x005f2029
    656c:	6b636f6c 	blvs	18e2324 <__max_heap_size+0x18e1f24>
    6570:	6e6e615f 	mcrvs	1, 3, r6, cr14, cr15, {2}
    6574:	7461746f 	strbtvc	r7, [r1], #-1135	@ 0xfffffb91
    6578:	6f6c2865 	svcvs	0x006c2865
    657c:	5f736b63 	svcpl	0x00736b63
    6580:	6c637865 	stclvs	8, cr7, [r3], #-404	@ 0xfffffe6c
    6584:	64656475 	strbtvs	r6, [r5], #-1141	@ 0xfffffb8b
    6588:	565f5f28 	ldrbpl	r5, [pc], -r8, lsr #30
    658c:	52415f41 	subpl	r5, r1, #260	@ 0x104
    6590:	5f5f5347 	svcpl	0x005f5347
    6594:	5f002929 	svcpl	0x00002929
    6598:	4843575f 	stmdami	r3, {r0, r1, r2, r3, r4, r6, r8, r9, sl, ip, lr}^
    659c:	545f5241 	ldrbpl	r5, [pc], #-577	@ 65a4 <__max_heap_size+0x61a4>
    65a0:	00205f5f 	eoreq	r5, r0, pc, asr pc
    65a4:	52495f53 	subpl	r5, r9, #332	@ 0x14c
    65a8:	20475857 	subcs	r5, r7, r7, asr r8
    65ac:	495f5328 	ldmdbmi	pc, {r3, r5, r8, r9, ip, lr}^	@ <UNPREDICTABLE>
    65b0:	50524752 	subspl	r4, r2, r2, asr r7
    65b4:	53207c20 			@ <UNDEFINED> instruction: 0x53207c20
    65b8:	4757495f 			@ <UNDEFINED> instruction: 0x4757495f
    65bc:	7c205052 	stcvc	0, cr5, [r0], #-328	@ 0xfffffeb8
    65c0:	495f5320 	ldmdbmi	pc, {r5, r8, r9, ip, lr}^	@ <UNPREDICTABLE>
    65c4:	50524758 	subspl	r4, r2, r8, asr r7
    65c8:	475f0029 	ldrbmi	r0, [pc, -r9, lsr #32]
    65cc:	575f4343 	ldrbpl	r4, [pc, -r3, asr #6]
    65d0:	52414843 	subpl	r4, r1, #4390912	@ 0x430000
    65d4:	0020545f 	eoreq	r5, r0, pc, asr r4
    65d8:	5f43535f 	svcpl	0x0043535f
    65dc:	5050414d 	subspl	r4, r0, sp, asr #2
    65e0:	465f4445 	ldrbmi	r4, [pc], -r5, asr #8
    65e4:	53454c49 	cmppl	r5, #18688	@ 0x4900
    65e8:	00333220 	eorseq	r3, r3, r0, lsr #4
    65ec:	58455f5f 	stmdapl	r5, {r0, r1, r2, r3, r4, r6, r8, r9, sl, fp, ip, lr}^
    65f0:	54524f50 	ldrbpl	r4, [r2], #-3920	@ 0xfffff0b0
    65f4:	5f5f0020 	svcpl	0x005f0020
    65f8:	4f53424f 	svcmi	0x0053424f
    65fc:	4554454c 	ldrbmi	r4, [r4, #-1356]	@ 0xfffffab4
    6600:	54414d5f 	strbpl	r4, [r1], #-3423	@ 0xfffff2a1
    6604:	45445f48 	strbmi	r5, [r4, #-3912]	@ 0xfffff0b8
    6608:	4c554146 	ldclmi	1, cr4, [r5], {70}	@ 0x46
    660c:	00312054 	eorseq	r2, r1, r4, asr r0
    6610:	434f4c43 	cmpmi	pc, #17152	@ 0x4300
    6614:	49445f4b 	stmdbmi	r4, {r0, r1, r3, r6, r8, r9, sl, fp, ip, lr}^
    6618:	4c424153 	stclmi	1, cr4, [r2], {83}	@ 0x53
    661c:	30204445 	eorcc	r4, r0, r5, asr #8
    6620:	535f5f00 	cmppl	pc, #0, 30
    6624:	49534343 	ldmdbmi	r3, {r0, r1, r6, r8, r9, lr}^
    6628:	29732844 	ldmdbcs	r3!, {r2, r6, fp, sp}^
    662c:	72747320 	rsbsvc	r7, r4, #32, 6	@ 0x80000000
    6630:	20746375 	rsbscs	r6, r4, r5, ror r3
    6634:	61685f5f 	cmnvs	r8, pc, asr pc
    6638:	5f006b63 	svcpl	0x00006b63
    663c:	424f4c47 	submi	r4, pc, #18176	@ 0x4700
    6640:	525f4c41 	subspl	r4, pc, #16640	@ 0x4100
    6644:	544e4545 	strbpl	r4, [lr], #-1349	@ 0xfffffabb
    6648:	5f262820 	svcpl	0x00262820
    664c:	75706d69 	ldrbvc	r6, [r0, #-3433]!	@ 0xfffff297
    6650:	645f6572 	ldrbvs	r6, [pc], #-1394	@ 6658 <__max_heap_size+0x6258>
    6654:	29617461 	stmdbcs	r1!, {r0, r5, r6, sl, ip, sp, lr}^
    6658:	43535f00 	cmpmi	r3, #0, 30
    665c:	4950535f 	ldmdbmi	r0, {r0, r1, r2, r3, r4, r6, r8, r9, ip, lr}^
    6660:	4f4c5f4e 	svcmi	0x004c5f4e
    6664:	20534b43 	subscs	r4, r3, r3, asr #22
    6668:	5f003637 	svcpl	0x00003637
    666c:	545f4353 	ldrbpl	r4, [pc], #-851	@ 6674 <__max_heap_size+0x6274>
    6670:	45434152 	strbmi	r4, [r3, #-338]	@ 0xfffffeae
    6674:	4553555f 	ldrbmi	r5, [r3, #-1375]	@ 0xfffffaa1
    6678:	56455f52 			@ <UNDEFINED> instruction: 0x56455f52
    667c:	5f544e45 	svcpl	0x00544e45
    6680:	2058414d 	subscs	r4, r8, sp, asr #2
    6684:	5f003039 	svcpl	0x00003039
    6688:	504d495f 	subpl	r4, sp, pc, asr r9
    668c:	2054524f 	subscs	r5, r4, pc, asr #4
    6690:	41525f00 	cmpmi	r2, r0, lsl #30
    6694:	3834444e 	ldmdacc	r4!, {r1, r2, r3, r6, sl, lr}
    6698:	4545535f 	strbmi	r5, [r5, #-863]	@ 0xfffffca1
    669c:	20325f44 	eorscs	r5, r2, r4, asr #30
    66a0:	31783028 	cmncc	r8, r8, lsr #32
    66a4:	29343332 	ldmdbcs	r4!, {r1, r4, r5, r8, r9, ip, sp}
    66a8:	54505f00 	ldrbpl	r5, [r0], #-3840	@ 0xfffff100
    66ac:	46494452 			@ <UNDEFINED> instruction: 0x46494452
    66b0:	5f545f46 	svcpl	0x00545f46
    66b4:	4c434544 	stclmi	5, cr4, [r3], {68}	@ 0x44
    66b8:	44455241 	strbmi	r5, [r5], #-577	@ 0xfffffdbf
    66bc:	666f0020 	strbtvs	r0, [pc], -r0, lsr #32
    66c0:	74657366 	strbtvc	r7, [r5], #-870	@ 0xfffffc9a
    66c4:	765f5f00 	ldrbvc	r5, [pc], -r0, lsl #30
    66c8:	74616c6f 	strbtvc	r6, [r1], #-3183	@ 0xfffff391
    66cc:	20656c69 	rsbcs	r6, r5, r9, ror #24
    66d0:	616c6f76 	cmnvs	ip, r6, ror pc
    66d4:	656c6974 	strbvs	r6, [ip, #-2420]!	@ 0xfffff68c
    66d8:	695f5f00 	ldmdbvs	pc, {r8, r9, sl, fp, ip, lr}^	@ <UNPREDICTABLE>
    66dc:	6c615f73 	stclvs	15, cr5, [r1], #-460	@ 0xfffffe34
    66e0:	656e6769 	strbvs	r6, [lr, #-1897]!	@ 0xfffff897
    66e4:	2c782864 	ldclcs	8, cr2, [r8], #-400	@ 0xfffffe70
    66e8:	5f202979 	svcpl	0x00202979
    66ec:	6975625f 	ldmdbvs	r5!, {r0, r1, r2, r3, r4, r6, r9, sp, lr}^
    66f0:	6e69746c 	cdpvs	4, 6, cr7, cr9, cr12, {3}
    66f4:	5f73695f 	svcpl	0x0073695f
    66f8:	67696c61 	strbvs	r6, [r9, -r1, ror #24]!
    66fc:	2864656e 	stmdacs	r4!, {r1, r2, r3, r5, r6, r8, sl, sp, lr}^
    6700:	79202c78 	stmdbvc	r0!, {r3, r4, r5, r6, sl, fp, sp}
    6704:	5f5f0029 	svcpl	0x005f0029
    6708:	6b636f6c 	blvs	18e24c0 <__max_heap_size+0x18e20c0>
    670c:	6f6c635f 	svcvs	0x006c635f
    6710:	725f6573 	subsvc	r6, pc, #482344960	@ 0x1cc00000
    6714:	72756365 	rsbsvc	r6, r5, #-1811939327	@ 0x94000001
    6718:	65766973 	ldrbvs	r6, [r6, #-2419]!	@ 0xfffff68d
    671c:	636f6c28 	cmnvs	pc, #40, 24	@ 0x2800
    6720:	5f20296b 	svcpl	0x0020296b
    6724:	7465725f 	strbtvc	r7, [r5], #-607	@ 0xfffffda1
    6728:	65677261 	strbvs	r7, [r7, #-609]!	@ 0xfffffd9f
    672c:	6f6c5f74 	svcvs	0x006c5f74
    6730:	635f6b63 	cmpvs	pc, #101376	@ 0x18c00
    6734:	65736f6c 	ldrbvs	r6, [r3, #-3948]!	@ 0xfffff094
    6738:	6365725f 	cmnvs	r5, #-268435451	@ 0xf0000005
    673c:	69737275 	ldmdbvs	r3!, {r0, r2, r4, r5, r6, r9, ip, sp, lr}^
    6740:	6c286576 	stcvs	5, cr6, [r8], #-472	@ 0xfffffe28
    6744:	296b636f 	stmdbcs	fp!, {r0, r1, r2, r3, r5, r6, r8, r9, sp, lr}^
    6748:	41575f00 	cmpmi	r7, r0, lsl #30
    674c:	525f544e 	subspl	r5, pc, #1308622848	@ 0x4e000000
    6750:	53494745 	cmppl	r9, #18087936	@ 0x1140000
    6754:	5f524554 	svcpl	0x00524554
    6758:	494e4946 	stmdbmi	lr, {r1, r2, r6, r8, fp, lr}^
    675c:	5f003120 	svcpl	0x00003120
    6760:	5f43435f 	svcpl	0x0043435f
    6764:	50505553 	subspl	r5, r0, r3, asr r5
    6768:	5354524f 	cmppl	r4, #-268435452	@ 0xf0000004
    676c:	4e59445f 	mrcmi	4, 2, r4, cr9, cr15, {2}
    6770:	43494d41 	cmpmi	r9, #4160	@ 0x1040
    6774:	5252415f 	subspl	r4, r2, #-1073741801	@ 0xc0000017
    6778:	495f5941 	ldmdbmi	pc, {r0, r6, r8, fp, ip, lr}^	@ <UNPREDICTABLE>
    677c:	2054494e 	subscs	r4, r4, lr, asr #18
    6780:	535f0031 	cmppl	pc, #49	@ 0x31
    6784:	5f325f43 	svcpl	0x00325f43
    6788:	41434f4c 	cmpmi	r3, ip, asr #30
    678c:	4544454c 	strbmi	r4, [r4, #-1356]	@ 0xfffffab4
    6790:	31312046 	teqcc	r1, r6, asr #32
    6794:	535f0032 	cmppl	pc, #50	@ 0x32
    6798:	45475f43 	strbmi	r5, [r7, #-3907]	@ 0xfffff0bd
    679c:	5f575054 	svcpl	0x00575054
    67a0:	49535f52 	ldmdbmi	r3, {r1, r4, r6, r8, r9, sl, fp, ip, lr}^
    67a4:	4d5f455a 	ldclmi	5, cr4, [pc, #-360]	@ 6644 <__max_heap_size+0x6244>
    67a8:	35205841 	strcc	r5, [r0, #-2113]!	@ 0xfffff7bf
    67ac:	535f0031 	cmppl	pc, #49	@ 0x31
    67b0:	454c5f43 	strbmi	r5, [ip, #-3907]	@ 0xfffff0bd
    67b4:	314c4556 	cmpcc	ip, r6, asr r5
    67b8:	4143495f 	cmpmi	r3, pc, asr r9
    67bc:	5f454843 	svcpl	0x00454843
    67c0:	4f535341 	svcmi	0x00535341
    67c4:	32312043 	eorscc	r2, r1, #67	@ 0x43
    67c8:	425f0036 	subsmi	r0, pc, #54	@ 0x36
    67cc:	4e494745 	cdpmi	7, 4, cr4, cr9, cr5, {2}
    67d0:	4454535f 	ldrbmi	r5, [r4], #-863	@ 0xfffffca1
    67d4:	0020435f 	eoreq	r4, r0, pc, asr r3
    67d8:	4545525f 	strbmi	r5, [r5, #-607]	@ 0xfffffda1
    67dc:	435f544e 	cmpmi	pc, #1308622848	@ 0x4e000000
    67e0:	4b434548 	blmi	10d7d08 <__max_heap_size+0x10d7908>
    67e4:	4353415f 	cmpmi	r3, #-1073741801	@ 0xc0000017
    67e8:	454d4954 	strbmi	r4, [sp, #-2388]	@ 0xfffff6ac
    67ec:	4655425f 			@ <UNDEFINED> instruction: 0x4655425f
    67f0:	72747028 	rsbsvc	r7, r4, #40	@ 0x28
    67f4:	5f002029 	svcpl	0x00002029
    67f8:	6c616d5f 	stclvs	13, cr6, [r1], #-380	@ 0xfffffe84
    67fc:	5f636f6c 	svcpl	0x00636f6c
    6800:	656b696c 	strbvs	r6, [fp, #-2412]!	@ 0xfffff694
    6804:	615f5f20 	cmpvs	pc, r0, lsr #30
    6808:	69727474 	ldmdbvs	r2!, {r2, r4, r5, r6, sl, ip, sp, lr}^
    680c:	65747562 	ldrbvs	r7, [r4, #-1378]!	@ 0xfffffa9e
    6810:	28285f5f 	stmdacs	r8!, {r0, r1, r2, r3, r4, r6, r8, r9, sl, fp, ip, lr}
    6814:	616d5f5f 	cmnvs	sp, pc, asr pc
    6818:	636f6c6c 	cmnvs	pc, #108, 24	@ 0x6c00
    681c:	29295f5f 	stmdbcs	r9!, {r0, r1, r2, r3, r4, r6, r8, r9, sl, fp, ip, lr}
    6820:	495f5300 	ldmdbmi	pc, {r8, r9, ip, lr}^	@ <UNPREDICTABLE>
    6824:	434f5346 	cmpmi	pc, #402653185	@ 0x18000001
    6828:	495f204b 	ldmdbmi	pc, {r0, r1, r3, r6, sp}^	@ <UNPREDICTABLE>
    682c:	434f5346 	cmpmi	pc, #402653185	@ 0x18000001
    6830:	5f5f004b 	svcpl	0x005f004b
    6834:	6b636f6c 	blvs	18e25ec <__max_heap_size+0x18e21ec>
    6838:	7163615f 	cmnvc	r3, pc, asr r1
    683c:	65726975 	ldrbvs	r6, [r2, #-2421]!	@ 0xfffff68b
    6840:	6365725f 	cmnvs	r5, #-268435451	@ 0xf0000005
    6844:	69737275 	ldmdbvs	r3!, {r0, r2, r4, r5, r6, r9, ip, sp, lr}^
    6848:	6c286576 	stcvs	5, cr6, [r8], #-472	@ 0xfffffe28
    684c:	296b636f 	stmdbcs	fp!, {r0, r1, r2, r3, r5, r6, r8, r9, sp, lr}^
    6850:	725f5f20 	subsvc	r5, pc, #32, 30	@ 0x80
    6854:	72617465 	rsbvc	r7, r1, #1694498816	@ 0x65000000
    6858:	5f746567 	svcpl	0x00746567
    685c:	6b636f6c 	blvs	18e2614 <__max_heap_size+0x18e2214>
    6860:	7163615f 	cmnvc	r3, pc, asr r1
    6864:	65726975 	ldrbvs	r6, [r2, #-2421]!	@ 0xfffff68b
    6868:	6365725f 	cmnvs	r5, #-268435451	@ 0xf0000005
    686c:	69737275 	ldmdbvs	r3!, {r0, r2, r4, r5, r6, r9, ip, sp, lr}^
    6870:	6c286576 	stcvs	5, cr6, [r8], #-472	@ 0xfffffe28
    6874:	296b636f 	stmdbcs	fp!, {r0, r1, r2, r3, r5, r6, r8, r9, sp, lr}^
    6878:	43535f00 	cmpmi	r3, #0, 30
    687c:	5059545f 	subspl	r5, r9, pc, asr r4
    6880:	4d5f4445 	ldclmi	4, cr4, [pc, #-276]	@ 6774 <__max_heap_size+0x6374>
    6884:	524f4d45 	subpl	r4, pc, #4416	@ 0x1140
    6888:	424f5f59 	submi	r5, pc, #356	@ 0x164
    688c:	5443454a 	strbpl	r4, [r3], #-1354	@ 0xfffffab6
    6890:	31392053 	teqcc	r9, r3, asr r0
    6894:	745f5f00 	ldrbvc	r5, [pc], #-3840	@ 689c <__max_heap_size+0x649c>
    6898:	72656d69 	rsbvc	r6, r5, #6720	@ 0x1a40
    689c:	645f745f 	ldrbvs	r7, [pc], #-1119	@ 68a4 <__max_heap_size+0x64a4>
    68a0:	6e696665 	cdpvs	6, 6, cr6, cr9, cr5, {3}
    68a4:	00206465 	eoreq	r6, r0, r5, ror #8
    68a8:	41525f5f 	cmpmi	r2, pc, asr pc
    68ac:	4d5f444e 	ldclmi	4, cr4, [pc, #-312]	@ 677c <__max_heap_size+0x637c>
    68b0:	30205841 	eorcc	r5, r0, r1, asr #16
    68b4:	66663778 			@ <UNDEFINED> instruction: 0x66663778
    68b8:	66666666 	strbtvs	r6, [r6], -r6, ror #12
    68bc:	5f5f0066 	svcpl	0x005f0066
    68c0:	44534246 	ldrbmi	r4, [r3], #-582	@ 0xfffffdba
    68c4:	73284449 			@ <UNDEFINED> instruction: 0x73284449
    68c8:	74732029 	ldrbtvc	r2, [r3], #-41	@ 0xffffffd7
    68cc:	74637572 	strbtvc	r7, [r3], #-1394	@ 0xfffffa8e
    68d0:	685f5f20 	ldmdavs	pc, {r5, r8, r9, sl, fp, ip, lr}^	@ <UNPREDICTABLE>
    68d4:	006b6361 	rsbeq	r6, fp, r1, ror #6
    68d8:	5359535f 	cmppl	r9, #2080374785	@ 0x7c000001
    68dc:	4d49545f 	stclmi	4, cr5, [r9, #-380]	@ 0xfffffe84
    68e0:	45505345 	ldrbmi	r5, [r0, #-837]	@ 0xfffffcbb
    68e4:	5f485f43 	svcpl	0x00485f43
    68e8:	475f0020 	ldrbmi	r0, [pc, -r0, lsr #32]
    68ec:	505f4343 	subspl	r4, pc, r3, asr #6
    68f0:	49445254 	stmdbmi	r4, {r2, r4, r6, r9, ip, lr}^
    68f4:	545f4646 	ldrbpl	r4, [pc], #-1606	@ 68fc <__max_heap_size+0x64fc>
    68f8:	5f5f0020 	svcpl	0x005f0020
    68fc:	43554e47 	cmpmi	r5, #1136	@ 0x470
    6900:	454b494c 	strbmi	r4, [fp, #-2380]	@ 0xfffff6b4
    6904:	4955425f 	ldmdbmi	r5, {r0, r1, r2, r3, r4, r6, r9, lr}^
    6908:	4e49544c 	cdpmi	4, 4, cr5, cr9, cr12, {2}
    690c:	58454e5f 	stmdapl	r5, {r0, r1, r2, r3, r4, r6, r9, sl, fp, lr}^
    6910:	52415f54 	subpl	r5, r1, #84, 30	@ 0x150
    6914:	00312047 	eorseq	r2, r1, r7, asr #32
    6918:	5f43535f 	svcpl	0x0043535f
    691c:	4556454c 	ldrbmi	r4, [r6, #-1356]	@ 0xfffffab4
    6920:	435f344c 	cmpmi	pc, #76, 8	@ 0x4c000000
    6924:	45484341 	strbmi	r4, [r8, #-833]	@ 0xfffffcbf
    6928:	4e494c5f 	mcrmi	12, 2, r4, cr9, cr15, {2}
    692c:	5a495345 	bpl	125b648 <__max_heap_size+0x125b248>
    6930:	33312045 	teqcc	r1, #69	@ 0x45
    6934:	525f0039 	subspl	r0, pc, #57	@ 0x39
    6938:	544e4545 	strbpl	r4, [lr], #-1349	@ 0xfffffabb
    693c:	494e495f 	stmdbmi	lr, {r0, r1, r2, r3, r4, r6, r8, fp, lr}^
    6940:	61762854 	cmnvs	r6, r4, asr r8
    6944:	7b202972 	blvc	810f14 <__max_heap_size+0x810b14>
    6948:	202c3020 	eorcs	r3, ip, r0, lsr #32
    694c:	735f5f26 	cmpvc	pc, #38, 30	@ 0x98
    6950:	5d305b66 	vldmdbpl	r0!, {d5-<overflow reg d55>}
    6954:	5f26202c 	svcpl	0x0026202c
    6958:	5b66735f 	blpl	19a36dc <__max_heap_size+0x19a32dc>
    695c:	202c5d31 	eorcs	r5, ip, r1, lsr sp
    6960:	735f5f26 	cmpvc	pc, #38, 30	@ 0x98
    6964:	5d325b66 	vldmdbpl	r2!, {d5-<overflow reg d55>}
    6968:	2c30202c 	ldccs	0, cr2, [r0], #-176	@ 0xffffff50
    696c:	2c222220 	stccs	2, cr2, [r2], #-128	@ 0xffffff80
    6970:	45525f20 	ldrbmi	r5, [r2, #-3872]	@ 0xfffff0e0
    6974:	5f544e45 	svcpl	0x00544e45
    6978:	54494e49 	strbpl	r4, [r9], #-3657	@ 0xfffff1b7
    697c:	5345525f 	cmppl	r5, #-268435451	@ 0xf0000005
    6980:	45565245 	ldrbmi	r5, [r6, #-581]	@ 0xfffffdbb
    6984:	20315f44 	eorscs	r5, r1, r4, asr #30
    6988:	4c554e5f 	ldclmi	14, cr4, [r5], {95}	@ 0x5f
    698c:	5f202c4c 	svcpl	0x00202c4c
    6990:	4e454552 	mcrmi	5, 2, r4, cr5, cr2, {2}
    6994:	4e495f54 	mcrmi	15, 2, r5, cr9, cr4, {2}
    6998:	525f5449 	subspl	r5, pc, #1224736768	@ 0x49000000
    699c:	52455345 	subpl	r5, r5, #335544321	@ 0x14000001
    69a0:	5f444556 	svcpl	0x00444556
    69a4:	4e5f2030 	mrcmi	0, 2, r2, cr15, cr0, {1}
    69a8:	2c4c4c55 	stclcs	12, cr4, [ip], {85}	@ 0x55
    69ac:	554e5f20 	strbpl	r5, [lr, #-3872]	@ 0xfffff0e0
    69b0:	202c4c4c 	eorcs	r4, ip, ip, asr #24
    69b4:	5f202c30 	svcpl	0x00202c30
    69b8:	4c4c554e 	stclmi	5, cr5, [ip], {78}	@ 0x4e
    69bc:	4e5f202c 	cdpmi	0, 5, cr2, cr15, cr12, {1}
    69c0:	2c4c4c55 	stclcs	12, cr4, [ip], {85}	@ 0x55
    69c4:	202c3020 	eorcs	r3, ip, r0, lsr #32
    69c8:	4c554e5f 	ldclmi	14, cr4, [r5], {95}	@ 0x5f
    69cc:	7b202c4c 	blvc	811b04 <__max_heap_size+0x811704>
    69d0:	5f207b20 	svcpl	0x00207b20
    69d4:	4e454552 	mcrmi	5, 2, r4, cr5, cr2, {2}
    69d8:	4e495f54 	mcrmi	15, 2, r5, cr9, cr4, {2}
    69dc:	525f5449 	subspl	r5, pc, #1224736768	@ 0x49000000
    69e0:	52455345 	subpl	r5, r5, #335544321	@ 0x14000001
    69e4:	5f444556 	svcpl	0x00444556
    69e8:	4e5f2032 	mrcmi	0, 2, r2, cr15, cr2, {1}
    69ec:	2c4c4c55 	stclcs	12, cr4, [ip], {85}	@ 0x55
    69f0:	2c222220 	stccs	2, cr2, [r2], #-128	@ 0xffffff80
    69f4:	2c307b20 			@ <UNDEFINED> instruction: 0x2c307b20
    69f8:	202c3020 	eorcs	r3, ip, r0, lsr #32
    69fc:	30202c30 	eorcc	r2, r0, r0, lsr ip
    6a00:	2c30202c 	ldccs	0, cr2, [r0], #-176	@ 0xffffff50
    6a04:	202c3020 	eorcs	r3, ip, r0, lsr #32
    6a08:	30202c30 	eorcc	r2, r0, r0, lsr ip
    6a0c:	7d30202c 	ldcvc	0, cr2, [r0, #-176]!	@ 0xffffff50
    6a10:	2c30202c 	ldccs	0, cr2, [r0], #-176	@ 0xffffff50
    6a14:	202c3120 	eorcs	r3, ip, r0, lsr #2
    6a18:	5f7b207b 	svcpl	0x007b207b
    6a1c:	444e4152 	strbmi	r4, [lr], #-338	@ 0xfffffeae
    6a20:	535f3834 	cmppl	pc, #52, 16	@ 0x340000
    6a24:	5f444545 	svcpl	0x00444545
    6a28:	5f202c30 	svcpl	0x00202c30
    6a2c:	444e4152 	strbmi	r4, [lr], #-338	@ 0xfffffeae
    6a30:	535f3834 	cmppl	pc, #52, 16	@ 0x340000
    6a34:	5f444545 	svcpl	0x00444545
    6a38:	5f202c31 	svcpl	0x00202c31
    6a3c:	444e4152 	strbmi	r4, [lr], #-338	@ 0xfffffeae
    6a40:	535f3834 	cmppl	pc, #52, 16	@ 0x340000
    6a44:	5f444545 	svcpl	0x00444545
    6a48:	202c7d32 	eorcs	r7, ip, r2, lsr sp
    6a4c:	41525f7b 	cmpmi	r2, fp, ror pc
    6a50:	3834444e 	ldmdacc	r4!, {r1, r2, r3, r6, sl, lr}
    6a54:	4c554d5f 	ldclmi	13, cr4, [r5], {95}	@ 0x5f
    6a58:	2c305f54 	ldccs	15, cr5, [r0], #-336	@ 0xfffffeb0
    6a5c:	41525f20 	cmpmi	r2, r0, lsr #30
    6a60:	3834444e 	ldmdacc	r4!, {r1, r2, r3, r6, sl, lr}
    6a64:	4c554d5f 	ldclmi	13, cr4, [r5], {95}	@ 0x5f
    6a68:	2c315f54 	ldccs	15, cr5, [r1], #-336	@ 0xfffffeb0
    6a6c:	41525f20 	cmpmi	r2, r0, lsr #30
    6a70:	3834444e 	ldmdacc	r4!, {r1, r2, r3, r6, sl, lr}
    6a74:	4c554d5f 	ldclmi	13, cr4, [r5], {95}	@ 0x5f
    6a78:	7d325f54 	ldcvc	15, cr5, [r2, #-336]!	@ 0xfffffeb0
    6a7c:	525f202c 	subspl	r2, pc, #44	@ 0x2c
    6a80:	34444e41 	strbcc	r4, [r4], #-3649	@ 0xfffff1bf
    6a84:	44415f38 	strbmi	r5, [r1], #-3896	@ 0xfffff0c8
    6a88:	2c7d2044 	ldclcs	0, cr2, [sp], #-272	@ 0xfffffef0
    6a8c:	2c307b20 			@ <UNDEFINED> instruction: 0x2c307b20
    6a90:	7d307b20 	vldmdbvc	r0!, {d7-d22}
    6a94:	7b202c7d 	blvc	811c90 <__max_heap_size+0x811890>
    6a98:	7b202c30 	blvc	811b60 <__max_heap_size+0x811760>
    6a9c:	2c7d7d30 	ldclcs	13, cr7, [sp], #-192	@ 0xffffff40
    6aa0:	2c307b20 			@ <UNDEFINED> instruction: 0x2c307b20
    6aa4:	7d307b20 	vldmdbvc	r0!, {d7-d22}
    6aa8:	22202c7d 	eorcs	r2, r0, #32000	@ 0x7d00
    6aac:	22202c22 	eorcs	r2, r0, #8704	@ 0x2200
    6ab0:	30202c22 	eorcc	r2, r0, r2, lsr #24
    6ab4:	307b202c 	rsbscc	r2, fp, ip, lsr #32
    6ab8:	307b202c 	rsbscc	r2, fp, ip, lsr #32
    6abc:	202c7d7d 	eorcs	r7, ip, sp, ror sp
    6ac0:	202c307b 	eorcs	r3, ip, fp, ror r0
    6ac4:	7d7d307b 	ldclvc	0, cr3, [sp, #-492]!	@ 0xfffffe14
    6ac8:	307b202c 	rsbscc	r2, fp, ip, lsr #32
    6acc:	307b202c 	rsbscc	r2, fp, ip, lsr #32
    6ad0:	202c7d7d 	eorcs	r7, ip, sp, ror sp
    6ad4:	202c307b 	eorcs	r3, ip, fp, ror r0
    6ad8:	7d7d307b 	ldclvc	0, cr3, [sp, #-492]!	@ 0xfffffe14
    6adc:	307b202c 	rsbscc	r2, fp, ip, lsr #32
    6ae0:	307b202c 	rsbscc	r2, fp, ip, lsr #32
    6ae4:	7d207d7d 	stcvc	13, cr7, [r0, #-500]!	@ 0xfffffe0c
    6ae8:	202c7d20 	eorcs	r7, ip, r0, lsr #26
    6aec:	4545525f 	strbmi	r5, [r5, #-607]	@ 0xfffffda1
    6af0:	495f544e 	ldmdbmi	pc, {r1, r2, r3, r6, sl, ip, lr}^	@ <UNPREDICTABLE>
    6af4:	5f54494e 	svcpl	0x0054494e
    6af8:	45534552 	ldrbmi	r4, [r3, #-1362]	@ 0xfffffaae
    6afc:	44455652 	strbmi	r5, [r5], #-1618	@ 0xfffff9ae
    6b00:	375f365f 			@ <UNDEFINED> instruction: 0x375f365f
    6b04:	554e5f20 	strbpl	r5, [lr, #-3872]	@ 0xfffff0e0
    6b08:	7d204c4c 	stcvc	12, cr4, [r0, #-304]!	@ 0xfffffed0
    6b0c:	495f5300 	ldmdbmi	pc, {r8, r9, ip, lr}^	@ <UNPREDICTABLE>
    6b10:	52535552 	subspl	r5, r3, #343932928	@ 0x14800000
    6b14:	30303020 	eorscc	r3, r0, r0, lsr #32
    6b18:	30303430 	eorscc	r3, r0, r0, lsr r4
    6b1c:	745f5f00 	ldrbvc	r5, [pc], #-3840	@ 6b24 <__max_heap_size+0x6724>
    6b20:	5f656d69 	svcpl	0x00656d69
    6b24:	65645f74 	strbvs	r5, [r4, #-3956]!	@ 0xfffff08c
    6b28:	656e6966 	strbvs	r6, [lr, #-2406]!	@ 0xfffff69a
    6b2c:	5f002064 	svcpl	0x00002064
    6b30:	465f4350 			@ <UNDEFINED> instruction: 0x465f4350
    6b34:	53454c49 	cmppl	r5, #18688	@ 0x4900
    6b38:	42455a49 	submi	r5, r5, #299008	@ 0x49000
    6b3c:	20535449 	subscs	r5, r3, r9, asr #8
    6b40:	5f003231 	svcpl	0x00003231
    6b44:	434f4c43 	cmpmi	pc, #17152	@ 0x4300
    6b48:	5f545f4b 	svcpl	0x00545f4b
    6b4c:	4c434544 	stclmi	5, cr4, [r3], {68}	@ 0x44
    6b50:	44455241 	strbmi	r5, [r5], #-577	@ 0xfffffdbf
    6b54:	645f0020 	ldrbvs	r0, [pc], #-32	@ 6b5c <__max_heap_size+0x675c>
    6b58:	00327075 	eorseq	r7, r2, r5, ror r0
    6b5c:	4553465f 	ldrbmi	r4, [r3, #-1631]	@ 0xfffff9a1
    6b60:	4f5f4b45 	svcmi	0x005f4b45
    6b64:	4d495450 	stclmi	4, cr5, [r9, #-320]	@ 0xfffffec0
    6b68:	54415a49 	strbpl	r5, [r1], #-2633	@ 0xfffff5b7
    6b6c:	204e4f49 	subcs	r4, lr, r9, asr #30
    6b70:	635f0031 	cmpvs	pc, #49	@ 0x31
    6b74:	65736f6c 	ldrbvs	r6, [r3, #-3948]!	@ 0xfffff094
    6b78:	535f5f00 	cmppl	pc, #0, 30
    6b7c:	4e495254 	mcrmi	2, 2, r5, cr9, cr4, {2}
    6b80:	29782847 	ldmdbcs	r8!, {r0, r1, r2, r6, fp, sp}^
    6b84:	00782320 	rsbseq	r2, r8, r0, lsr #6
    6b88:	4545525f 	strbmi	r5, [r5, #-607]	@ 0xfffffda1
    6b8c:	495f544e 	ldmdbmi	pc, {r1, r2, r3, r6, sl, ip, lr}^	@ <UNPREDICTABLE>
    6b90:	5f54494e 	svcpl	0x0054494e
    6b94:	28525450 	ldmdacs	r2, {r4, r6, sl, ip, lr}^
    6b98:	29726176 	ldmdbcs	r2!, {r1, r2, r4, r5, r6, r8, sp, lr}^
    6b9c:	6d207b20 	vstmdbvs	r0!, {d7-d22}
    6ba0:	65736d65 	ldrbvs	r6, [r3, #-3429]!	@ 0xfffff29b
    6ba4:	76282874 			@ <UNDEFINED> instruction: 0x76282874
    6ba8:	2c297261 	stccs	2, cr7, [r9], #-388	@ 0xfffffe7c
    6bac:	202c3020 	eorcs	r3, ip, r0, lsr #32
    6bb0:	657a6973 	ldrbvs	r6, [sl, #-2419]!	@ 0xfffff68d
    6bb4:	2a28666f 	bcs	a20578 <__max_heap_size+0xa20178>
    6bb8:	72617628 	rsbvc	r7, r1, #40, 12	@ 0x2800000
    6bbc:	3b292929 	blcc	a51068 <__max_heap_size+0xa50c68>
    6bc0:	45525f20 	ldrbmi	r5, [r2, #-3872]	@ 0xfffff0e0
    6bc4:	5f544e45 	svcpl	0x00544e45
    6bc8:	54494e49 	strbpl	r4, [r9], #-3657	@ 0xfffff1b7
    6bcc:	5254505f 	subspl	r5, r4, #95	@ 0x5f
    6bd0:	52455a5f 	subpl	r5, r5, #389120	@ 0x5f000
    6bd4:	2844454f 	stmdacs	r4, {r0, r1, r2, r3, r6, r8, sl, lr}^
    6bd8:	29726176 	ldmdbcs	r2!, {r1, r2, r4, r5, r6, r8, sp, lr}^
    6bdc:	007d203b 	rsbseq	r2, sp, fp, lsr r0
    6be0:	4e475f5f 	mcrmi	15, 2, r5, cr7, cr15, {2}
    6be4:	494c4355 	stmdbmi	ip, {r0, r2, r4, r6, r8, r9, lr}^
    6be8:	425f454b 	subsmi	r4, pc, #314572800	@ 0x12c00000
    6bec:	544c4955 	strbpl	r4, [ip], #-2389	@ 0xfffff6ab
    6bf0:	565f4e49 	ldrbpl	r4, [pc], -r9, asr #28
    6bf4:	52415241 	subpl	r5, r1, #268435460	@ 0x10000004
    6bf8:	31205347 			@ <UNDEFINED> instruction: 0x31205347
    6bfc:	45525f00 	ldrbmi	r5, [r2, #-3840]	@ 0xfffff100
    6c00:	5f544e45 	svcpl	0x00544e45
    6c04:	4c52424d 	ldclmi	2, cr4, [r2], {77}	@ 0x4d
    6c08:	535f4e45 	cmppl	pc, #1104	@ 0x450
    6c0c:	45544154 	ldrbmi	r4, [r4, #-340]	@ 0xfffffeac
    6c10:	72747028 	rsbsvc	r7, r4, #40	@ 0x28
    6c14:	28282029 	stmdacs	r8!, {r0, r3, r5, sp}
    6c18:	29727470 	ldmdbcs	r2!, {r4, r5, r6, sl, ip, sp, lr}^
    6c1c:	6e5f3e2d 	cdpvs	14, 5, cr3, cr15, cr13, {1}
    6c20:	5f2e7765 	svcpl	0x002e7765
    6c24:	6e656572 	mcrvs	5, 3, r6, cr5, cr2, {3}
    6c28:	6d5f2e74 	ldclvs	14, cr2, [pc, #-464]	@ 6a60 <__max_heap_size+0x6660>
    6c2c:	656c7262 	strbvs	r7, [ip, #-610]!	@ 0xfffffd9e
    6c30:	74735f6e 	ldrbtvc	r5, [r3], #-3950	@ 0xfffff092
    6c34:	29657461 	stmdbcs	r5!, {r0, r5, r6, sl, ip, sp, lr}^
    6c38:	54535f00 	ldrbpl	r5, [r3], #-3840	@ 0xfffff100
    6c3c:	46454444 	strbmi	r4, [r5], -r4, asr #8
    6c40:	205f485f 	subscs	r4, pc, pc, asr r8	@ <UNPREDICTABLE>
    6c44:	535f5f00 	cmppl	pc, #0, 30
    6c48:	5f455a49 	svcpl	0x00455a49
    6c4c:	5f002054 	svcpl	0x00002054
    6c50:	6469705f 	strbtvs	r7, [r9], #-95	@ 0xffffffa1
    6c54:	5f00745f 	svcpl	0x0000745f
    6c58:	6c6c696b 			@ <UNDEFINED> instruction: 0x6c6c696b
    6c5c:	43535f00 	cmpmi	r3, #0, 30
    6c60:	505f325f 	subspl	r3, pc, pc, asr r2	@ <UNPREDICTABLE>
    6c64:	415f5342 	cmpmi	pc, r2, asr #6
    6c68:	554f4343 	strbpl	r4, [pc, #-835]	@ 692d <__max_heap_size+0x652d>
    6c6c:	4e49544e 	cdpmi	4, 4, cr5, cr9, cr14, {2}
    6c70:	31312047 	teqcc	r1, r7, asr #32
    6c74:	5f5f0034 	svcpl	0x005f0034
    6c78:	6e697270 	mcrvs	2, 3, r7, cr9, cr0, {3}
    6c7c:	6c306674 	ldcvs	6, cr6, [r0], #-464	@ 0xfffffe30
    6c80:	28656b69 	stmdacs	r5!, {r0, r3, r5, r6, r8, r9, fp, sp, lr}^
    6c84:	61746d66 	cmnvs	r4, r6, ror #26
    6c88:	662c6772 			@ <UNDEFINED> instruction: 0x662c6772
    6c8c:	74737269 	ldrbtvc	r7, [r3], #-617	@ 0xfffffd97
    6c90:	61726176 	cmnvs	r2, r6, ror r1
    6c94:	20296772 	eorcs	r6, r9, r2, ror r7
    6c98:	5f747300 	svcpl	0x00747300
    6c9c:	00766564 	rsbseq	r6, r6, r4, ror #10
    6ca0:	65645f5f 	strbvs	r5, [r4, #-3935]!	@ 0xfffff0a1
    6ca4:	20326461 	eorscs	r6, r2, r1, ror #8
    6ca8:	74615f5f 	strbtvc	r5, [r1], #-3935	@ 0xfffff0a1
    6cac:	62697274 	rsbvs	r7, r9, #116, 4	@ 0x40000007
    6cb0:	5f657475 	svcpl	0x00657475
    6cb4:	5f28285f 	svcpl	0x0028285f
    6cb8:	726f6e5f 	rsbvc	r6, pc, #1520	@ 0x5f0
    6cbc:	72757465 	rsbsvc	r7, r5, #1694498816	@ 0x65000000
    6cc0:	295f5f6e 	ldmdbcs	pc, {r1, r2, r3, r5, r6, r8, r9, sl, fp, ip, lr}^	@ <UNPREDICTABLE>
    6cc4:	535f0029 	cmppl	pc, #41	@ 0x29
    6cc8:	42585f43 	subsmi	r5, r8, #268	@ 0x10c
    6ccc:	4c5f3553 	ldclmi	5, cr3, [pc], {83}	@ 0x53
    6cd0:	5f343650 	svcpl	0x00343650
    6cd4:	3646464f 	strbcc	r4, [r6], -pc, asr #12
    6cd8:	535f2034 	cmppl	pc, #52	@ 0x34
    6cdc:	37565f43 	ldrbcc	r5, [r6, -r3, asr #30]
    6ce0:	36504c5f 			@ <UNDEFINED> instruction: 0x36504c5f
    6ce4:	464f5f34 			@ <UNDEFINED> instruction: 0x464f5f34
    6ce8:	00343646 	eorseq	r3, r4, r6, asr #12
    6cec:	5f43535f 	svcpl	0x0043535f
    6cf0:	42505f32 	subsmi	r5, r0, #50, 30	@ 0xc8
    6cf4:	4f4c5f53 	svcmi	0x004c5f53
    6cf8:	45544143 	ldrbmi	r4, [r4, #-323]	@ 0xfffffebd
    6cfc:	36313120 	ldrtcc	r3, [r1], -r0, lsr #2
    6d00:	6d697400 	stclvs	4, cr7, [r9, #-0]
    6d04:	65707365 	ldrbvs	r7, [r0, #-869]!	@ 0xfffffc9b
    6d08:	5f5f0063 	svcpl	0x005f0063
    6d0c:	49474542 	stmdbmi	r7, {r1, r6, r8, sl, lr}^
    6d10:	45445f4e 	strbmi	r5, [r4, #-3918]	@ 0xfffff0b2
    6d14:	20534c43 	subscs	r4, r3, r3, asr #24
    6d18:	45525f00 	ldrbmi	r5, [r2, #-3840]	@ 0xfffff100
    6d1c:	5f544e45 	svcpl	0x00544e45
    6d20:	43454843 	cmpmi	r5, #4390912	@ 0x430000
    6d24:	494d5f4b 	stmdbmi	sp, {r0, r1, r3, r6, r8, r9, sl, fp, ip, lr}^
    6d28:	70284353 	eorvc	r4, r8, r3, asr r3
    6d2c:	20297274 	eorcs	r7, r9, r4, ror r2
    6d30:	475f5f00 	ldrbmi	r5, [pc, -r0, lsl #30]
    6d34:	5f43554e 	svcpl	0x0043554e
    6d38:	4c5f4156 	ldclmi	1, cr4, [pc], {86}	@ 0x56
    6d3c:	5f545349 	svcpl	0x00545349
    6d40:	504d4f43 	subpl	r4, sp, r3, asr #30
    6d44:	42495441 	submi	r5, r9, #1090519040	@ 0x41000000
    6d48:	54494c49 	strbpl	r4, [r9], #-3145	@ 0xfffff3b7
    6d4c:	00312059 	eorseq	r2, r1, r9, asr r0
    6d50:	5f43535f 	svcpl	0x0043535f
    6d54:	4f495250 	svcmi	0x00495250
    6d58:	49544952 	ldmdbmi	r4, {r1, r4, r6, r8, fp, lr}^
    6d5c:	5f44455a 	svcpl	0x0044455a
    6d60:	32204f49 	eorcc	r4, r0, #292	@ 0x124
    6d64:	535f0038 	cmppl	pc, #56	@ 0x38
    6d68:	48435f43 	stmdami	r3, {r0, r1, r6, r8, r9, sl, fp, ip, lr}^
    6d6c:	5f444c49 	svcpl	0x00444c49
    6d70:	2058414d 	subscs	r4, r8, sp, asr #2
    6d74:	535f0031 	cmppl	pc, #49	@ 0x31
    6d78:	36565f43 	ldrbcc	r5, [r6], -r3, asr #30
    6d7c:	504c495f 	subpl	r4, ip, pc, asr r9
    6d80:	4f5f3233 	svcmi	0x005f3233
    6d84:	49424646 	stmdbmi	r2, {r1, r2, r6, r9, sl, lr}^
    6d88:	535f2047 	cmppl	pc, #71	@ 0x47
    6d8c:	37565f43 	ldrbcc	r5, [r6, -r3, asr #30]
    6d90:	504c495f 	subpl	r4, ip, pc, asr r9
    6d94:	4f5f3233 	svcmi	0x005f3233
    6d98:	49424646 	stmdbmi	r2, {r1, r2, r6, r9, sl, lr}^
    6d9c:	5f5f0047 	svcpl	0x005f0047
    6da0:	636f6c63 	cmnvs	pc, #25344	@ 0x6300
    6da4:	5f745f6b 	svcpl	0x00745f6b
    6da8:	69666564 	stmdbvs	r6!, {r2, r5, r6, r8, sl, sp, lr}^
    6dac:	2064656e 	rsbcs	r6, r4, lr, ror #10
    6db0:	6c5f5f00 	ldclvs	15, cr5, [pc], {-0}
    6db4:	5f6b636f 	svcpl	0x006b636f
    6db8:	75716361 	ldrbvc	r6, [r1, #-865]!	@ 0xfffffc9f
    6dbc:	28657269 	stmdacs	r5!, {r0, r3, r5, r6, r9, ip, sp, lr}^
    6dc0:	6b636f6c 	blvs	18e2b78 <__max_heap_size+0x18e2778>
    6dc4:	5f5f2029 	svcpl	0x005f2029
    6dc8:	61746572 	cmnvs	r4, r2, ror r5
    6dcc:	74656772 	strbtvc	r6, [r5], #-1906	@ 0xfffff88e
    6dd0:	636f6c5f 	cmnvs	pc, #24320	@ 0x5f00
    6dd4:	63615f6b 	cmnvs	r1, #428	@ 0x1ac
    6dd8:	72697571 	rsbvc	r7, r9, #473956352	@ 0x1c400000
    6ddc:	6f6c2865 	svcvs	0x006c2865
    6de0:	00296b63 	eoreq	r6, r9, r3, ror #22
    6de4:	69735f5f 	ldmdbvs	r3!, {r0, r1, r2, r3, r4, r6, r8, r9, sl, fp, ip, lr}^
    6de8:	745f657a 	ldrbvc	r6, [pc], #-1402	@ 6df0 <__max_heap_size+0x69f0>
    6dec:	445f5f00 	ldrbmi	r5, [pc], #-3840	@ 6df4 <__max_heap_size+0x69f4>
    6df0:	2053544f 	subscs	r5, r3, pc, asr #8
    6df4:	2e2e202c 	cdpcs	0, 2, cr2, cr14, cr12, {1}
    6df8:	535f002e 	cmppl	pc, #46	@ 0x2e
    6dfc:	454d5f43 	strbmi	r5, [sp, #-3907]	@ 0xfffff0bd
    6e00:	59524f4d 	ldmdbpl	r2, {r0, r2, r3, r6, r8, r9, sl, fp, lr}^
    6e04:	4f52505f 	svcmi	0x0052505f
    6e08:	54434554 	strbpl	r4, [r3], #-1364	@ 0xfffffaac
    6e0c:	204e4f49 	subcs	r4, lr, r9, asr #30
    6e10:	5f003632 	svcpl	0x00003632
    6e14:	4e454552 	mcrmi	5, 2, r4, cr5, cr2, {2}
    6e18:	43575f54 	cmpmi	r7, #84, 30	@ 0x150
    6e1c:	4f545253 	svcmi	0x00545253
    6e20:	5f53424d 	svcpl	0x0053424d
    6e24:	54415453 	strbpl	r5, [r1], #-1107	@ 0xfffffbad
    6e28:	74702845 	ldrbtvc	r2, [r0], #-2117	@ 0xfffff7bb
    6e2c:	28202972 	stmdacs	r0!, {r1, r4, r5, r6, r8, fp, sp}
    6e30:	72747028 	rsbsvc	r7, r4, #40	@ 0x28
    6e34:	5f3e2d29 	svcpl	0x003e2d29
    6e38:	2e77656e 	cdpcs	5, 7, cr6, cr7, cr14, {3}
    6e3c:	6565725f 	strbvs	r7, [r5, #-607]!	@ 0xfffffda1
    6e40:	5f2e746e 	svcpl	0x002e746e
    6e44:	72736377 	rsbsvc	r6, r3, #-603979775	@ 0xdc000001
    6e48:	626d6f74 	rsbvs	r6, sp, #116, 30	@ 0x1d0
    6e4c:	74735f73 	ldrbtvc	r5, [r3], #-3955	@ 0xfffff08d
    6e50:	29657461 	stmdbcs	r5!, {r0, r5, r6, sl, ip, sp, lr}^
    6e54:	43535f00 	cmpmi	r3, #0, 30
    6e58:	5953415f 	ldmdbpl	r3, {r0, r1, r2, r3, r4, r6, r8, lr}^
    6e5c:	5248434e 	subpl	r4, r8, #939524097	@ 0x38000001
    6e60:	554f4e4f 	strbpl	r4, [pc, #-3663]	@ 6019 <__max_heap_size+0x5c19>
    6e64:	4f495f53 	svcmi	0x00495f53
    6e68:	00313220 	eorseq	r3, r1, r0, lsr #4
    6e6c:	5a49535f 	bpl	125bbf0 <__max_heap_size+0x125b7f0>
    6e70:	5f545f45 	svcpl	0x00545f45
    6e74:	49464544 	stmdbmi	r6, {r2, r6, r8, sl, lr}^
    6e78:	2044454e 	subcs	r4, r4, lr, asr #10
    6e7c:	505f5f00 	subspl	r5, pc, r0, lsl #30
    6e80:	49445254 	stmdbmi	r4, {r2, r4, r6, r9, ip, lr}^
    6e84:	545f4646 	ldrbpl	r4, [pc], #-1606	@ 6e8c <__max_heap_size+0x6a8c>
    6e88:	525f0020 	subspl	r0, pc, #32
    6e8c:	544e4545 	strbpl	r4, [lr], #-1349	@ 0xfffffabb
    6e90:	4454535f 	ldrbmi	r5, [r4], #-863	@ 0xfffffca1
    6e94:	2854554f 	ldmdacs	r4, {r0, r1, r2, r3, r6, r8, sl, ip, lr}^
    6e98:	7274705f 	rsbsvc	r7, r4, #95	@ 0x5f
    6e9c:	28282029 	stmdacs	r8!, {r0, r3, r5, sp}
    6ea0:	7274705f 	rsbsvc	r7, r4, #95	@ 0x5f
    6ea4:	5f3e2d29 	svcpl	0x003e2d29
    6ea8:	6f647473 	svcvs	0x00647473
    6eac:	00297475 	eoreq	r7, r9, r5, ror r4
    6eb0:	4545525f 	strbmi	r5, [r5, #-607]	@ 0xfffffda1
    6eb4:	575f544e 	ldrbpl	r5, [pc, -lr, asr #8]
    6eb8:	4d4f5443 	stclmi	4, cr5, [pc, #-268]	@ 6db4 <__max_heap_size+0x69b4>
    6ebc:	54535f42 	ldrbpl	r5, [r3], #-3906	@ 0xfffff0be
    6ec0:	28455441 	stmdacs	r5, {r0, r6, sl, ip, lr}^
    6ec4:	29727470 	ldmdbcs	r2!, {r4, r5, r6, sl, ip, sp, lr}^
    6ec8:	70282820 	eorvc	r2, r8, r0, lsr #16
    6ecc:	2d297274 	stccs	2, cr7, [r9, #-464]!	@ 0xfffffe30
    6ed0:	656e5f3e 	strbvs	r5, [lr, #-3902]!	@ 0xfffff0c2
    6ed4:	725f2e77 	subsvc	r2, pc, #1904	@ 0x770
    6ed8:	746e6565 	strbtvc	r6, [lr], #-1381	@ 0xfffffa9b
    6edc:	63775f2e 	cmnvs	r7, #46, 30	@ 0xb8
    6ee0:	626d6f74 	rsbvs	r6, sp, #116, 30	@ 0x1d0
    6ee4:	6174735f 	cmnvs	r4, pc, asr r3
    6ee8:	00296574 	eoreq	r6, r9, r4, ror r5
    6eec:	5f43535f 	svcpl	0x0043535f
    6ef0:	45524854 	ldrbmi	r4, [r2, #-2132]	@ 0xfffff7ac
    6ef4:	505f4441 	subspl	r4, pc, r1, asr #8
    6ef8:	45434f52 	strbmi	r4, [r3, #-3922]	@ 0xfffff0ae
    6efc:	535f5353 	cmppl	pc, #1275068417	@ 0x4c000001
    6f00:	45524148 	ldrbmi	r4, [r2, #-328]	@ 0xfffffeb8
    6f04:	38342044 	ldmdacc	r4!, {r2, r6, sp}
    6f08:	75645f00 	strbvc	r5, [r4, #-3840]!	@ 0xfffff100
    6f0c:	495f0070 	ldmdbmi	pc, {r4, r5, r6}^	@ <UNPREDICTABLE>
    6f10:	5f545f44 	svcpl	0x00545f44
    6f14:	4c434544 	stclmi	5, cr4, [r3], {68}	@ 0x44
    6f18:	44455241 	strbmi	r5, [r5], #-577	@ 0xfffffdbf
    6f1c:	5f5f0020 	svcpl	0x005f0020
    6f20:	636f6c63 	cmnvs	pc, #25344	@ 0x6300
    6f24:	5f64696b 	svcpl	0x0064696b
    6f28:	65645f74 	strbvs	r5, [r4, #-3956]!	@ 0xfffff08c
    6f2c:	656e6966 	strbvs	r6, [lr, #-2406]!	@ 0xfffff69a
    6f30:	5f002064 	svcpl	0x00002064
    6f34:	465f4353 			@ <UNDEFINED> instruction: 0x465f4353
    6f38:	434e5953 	cmpmi	lr, #1359872	@ 0x14c000
    6f3c:	00323220 	eorseq	r3, r2, r0, lsr #4
    6f40:	69735f5f 	ldmdbvs	r3!, {r0, r1, r2, r3, r4, r6, r8, r9, sl, fp, ip, lr}^
    6f44:	64656e67 	strbtvs	r6, [r5], #-3687	@ 0xfffff199
    6f48:	67697320 	strbvs	r7, [r9, -r0, lsr #6]!
    6f4c:	0064656e 	rsbeq	r6, r4, lr, ror #10
    6f50:	4545525f 	strbmi	r5, [r5, #-607]	@ 0xfffffda1
    6f54:	415f544e 	cmpmi	pc, lr, asr #8
    6f58:	49544353 	ldmdbmi	r4, {r0, r1, r4, r6, r8, r9, lr}^
    6f5c:	425f454d 	subsmi	r4, pc, #322961408	@ 0x13400000
    6f60:	70284655 	eorvc	r4, r8, r5, asr r6
    6f64:	20297274 	eorcs	r7, r9, r4, ror r2
    6f68:	74702828 	ldrbtvc	r2, [r0], #-2088	@ 0xfffff7d8
    6f6c:	3e2d2972 			@ <UNDEFINED> instruction: 0x3e2d2972
    6f70:	77656e5f 			@ <UNDEFINED> instruction: 0x77656e5f
    6f74:	65725f2e 	ldrbvs	r5, [r2, #-3886]!	@ 0xfffff0d2
    6f78:	2e746e65 	cdpcs	14, 7, cr6, cr4, cr5, {3}
    6f7c:	6373615f 	cmnvs	r3, #-1073741801	@ 0xc0000017
    6f80:	656d6974 	strbvs	r6, [sp, #-2420]!	@ 0xfffff68c
    6f84:	6675625f 			@ <UNDEFINED> instruction: 0x6675625f
    6f88:	535f0029 	cmppl	pc, #41	@ 0x29
    6f8c:	48505f43 	ldmdami	r0, {r0, r1, r6, r8, r9, sl, fp, ip, lr}^
    6f90:	505f5359 	subspl	r5, pc, r9, asr r3	@ <UNPREDICTABLE>
    6f94:	53454741 	cmppl	r5, #17039360	@ 0x1040000
    6f98:	00313120 	eorseq	r3, r1, r0, lsr #2
    6f9c:	5f424d5f 	svcpl	0x00424d5f
    6fa0:	41504143 	cmpmi	r0, r3, asr #2
    6fa4:	20454c42 	subcs	r4, r5, r2, asr #24
    6fa8:	525f0031 	subspl	r0, pc, #49	@ 0x31
    6fac:	544e4545 	strbpl	r4, [lr], #-1349	@ 0xfffffabb
    6fb0:	5f504d5f 	svcpl	0x00504d5f
    6fb4:	28533550 	ldmdacs	r3, {r4, r6, r8, sl, ip, sp}^
    6fb8:	29727470 	ldmdbcs	r2!, {r4, r5, r6, sl, ip, sp, lr}^
    6fbc:	70282820 	eorvc	r2, r8, r0, lsr #16
    6fc0:	2d297274 	stccs	2, cr7, [r9, #-464]!	@ 0xfffffe30
    6fc4:	35705f3e 	ldrbcc	r5, [r0, #-3902]!	@ 0xfffff0c2
    6fc8:	5f002973 	svcpl	0x00002973
    6fcc:	636f6c5f 	cmnvs	pc, #24320	@ 0x5f00
    6fd0:	72745f6b 	rsbsvc	r5, r4, #428	@ 0x1ac
    6fd4:	63615f79 	cmnvs	r1, #484	@ 0x1e4
    6fd8:	72697571 	rsbvc	r7, r9, #473956352	@ 0x1c400000
    6fdc:	6f6c2865 	svcvs	0x006c2865
    6fe0:	20296b63 	eorcs	r6, r9, r3, ror #22
    6fe4:	65725f5f 	ldrbvs	r5, [r2, #-3935]!	@ 0xfffff0a1
    6fe8:	67726174 			@ <UNDEFINED> instruction: 0x67726174
    6fec:	6c5f7465 	ldclvs	4, cr7, [pc], {101}	@ 0x65
    6ff0:	5f6b636f 	svcpl	0x006b636f
    6ff4:	5f797274 	svcpl	0x00797274
    6ff8:	75716361 	ldrbvc	r6, [r1, #-865]!	@ 0xfffffc9f
    6ffc:	28657269 	stmdacs	r5!, {r0, r3, r5, r6, r9, ip, sp, lr}^
    7000:	6b636f6c 	blvs	18e2db8 <__max_heap_size+0x18e29b8>
    7004:	575f0029 	ldrbpl	r0, [pc, -r9, lsr #32]
    7008:	52414843 	subpl	r4, r1, #4390912	@ 0x430000
    700c:	445f545f 	ldrbmi	r5, [pc], #-1119	@ 7014 <__max_heap_size+0x6c14>
    7010:	4e494645 	cdpmi	6, 4, cr4, cr9, cr5, {2}
    7014:	00204445 	eoreq	r4, r0, r5, asr #8
    7018:	72745f5f 	rsbsvc	r5, r4, #380	@ 0x17c
    701c:	636f6c79 	cmnvs	pc, #30976	@ 0x7900
    7020:	655f736b 	ldrbvs	r7, [pc, #-875]	@ 6cbd <__max_heap_size+0x68bd>
    7024:	756c6378 	strbvc	r6, [ip, #-888]!	@ 0xfffffc88
    7028:	65766973 	ldrbvs	r6, [r6, #-2419]!	@ 0xfffff68d
    702c:	2e2e2e28 	cdpcs	14, 2, cr2, cr14, cr8, {1}
    7030:	5f5f2029 	svcpl	0x005f2029
    7034:	6b636f6c 	blvs	18e2dec <__max_heap_size+0x18e29ec>
    7038:	6e6e615f 	mcrvs	1, 3, r6, cr14, cr15, {2}
    703c:	7461746f 	strbtvc	r7, [r1], #-1135	@ 0xfffffb91
    7040:	78652865 	stmdavc	r5!, {r0, r2, r5, r6, fp, sp}^
    7044:	73756c63 	cmnvc	r5, #25344	@ 0x6300
    7048:	5f657669 	svcpl	0x00657669
    704c:	6c797274 	ldclvs	2, cr7, [r9], #-464	@ 0xfffffe30
    7050:	5f6b636f 	svcpl	0x006b636f
    7054:	636e7566 	cmnvs	lr, #427819008	@ 0x19800000
    7058:	6e6f6974 			@ <UNDEFINED> instruction: 0x6e6f6974
    705c:	565f5f28 	ldrbpl	r5, [pc], -r8, lsr #30
    7060:	52415f41 	subpl	r5, r1, #260	@ 0x104
    7064:	5f5f5347 	svcpl	0x005f5347
    7068:	5f002929 	svcpl	0x00002929
    706c:	4545495f 	strbmi	r4, [r5, #-2399]	@ 0xfffff6a1
    7070:	494c5f45 	stmdbmi	ip, {r0, r2, r6, r8, r9, sl, fp, ip, lr}^
    7074:	454c5454 	strbmi	r5, [ip, #-1108]	@ 0xfffffbac
    7078:	444e455f 	strbmi	r4, [lr], #-1375	@ 0xfffffaa1
    707c:	204e4149 	subcs	r4, lr, r9, asr #2
    7080:	4f4c4300 	svcmi	0x004c4300
    7084:	415f4b43 	cmpmi	pc, r3, asr #22
    7088:	574f4c4c 	strbpl	r4, [pc, -ip, asr #24]
    708c:	31204445 			@ <UNDEFINED> instruction: 0x31204445
    7090:	46495f00 	strbmi	r5, [r9], -r0, lsl #30
    7094:	204b4c42 	subcs	r4, fp, r2, asr #24
    7098:	30363030 	eorscc	r3, r6, r0, lsr r0
    709c:	00303030 	eorseq	r3, r0, r0, lsr r0
    70a0:	43435f5f 	cmpmi	r3, #380	@ 0x17c
    70a4:	5055535f 	subspl	r5, r5, pc, asr r3
    70a8:	54524f50 	ldrbpl	r4, [r2], #-3920	@ 0xfffff0b0
    70ac:	41565f53 	cmpmi	r6, r3, asr pc
    70b0:	49444152 	stmdbmi	r4, {r1, r4, r6, r8, lr}^
    70b4:	58585f43 	ldmdapl	r8, {r0, r1, r6, r8, r9, sl, fp, ip, lr}^
    70b8:	00312058 	eorseq	r2, r1, r8, asr r0
    70bc:	6c615f5f 	stclvs	15, cr5, [r1], #-380	@ 0xfffffe84
    70c0:	73796177 	cmnvc	r9, #-1073741795	@ 0xc000001d
    70c4:	6c6e695f 			@ <UNDEFINED> instruction: 0x6c6e695f
    70c8:	20656e69 	rsbcs	r6, r5, r9, ror #28
    70cc:	6e695f5f 	mcrvs	15, 3, r5, cr9, cr15, {2}
    70d0:	656e696c 	strbvs	r6, [lr, #-2412]!	@ 0xfffff694
    70d4:	5f205f5f 	svcpl	0x00205f5f
    70d8:	7474615f 	ldrbtvc	r6, [r4], #-351	@ 0xfffffea1
    70dc:	75626972 	strbvc	r6, [r2, #-2418]!	@ 0xfffff68e
    70e0:	5f5f6574 	svcpl	0x005f6574
    70e4:	5f5f2828 	svcpl	0x005f2828
    70e8:	61776c61 	cmnvs	r7, r1, ror #24
    70ec:	695f7379 	ldmdbvs	pc, {r0, r3, r4, r5, r6, r8, r9, ip, sp, lr}^	@ <UNPREDICTABLE>
    70f0:	6e696c6e 	cdpvs	12, 6, cr6, cr9, cr14, {3}
    70f4:	295f5f65 	ldmdbcs	pc, {r0, r2, r5, r6, r8, r9, sl, fp, ip, lr}^	@ <UNPREDICTABLE>
    70f8:	5f5f0029 	svcpl	0x005f0029
    70fc:	5f677261 	svcpl	0x00677261
    7100:	65707974 	ldrbvs	r7, [r0, #-2420]!	@ 0xfffff68c
    7104:	6761745f 			@ <UNDEFINED> instruction: 0x6761745f
    7108:	67726128 	ldrbvs	r6, [r2, -r8, lsr #2]!
    710c:	6e696b5f 	vmovvs.8	d9[6], r6
    7110:	72612c64 	rsbvc	r2, r1, #100, 24	@ 0x6400
    7114:	64695f67 	strbtvs	r5, [r9], #-3943	@ 0xfffff099
    7118:	79742c78 	ldmdbvc	r4!, {r3, r4, r5, r6, sl, fp, sp}^
    711c:	745f6570 	ldrbvc	r6, [pc], #-1392	@ 7124 <__max_heap_size+0x6d24>
    7120:	695f6761 	ldmdbvs	pc, {r0, r5, r6, r8, r9, sl, sp, lr}^	@ <UNPREDICTABLE>
    7124:	20297864 	eorcs	r7, r9, r4, ror #16
    7128:	4e555f00 	cdpmi	15, 5, cr5, cr5, cr0, {0}
    712c:	5f465542 	svcpl	0x00465542
    7130:	45525453 	ldrbmi	r5, [r2, #-1107]	@ 0xfffffbad
    7134:	4f5f4d41 	svcmi	0x005f4d41
    7138:	31205450 			@ <UNDEFINED> instruction: 0x31205450
    713c:	635f5f00 	cmpvs	pc, #0, 30
    7140:	61746e6f 	cmnvs	r4, pc, ror #28
    7144:	72656e69 	rsbvc	r6, r5, #1680	@ 0x690
    7148:	7828666f 	stmdavc	r8!, {r0, r1, r2, r3, r5, r6, r9, sl, sp, lr}
    714c:	6d2c732c 	stcvs	3, cr7, [ip, #-176]!	@ 0xffffff50
    7150:	7b282029 	blvc	a0f1fc <__max_heap_size+0xa0edfc>
    7154:	6e6f6320 	cdpvs	3, 6, cr6, cr15, cr0, {1}
    7158:	76207473 			@ <UNDEFINED> instruction: 0x76207473
    715c:	74616c6f 	strbtvc	r6, [r1], #-3183	@ 0xfffff391
    7160:	20656c69 	rsbcs	r6, r5, r9, ror #24
    7164:	79745f5f 	ldmdbvc	r4!, {r0, r1, r2, r3, r4, r6, r8, r9, sl, fp, ip, lr}^
    7168:	666f6570 			@ <UNDEFINED> instruction: 0x666f6570
    716c:	73282828 			@ <UNDEFINED> instruction: 0x73282828
    7170:	30292a20 	eorcc	r2, r9, r0, lsr #20
    7174:	6d3e2d29 	ldcvs	13, cr2, [lr, #-164]!	@ 0xffffff5c
    7178:	5f2a2029 	svcpl	0x002a2029
    717c:	3d20785f 	stccc	8, cr7, [r0, #-380]!	@ 0xfffffe84
    7180:	29782820 	ldmdbcs	r8!, {r5, fp, sp}^
    7184:	5f5f203b 	svcpl	0x005f203b
    7188:	55514544 	ldrbpl	r4, [r1, #-1348]	@ 0xfffffabc
    718c:	46494c41 	strbmi	r4, [r9], -r1, asr #24
    7190:	20732859 	rsbscs	r2, r3, r9, asr r8
    7194:	28202c2a 	stmdacs	r0!, {r1, r3, r5, sl, fp, sp}
    7198:	736e6f63 	cmnvc	lr, #396	@ 0x18c
    719c:	6f762074 	svcvs	0x00762074
    71a0:	6974616c 	ldmdbvs	r4!, {r2, r3, r5, r6, r8, sp, lr}^
    71a4:	6320656c 			@ <UNDEFINED> instruction: 0x6320656c
    71a8:	20726168 	rsbscs	r6, r2, r8, ror #2
    71ac:	5f5f292a 	svcpl	0x005f292a
    71b0:	202d2078 	eorcs	r2, sp, r8, ror r0
    71b4:	666f5f5f 			@ <UNDEFINED> instruction: 0x666f5f5f
    71b8:	74657366 	strbtvc	r7, [r5], #-870	@ 0xfffffc9a
    71bc:	7328666f 			@ <UNDEFINED> instruction: 0x7328666f
    71c0:	296d202c 	stmdbcs	sp!, {r2, r3, r5, sp}^
    71c4:	297d3b29 	ldmdbcs	sp!, {r0, r3, r5, r8, r9, fp, ip, sp}^
    71c8:	53425f00 	cmppl	r2, #0, 30
    71cc:	49535f44 	ldmdbmi	r3, {r2, r6, r8, r9, sl, fp, ip, lr}^
    71d0:	545f455a 	ldrbpl	r4, [pc], #-1370	@ 71d8 <__max_heap_size+0x6dd8>
    71d4:	5300205f 	tstpl	r0, #95	@ 0x5f
    71d8:	5f4b4545 	svcpl	0x004b4545
    71dc:	20444e45 	subcs	r4, r4, r5, asr #28
    71e0:	5f5f0032 	svcpl	0x005f0032
    71e4:	6c5f6f6e 	ldclvs	15, cr6, [pc], {110}	@ 0x6e
    71e8:	5f6b636f 	svcpl	0x006b636f
    71ec:	6c616e61 	stclvs	14, cr6, [r1], #-388	@ 0xfffffe7c
    71f0:	73697379 	cmnvc	r9, #-469762047	@ 0xe4000001
    71f4:	6c5f5f20 	ldclvs	15, cr5, [pc], {32}
    71f8:	5f6b636f 	svcpl	0x006b636f
    71fc:	6f6e6e61 	svcvs	0x006e6e61
    7200:	65746174 	ldrbvs	r6, [r4, #-372]!	@ 0xfffffe8c
    7204:	5f6f6e28 	svcpl	0x006f6e28
    7208:	65726874 	ldrbvs	r6, [r2, #-2164]!	@ 0xfffff78c
    720c:	735f6461 	cmpvc	pc, #1627389952	@ 0x61000000
    7210:	74656661 	strbtvc	r6, [r5], #-1633	@ 0xfffff99f
    7214:	6e615f79 	mcrvs	15, 3, r5, cr1, cr9, {3}
    7218:	73796c61 	cmnvc	r9, #24832	@ 0x6100
    721c:	00297369 	eoreq	r7, r9, r9, ror #6
    7220:	5f43535f 	svcpl	0x0043535f
    7224:	42505f32 	subsmi	r5, r0, #50, 30	@ 0xc8
    7228:	31312053 	teqcc	r1, r3, asr r0
    722c:	545f0033 	ldrbpl	r0, [pc], #-51	@ 7234 <__max_heap_size+0x6e34>
    7230:	4843575f 	stmdami	r3, {r0, r1, r2, r3, r4, r6, r8, r9, sl, ip, lr}^
    7234:	00205241 	eoreq	r5, r0, r1, asr #4
    7238:	5f43535f 	svcpl	0x0043535f
    723c:	45504f58 	ldrbmi	r4, [r0, #-3928]	@ 0xfffff0a8
    7240:	52435f4e 	subpl	r5, r3, #312	@ 0x138
    7244:	20545059 	subscs	r5, r4, r9, asr r0
    7248:	5f003639 	svcpl	0x00003639
    724c:	435f4353 	cmpmi	pc, #1275068417	@ 0x4c000001
    7250:	49545550 	ldmdbmi	r4, {r4, r6, r8, sl, ip, lr}^
    7254:	3620454d 	strtcc	r4, [r0], -sp, asr #10
    7258:	5f530033 	svcpl	0x00530033
    725c:	52475249 	subpl	r5, r7, #-1879048188	@ 0x90000004
    7260:	30302050 	eorscc	r2, r0, r0, asr r0
    7264:	34303030 	ldrtcc	r3, [r0], #-48	@ 0xffffffd0
    7268:	435f0030 	cmpmi	pc, #48	@ 0x30
    726c:	4b434f4c 	blmi	10dafa4 <__max_heap_size+0x10daba4>
    7270:	545f4449 	ldrbpl	r4, [pc], #-1097	@ 7278 <__max_heap_size+0x6e78>
    7274:	6e75205f 	mrcvs	0, 3, r2, cr5, cr15, {2}
    7278:	6e676973 			@ <UNDEFINED> instruction: 0x6e676973
    727c:	6c206465 	stcvs	4, cr6, [r0], #-404	@ 0xfffffe6c
    7280:	00676e6f 	rsbeq	r6, r7, pc, ror #28
    7284:	4545525f 	strbmi	r5, [r5, #-607]	@ 0xfffffda1
    7288:	435f544e 	cmpmi	pc, #1308622848	@ 0x4e000000
    728c:	4b434548 	blmi	10d87b4 <__max_heap_size+0x10d83b4>
    7290:	284d545f 	stmdacs	sp, {r0, r1, r2, r3, r4, r6, sl, ip, lr}^
    7294:	29727470 	ldmdbcs	r2!, {r4, r5, r6, sl, ip, sp, lr}^
    7298:	475f0020 	ldrbmi	r0, [pc, -r0, lsr #32]
    729c:	545f4449 	ldrbpl	r4, [pc], #-1097	@ 72a4 <__max_heap_size+0x6ea4>
    72a0:	4345445f 	cmpmi	r5, #1593835520	@ 0x5f000000
    72a4:	4552414c 	ldrbmi	r4, [r2, #-332]	@ 0xfffffeb4
    72a8:	5f002044 	svcpl	0x00002044
    72ac:	544e495f 	strbpl	r4, [lr], #-2399	@ 0xfffff6a1
    72b0:	4843575f 	stmdami	r3, {r0, r1, r2, r3, r4, r6, r8, r9, sl, ip, lr}^
    72b4:	545f5241 	ldrbpl	r5, [pc], #-577	@ 72bc <__max_heap_size+0x6ebc>
    72b8:	0020485f 	eoreq	r4, r0, pc, asr r8
    72bc:	5f43535f 	svcpl	0x0043535f
    72c0:	4c4d454d 	stclmi	5, cr4, [sp], {77}	@ 0x4d
    72c4:	5f4b434f 	svcpl	0x004b434f
    72c8:	474e4152 			@ <UNDEFINED> instruction: 0x474e4152
    72cc:	35322045 	ldrcc	r2, [r2, #-69]!	@ 0xffffffbb
    72d0:	43535f00 	cmpmi	r3, #0, 30
    72d4:	5445475f 	strbpl	r4, [r5], #-1887	@ 0xfffff8a1
    72d8:	525f5247 	subspl	r5, pc, #1879048196	@ 0x70000004
    72dc:	5a49535f 	bpl	125c060 <__max_heap_size+0x125bc60>
    72e0:	414d5f45 	cmpmi	sp, r5, asr #30
    72e4:	30352058 	eorscc	r2, r5, r8, asr r0
    72e8:	41485f00 	cmpmi	r8, r0, lsl #30
    72ec:	495f4556 	ldmdbmi	pc, {r1, r2, r4, r6, r8, sl, lr}^	@ <UNPREDICTABLE>
    72f0:	4654494e 	ldrbmi	r4, [r4], -lr, asr #18
    72f4:	5f494e49 	svcpl	0x00494e49
    72f8:	41525241 	cmpmi	r2, r1, asr #4
    72fc:	00312059 	eorseq	r2, r1, r9, asr r0
    7300:	5f43535f 	svcpl	0x0043535f
    7304:	54534f48 	ldrbpl	r4, [r3], #-3912	@ 0xfffff0b8
    7308:	4d414e5f 	stclmi	14, cr4, [r1, #-380]	@ 0xfffffe84
    730c:	414d5f45 	cmpmi	sp, r5, asr #30
    7310:	35362058 	ldrcc	r2, [r6, #-88]!	@ 0xffffffa8
    7314:	43535f00 	cmpmi	r3, #0, 30
    7318:	4d45535f 	stclmi	3, cr5, [r5, #-380]	@ 0xfffffe84
    731c:	45534e5f 	ldrbmi	r4, [r3, #-3679]	@ 0xfffff1a1
    7320:	4d5f534d 	ldclmi	3, cr5, [pc, #-308]	@ 71f4 <__max_heap_size+0x6df4>
    7324:	31205841 			@ <UNDEFINED> instruction: 0x31205841
    7328:	535f0036 	cmppl	pc, #54	@ 0x36
    732c:	52545f43 	subspl	r5, r4, #268	@ 0x10c
    7330:	5f454341 	svcpl	0x00454341
    7334:	20474f4c 	subcs	r4, r7, ip, asr #30
    7338:	5f003738 	svcpl	0x00003738
    733c:	325f4353 	subscc	r4, pc, #1275068417	@ 0x4c000001
    7340:	524f465f 	subpl	r4, pc, #99614720	@ 0x5f00000
    7344:	55525f54 	ldrbpl	r5, [r2, #-3924]	@ 0xfffff0ac
    7348:	3131204e 	teqcc	r1, lr, asr #32
    734c:	535f0031 	cmppl	pc, #49	@ 0x31
    7350:	52545f43 	subspl	r5, r4, #268	@ 0x10c
    7354:	5f454341 	svcpl	0x00454341
    7358:	45484e49 	strbmi	r4, [r8, #-3657]	@ 0xfffff1b7
    735c:	20544952 	subscs	r4, r4, r2, asr r9
    7360:	43003638 	tstmi	r0, #56, 12	@ 0x3800000
    7364:	4b434f4c 	blmi	10db09c <__max_heap_size+0x10dac9c>
    7368:	45505f53 	ldrbmi	r5, [r0, #-3923]	@ 0xfffff0ad
    736c:	45535f52 	ldrbmi	r5, [r3, #-3922]	@ 0xfffff0ae
    7370:	435f2043 	cmpmi	pc, #67	@ 0x43
    7374:	4b434f4c 	blmi	10db0ac <__max_heap_size+0x10dacac>
    7378:	45505f53 	ldrbmi	r5, [r0, #-3923]	@ 0xfffff0ad
    737c:	45535f52 	ldrbmi	r5, [r3, #-3922]	@ 0xfffff0ae
    7380:	5f005f43 	svcpl	0x00005f43
    7384:	545f4353 	ldrbpl	r4, [pc], #-851	@ 738c <__max_heap_size+0x6f8c>
    7388:	45434152 	strbmi	r4, [r3, #-338]	@ 0xfffffeae
    738c:	5359535f 	cmppl	r9, #2080374785	@ 0x7c000001
    7390:	58414d5f 	stmdapl	r1, {r0, r1, r2, r3, r4, r6, r8, sl, fp, lr}^
    7394:	00393820 	eorseq	r3, r9, r0, lsr #16
    7398:	7473665f 	ldrbtvc	r6, [r3], #-1631	@ 0xfffff9a1
    739c:	5f007461 	svcpl	0x00007461
    73a0:	444e4152 	strbmi	r4, [lr], #-338	@ 0xfffffeae
    73a4:	4d5f3834 	ldclmi	8, cr3, [pc, #-208]	@ 72dc <__max_heap_size+0x6edc>
    73a8:	5f544c55 	svcpl	0x00544c55
    73ac:	30282031 	eorcc	r2, r8, r1, lsr r0
    73b0:	65656478 	strbvs	r6, [r5, #-1144]!	@ 0xfffffb88
    73b4:	5f002963 	svcpl	0x00002963
    73b8:	525f4353 	subspl	r4, pc, #1275068417	@ 0x4c000001
    73bc:	55445f45 	strbpl	r5, [r4, #-3909]	@ 0xfffff0bb
    73c0:	414d5f50 	cmpmi	sp, r0, asr pc
    73c4:	33372058 	teqcc	r7, #88	@ 0x58
    73c8:	43535f00 	cmpmi	r3, #0, 30
    73cc:	4745525f 			@ <UNDEFINED> instruction: 0x4745525f
    73d0:	20505845 	subscs	r5, r0, r5, asr #16
    73d4:	5f003237 	svcpl	0x00003237
    73d8:	444e4152 	strbmi	r4, [lr], #-338	@ 0xfffffeae
    73dc:	535f3834 	cmppl	pc, #52, 16	@ 0x340000
    73e0:	5f444545 	svcpl	0x00444545
    73e4:	30282030 	eorcc	r2, r8, r0, lsr r0
    73e8:	30333378 	eorscc	r3, r3, r8, ror r3
    73ec:	5f002965 	svcpl	0x00002965
    73f0:	5a495353 	bpl	125c144 <__max_heap_size+0x125bd44>
    73f4:	5f545f45 	svcpl	0x00545f45
    73f8:	4c434544 	stclmi	5, cr4, [r3], {68}	@ 0x44
    73fc:	44455241 	strbmi	r5, [r5], #-577	@ 0xfffffdbf
    7400:	525f0020 	subspl	r0, pc, #32
    7404:	544e4545 	strbpl	r4, [lr], #-1349	@ 0xfffffabb
    7408:	5445475f 	strbpl	r4, [r5], #-1887	@ 0xfffff8a1
    740c:	45544144 	ldrbmi	r4, [r4, #-324]	@ 0xfffffebc
    7410:	5252455f 	subspl	r4, r2, #398458880	@ 0x17c00000
    7414:	7028505f 	eorvc	r5, r8, pc, asr r0
    7418:	20297274 	eorcs	r7, r9, r4, ror r2
    741c:	28282628 	stmdacs	r8!, {r3, r5, r9, sl, sp}
    7420:	29727470 	ldmdbcs	r2!, {r4, r5, r6, sl, ip, sp, lr}^
    7424:	6e5f3e2d 	cdpvs	14, 5, cr3, cr15, cr13, {1}
    7428:	5f2e7765 	svcpl	0x002e7765
    742c:	6e656572 	mcrvs	5, 3, r6, cr5, cr2, {3}
    7430:	675f2e74 			@ <UNDEFINED> instruction: 0x675f2e74
    7434:	61647465 	cmnvs	r4, r5, ror #8
    7438:	655f6574 	ldrbvs	r6, [pc, #-1396]	@ 6ecc <__max_heap_size+0x6acc>
    743c:	29297272 	stmdbcs	r9!, {r1, r4, r5, r6, r9, ip, sp, lr}
    7440:	43475f00 	cmpmi	r7, #0, 30
    7444:	414d5f43 	cmpmi	sp, r3, asr #30
    7448:	4c415f58 	stclmi	15, cr5, [r1], {88}	@ 0x58
    744c:	5f4e4749 	svcpl	0x004e4749
    7450:	5f002054 	svcpl	0x00002054
    7454:	4e494f4e 	cdpmi	15, 4, cr4, cr9, cr14, {2}
    7458:	454e494c 	strbmi	r4, [lr, #-2380]	@ 0xfffff6b4
    745c:	4154535f 	cmpmi	r4, pc, asr r3
    7460:	20434954 	subcs	r4, r3, r4, asr r9
    7464:	494f4e5f 	stmdbmi	pc, {r0, r1, r2, r3, r4, r6, r9, sl, fp, lr}^	@ <UNPREDICTABLE>
    7468:	4e494c4e 	cdpmi	12, 4, cr4, cr9, cr14, {2}
    746c:	74732045 	ldrbtvc	r2, [r3], #-69	@ 0xffffffbb
    7470:	63697461 	cmnvs	r9, #1627389952	@ 0x61000000
    7474:	43535f00 	cmpmi	r3, #0, 30
    7478:	5954545f 	ldmdbpl	r4, {r0, r1, r2, r3, r4, r6, sl, ip, lr}^
    747c:	4d414e5f 	stclmi	14, cr4, [r1, #-380]	@ 0xfffffe84
    7480:	414d5f45 	cmpmi	sp, r5, asr #30
    7484:	31342058 	teqcc	r4, r8, asr r0
    7488:	45525f00 	ldrbmi	r5, [r2, #-3840]	@ 0xfffff100
    748c:	5f544e45 	svcpl	0x00544e45
    7490:	525f504d 	subspl	r5, pc, #77	@ 0x4d
    7494:	4c555345 	ldclmi	3, cr5, [r5], {69}	@ 0x45
    7498:	284b5f54 	stmdacs	fp, {r2, r4, r6, r8, r9, sl, fp, ip, lr}^
    749c:	29727470 	ldmdbcs	r2!, {r4, r5, r6, sl, ip, sp, lr}^
    74a0:	70282820 	eorvc	r2, r8, r0, lsr #16
    74a4:	2d297274 	stccs	2, cr7, [r9, #-464]!	@ 0xfffffe30
    74a8:	65725f3e 	ldrbvs	r5, [r2, #-3902]!	@ 0xfffff0c2
    74ac:	746c7573 	strbtvc	r7, [ip], #-1395	@ 0xfffffa8d
    74b0:	00296b5f 	eoreq	r6, r9, pc, asr fp
    74b4:	4f435f5f 	svcmi	0x00435f5f
    74b8:	49525950 	ldmdbmi	r2, {r4, r6, r8, fp, ip, lr}^
    74bc:	28544847 	ldmdacs	r4, {r0, r1, r2, r6, fp, lr}^
    74c0:	73202973 			@ <UNDEFINED> instruction: 0x73202973
    74c4:	63757274 	cmnvs	r5, #116, 4	@ 0x40000007
    74c8:	5f5f2074 	svcpl	0x005f2074
    74cc:	6b636168 	blvs	18dfa74 <__max_heap_size+0x18df674>
    74d0:	43535f00 	cmpmi	r3, #0, 30
    74d4:	504f585f 	subpl	r5, pc, pc, asr r8	@ <UNPREDICTABLE>
    74d8:	535f4e45 	cmppl	pc, #1104	@ 0x450
    74dc:	41455254 	cmpmi	r5, r4, asr r2
    74e0:	3120534d 			@ <UNDEFINED> instruction: 0x3120534d
    74e4:	53003430 	tstpl	r0, #48, 8	@ 0x30000000
    74e8:	4b4c425f 	blmi	1317e6c <__max_heap_size+0x1317a6c>
    74ec:	455a4953 	ldrbmi	r4, [sl, #-2387]	@ 0xfffff6ad
    74f0:	32303120 	eorscc	r3, r0, #32, 2
    74f4:	535f0034 	cmppl	pc, #52	@ 0x34
    74f8:	49545f43 	ldmdbmi	r4, {r0, r1, r6, r8, r9, sl, fp, ip, lr}^
    74fc:	554f454d 	strbpl	r4, [pc, #-1357]	@ 6fb7 <__max_heap_size+0x6bb7>
    7500:	38205354 	stmdacc	r0!, {r2, r4, r6, r8, r9, ip, lr}
    7504:	5f5f0032 	svcpl	0x005f0032
    7508:	49534352 	ldmdbmi	r3, {r1, r4, r6, r8, r9, lr}^
    750c:	29732844 	ldmdbcs	r3!, {r2, r6, fp, sp}^
    7510:	72747320 	rsbsvc	r7, r4, #32, 6	@ 0x80000000
    7514:	20746375 	rsbscs	r6, r4, r5, ror r3
    7518:	61685f5f 	cmnvs	r8, pc, asr pc
    751c:	5f006b63 	svcpl	0x00006b63
    7520:	65656e5f 	strbvs	r6, [r5, #-3679]!	@ 0xfffff1a1
    7524:	74705f64 	ldrbtvc	r5, [r0], #-3940	@ 0xfffff09c
    7528:	66696472 			@ <UNDEFINED> instruction: 0x66696472
    752c:	20745f66 	rsbscs	r5, r4, r6, ror #30
    7530:	43535f00 	cmpmi	r3, #0, 30
    7534:	56454c5f 			@ <UNDEFINED> instruction: 0x56454c5f
    7538:	5f324c45 	svcpl	0x00324c45
    753c:	48434143 	stmdami	r3, {r0, r1, r6, r8, lr}^
    7540:	494c5f45 	stmdbmi	ip, {r0, r2, r6, r8, r9, sl, fp, ip, lr}^
    7544:	4953454e 	ldmdbmi	r3, {r1, r2, r3, r6, r8, sl, lr}^
    7548:	3120455a 			@ <UNDEFINED> instruction: 0x3120455a
    754c:	2e003333 	mcrcs	3, 0, r3, cr0, cr3, {1}
    7550:	6f632f2e 	svcvs	0x00632f2e
    7554:	79736572 	ldmdbvc	r3!, {r1, r4, r5, r6, r8, sl, sp, lr}^
    7558:	79732f73 	ldmdbvc	r3!, {r0, r1, r4, r5, r6, r8, r9, sl, fp, sp}^
    755c:	6c616373 	stclvs	3, cr6, [r1], #-460	@ 0xfffffe34
    7560:	732f736c 			@ <UNDEFINED> instruction: 0x732f736c
    7564:	61637379 	cmnvs	r3, r9, ror r3
    7568:	632e6c6c 			@ <UNDEFINED> instruction: 0x632e6c6c
    756c:	43505f00 	cmpmi	r0, #0, 30
    7570:	4d59535f 	ldclmi	3, cr5, [r9, #-380]	@ 0xfffffe84
    7574:	4b4e494c 	blmi	1399aac <__max_heap_size+0x13996ac>
    7578:	58414d5f 	stmdapl	r1, {r0, r1, r2, r3, r4, r6, r8, sl, fp, lr}^
    757c:	00343120 	eorseq	r3, r4, r0, lsr #2
    7580:	5359535f 	cmppl	r9, #2080374785	@ 0x7c000001
    7584:	54505f5f 	ldrbpl	r5, [r0], #-3935	@ 0xfffff0a1
    7588:	41455248 	cmpmi	r5, r8, asr #4
    758c:	50595444 	subspl	r5, r9, r4, asr #8
    7590:	485f5345 	ldmdami	pc, {r0, r2, r6, r8, r9, ip, lr}^	@ <UNPREDICTABLE>
    7594:	5f00205f 	svcpl	0x0000205f
    7598:	52575646 	subspl	r5, r7, #73400320	@ 0x4600000
    759c:	5f455449 	svcpl	0x00455449
    75a0:	535f4e49 	cmppl	pc, #1168	@ 0x490
    75a4:	41455254 	cmpmi	r5, r4, asr r2
    75a8:	204f494d 	subcs	r4, pc, sp, asr #18
    75ac:	525f0031 	subspl	r0, pc, #49	@ 0x31
    75b0:	544e4545 	strbpl	r4, [lr], #-1349	@ 0xfffffabb
    75b4:	494e495f 	stmdbmi	lr, {r0, r1, r2, r3, r4, r6, r8, fp, lr}^
    75b8:	45525f54 	ldrbmi	r5, [r2, #-3924]	@ 0xfffff0ac
    75bc:	56524553 			@ <UNDEFINED> instruction: 0x56524553
    75c0:	365f4445 	ldrbcc	r4, [pc], -r5, asr #8
    75c4:	0020375f 	eoreq	r3, r0, pc, asr r7
    75c8:	5f43535f 	svcpl	0x0043535f
    75cc:	35534258 	ldrbcc	r4, [r3, #-600]	@ 0xfffffda8
    75d0:	42504c5f 	subsmi	r4, r0, #24320	@ 0x5f00
    75d4:	4f5f4749 	svcmi	0x005f4749
    75d8:	49424646 	stmdbmi	r2, {r1, r2, r6, r9, sl, lr}^
    75dc:	535f2047 	cmppl	pc, #71	@ 0x47
    75e0:	37565f43 	ldrbcc	r5, [r6, -r3, asr #30]
    75e4:	42504c5f 	subsmi	r4, r0, #24320	@ 0x5f00
    75e8:	4f5f4749 	svcmi	0x005f4749
    75ec:	49424646 	stmdbmi	r2, {r1, r2, r6, r9, sl, lr}^
    75f0:	5f5f0047 	svcpl	0x005f0047
    75f4:	5f444e45 	svcpl	0x00444e45
    75f8:	4c434544 	stclmi	5, cr4, [r3], {68}	@ 0x44
    75fc:	5f002053 	svcpl	0x00002053
    7600:	565f4353 			@ <UNDEFINED> instruction: 0x565f4353
    7604:	504c5f36 	subpl	r5, ip, r6, lsr pc
    7608:	4f5f3436 	svcmi	0x005f3436
    760c:	34364646 	ldrtcc	r4, [r6], #-1606	@ 0xfffff9ba
    7610:	43535f20 	cmpmi	r3, #32, 30	@ 0x80
    7614:	5f37565f 	svcpl	0x0037565f
    7618:	3436504c 	ldrtcc	r5, [r6], #-76	@ 0xffffffb4
    761c:	46464f5f 			@ <UNDEFINED> instruction: 0x46464f5f
    7620:	5f003436 	svcpl	0x00003436
    7624:	585f4353 	ldmdapl	pc, {r0, r1, r4, r6, r8, r9, lr}^	@ <UNPREDICTABLE>
    7628:	4e45504f 	cdpmi	0, 4, cr5, cr5, cr15, {2}
    762c:	4145525f 	cmpmi	r5, pc, asr r2
    7630:	4d49544c 	stclmi	4, cr5, [r9, #-304]	@ 0xfffffed0
    7634:	48545f45 	ldmdami	r4, {r0, r2, r6, r8, r9, sl, fp, ip, lr}^
    7638:	44414552 	strbmi	r4, [r1], #-1362	@ 0xfffffaae
    763c:	30312053 	eorscc	r2, r1, r3, asr r0
    7640:	535f0032 	cmppl	pc, #50	@ 0x32
    7644:	504f5f43 	subpl	r5, pc, r3, asr #30
    7648:	4d5f4e45 	ldclmi	14, cr4, [pc, #-276]	@ 753c <__max_heap_size+0x713c>
    764c:	34205841 	strtcc	r5, [r0], #-2113	@ 0xfffff7bf
    7650:	705f5f00 	subsvc	r5, pc, r0, lsl #30
    7654:	75675f74 	strbvc	r5, [r7, #-3956]!	@ 0xfffff08c
    7658:	65647261 	strbvs	r7, [r4, #-609]!	@ 0xfffffd9f
    765c:	79625f64 	stmdbvc	r2!, {r2, r5, r6, r8, r9, sl, fp, ip, lr}^
    7660:	20297828 	eorcs	r7, r9, r8, lsr #16
    7664:	6f6c5f5f 	svcvs	0x006c5f5f
    7668:	615f6b63 	cmpvs	pc, r3, ror #22
    766c:	746f6e6e 	strbtvc	r6, [pc], #-3694	@ 7674 <__max_heap_size+0x7274>
    7670:	28657461 	stmdacs	r5!, {r0, r5, r6, sl, ip, sp, lr}^
    7674:	675f7470 			@ <UNDEFINED> instruction: 0x675f7470
    7678:	64726175 	ldrbtvs	r6, [r2], #-373	@ 0xfffffe8b
    767c:	625f6465 	subsvs	r6, pc, #1694498816	@ 0x65000000
    7680:	29782879 	ldmdbcs	r8!, {r0, r3, r4, r5, r6, fp, sp}^
    7684:	5f5f0029 	svcpl	0x005f0029
    7688:	72617567 	rsbvc	r7, r1, #432013312	@ 0x19c00000
    768c:	5f646564 	svcpl	0x00646564
    7690:	78287962 	stmdavc	r8!, {r1, r5, r6, r8, fp, ip, sp, lr}
    7694:	5f5f2029 	svcpl	0x005f2029
    7698:	6b636f6c 	blvs	18e3450 <__max_heap_size+0x18e3050>
    769c:	6e6e615f 	mcrvs	1, 3, r6, cr14, cr15, {2}
    76a0:	7461746f 	strbtvc	r7, [r1], #-1135	@ 0xfffffb91
    76a4:	75672865 	strbvc	r2, [r7, #-2149]!	@ 0xfffff79b
    76a8:	65647261 	strbvs	r7, [r4, #-609]!	@ 0xfffffd9f
    76ac:	79625f64 	stmdbvc	r2!, {r2, r5, r6, r8, r9, sl, fp, ip, lr}^
    76b0:	29297828 	stmdbcs	r9!, {r3, r5, fp, ip, sp, lr}
    76b4:	43505f00 	cmpmi	r0, #0, 30
    76b8:	4345525f 	cmpmi	r5, #-268435451	@ 0xf0000005
    76bc:	434e495f 	cmpmi	lr, #1556480	@ 0x17c000
    76c0:	46585f52 			@ <UNDEFINED> instruction: 0x46585f52
    76c4:	535f5245 	cmppl	pc, #1342177284	@ 0x50000004
    76c8:	20455a49 	subcs	r5, r5, r9, asr #20
    76cc:	5f003631 	svcpl	0x00003631
    76d0:	6d79735f 	ldclvs	3, cr7, [r9, #-380]!	@ 0xfffffe84
    76d4:	6d6f635f 	stclvs	3, cr6, [pc, #-380]!	@ 7560 <__max_heap_size+0x7160>
    76d8:	28746170 	ldmdacs	r4!, {r4, r5, r6, r8, sp, lr}^
    76dc:	2c6d7973 			@ <UNDEFINED> instruction: 0x2c6d7973
    76e0:	6c706d69 	ldclvs	13, cr6, [r0], #-420	@ 0xfffffe5c
    76e4:	7265762c 	rsbvc	r7, r5, #44, 12	@ 0x2c00000
    76e8:	20296469 	eorcs	r6, r9, r9, ror #8
    76ec:	73615f5f 	cmnvc	r1, #380	@ 0x17c
    76f0:	285f5f6d 	ldmdacs	pc, {r0, r2, r3, r5, r6, r8, r9, sl, fp, ip, lr}^	@ <UNPREDICTABLE>
    76f4:	79732e22 	ldmdbvc	r3!, {r1, r5, r9, sl, fp, sp}^
    76f8:	7265766d 	rsbvc	r7, r5, #114294784	@ 0x6d00000
    76fc:	23202220 			@ <UNDEFINED> instruction: 0x23202220
    7700:	6c706d69 	ldclvs	13, cr6, [r0], #-420	@ 0xfffffe5c
    7704:	202c2220 	eorcs	r2, ip, r0, lsr #4
    7708:	73232022 			@ <UNDEFINED> instruction: 0x73232022
    770c:	22206d79 	eorcs	r6, r0, #7744	@ 0x1e40
    7710:	23202240 			@ <UNDEFINED> instruction: 0x23202240
    7714:	69726576 	ldmdbvs	r2!, {r1, r2, r4, r5, r6, r8, sl, sp, lr}^
    7718:	5f002964 	svcpl	0x00002964
    771c:	5f43435f 	svcpl	0x0043435f
    7720:	50505553 	subspl	r5, r0, r3, asr r5
    7724:	5354524f 	cmppl	r4, #-268435452	@ 0xf0000004
    7728:	495f5f5f 	ldmdbmi	pc, {r0, r1, r2, r3, r4, r6, r8, r9, sl, fp, ip, lr}^	@ <UNPREDICTABLE>
    772c:	4e494c4e 	cdpmi	12, 4, cr4, cr9, cr14, {2}
    7730:	205f5f45 	subscs	r5, pc, r5, asr #30
    7734:	5f5f0031 	svcpl	0x005f0031
    7738:	6e697270 	mcrvs	2, 3, r7, cr9, cr0, {3}
    773c:	696c6674 	stmdbvs	ip!, {r2, r4, r5, r6, r9, sl, sp, lr}^
    7740:	6628656b 	strtvs	r6, [r8], -fp, ror #10
    7744:	7261746d 	rsbvc	r7, r1, #1828716544	@ 0x6d000000
    7748:	69662c67 	stmdbvs	r6!, {r0, r1, r2, r5, r6, sl, fp, sp}^
    774c:	76747372 			@ <UNDEFINED> instruction: 0x76747372
    7750:	72617261 	rsbvc	r7, r1, #268435462	@ 0x10000006
    7754:	5f202967 	svcpl	0x00202967
    7758:	7474615f 	ldrbtvc	r6, [r4], #-351	@ 0xfffffea1
    775c:	75626972 	strbvc	r6, [r2, #-2418]!	@ 0xfffff68e
    7760:	5f5f6574 	svcpl	0x005f6574
    7764:	5f5f2828 	svcpl	0x005f2828
    7768:	6d726f66 	ldclvs	15, cr6, [r2, #-408]!	@ 0xfffffe68
    776c:	5f5f7461 	svcpl	0x005f7461
    7770:	5f5f2820 	svcpl	0x005f2820
    7774:	6e697270 	mcrvs	2, 3, r7, cr9, cr0, {3}
    7778:	5f5f6674 	svcpl	0x005f6674
    777c:	6d66202c 	stclvs	0, cr2, [r6, #-176]!	@ 0xffffff50
    7780:	67726174 			@ <UNDEFINED> instruction: 0x67726174
    7784:	6966202c 	stmdbvs	r6!, {r2, r3, r5, sp}^
    7788:	76747372 			@ <UNDEFINED> instruction: 0x76747372
    778c:	72617261 	rsbvc	r7, r1, #268435462	@ 0x10000006
    7790:	29292967 	stmdbcs	r9!, {r0, r1, r2, r5, r6, r8, fp, sp}
    7794:	665f5f00 	ldrbvs	r5, [pc], -r0, lsl #30
    7798:	63747361 	cmnvs	r4, #-2080374783	@ 0x84000001
    779c:	206c6c61 	rsbcs	r6, ip, r1, ror #24
    77a0:	74615f5f 	strbtvc	r5, [r1], #-3935	@ 0xfffff0a1
    77a4:	62697274 	rsbvs	r7, r9, #116, 4	@ 0x40000007
    77a8:	5f657475 	svcpl	0x00657475
    77ac:	5f28285f 	svcpl	0x0028285f
    77b0:	7361665f 	cmnvc	r1, #99614720	@ 0x5f00000
    77b4:	6c616374 	stclvs	3, cr6, [r1], #-464	@ 0xfffffe30
    77b8:	295f5f6c 	ldmdbcs	pc, {r2, r3, r5, r6, r8, r9, sl, fp, ip, lr}^	@ <UNPREDICTABLE>
    77bc:	5f5f0029 	svcpl	0x005f0029
    77c0:	6b636f6c 	blvs	18e3578 <__max_heap_size+0x18e3178>
    77c4:	6e6e615f 	mcrvs	1, 3, r6, cr14, cr15, {2}
    77c8:	7461746f 	strbtvc	r7, [r1], #-1135	@ 0xfffffb91
    77cc:	29782865 	ldmdbcs	r8!, {r0, r2, r5, r6, fp, sp}^
    77d0:	505f0020 	subspl	r0, pc, r0, lsr #32
    77d4:	494c5f43 	stmdbmi	ip, {r0, r1, r6, r8, r9, sl, fp, ip, lr}^
    77d8:	4d5f4b4e 	vldrmi	d20, [pc, #-312]	@ 76a8 <__max_heap_size+0x72a8>
    77dc:	30205841 	eorcc	r5, r0, r1, asr #16
    77e0:	43535f00 	cmpmi	r3, #0, 30
    77e4:	4152545f 	cmpmi	r2, pc, asr r4
    77e8:	38204543 	stmdacc	r0!, {r0, r1, r6, r8, sl, lr}
    77ec:	415f0033 	cmpmi	pc, r3, lsr r0	@ <UNPREDICTABLE>
    77f0:	49525454 	ldmdbmi	r2, {r2, r4, r6, sl, ip, lr}^
    77f4:	45545542 	ldrbmi	r5, [r4, #-1346]	@ 0xfffffabe
    77f8:	74746128 	ldrbtvc	r6, [r4], #-296	@ 0xfffffed8
    77fc:	20297372 	eorcs	r7, r9, r2, ror r3
    7800:	74615f5f 	strbtvc	r5, [r1], #-3935	@ 0xfffff0a1
    7804:	62697274 	rsbvs	r7, r9, #116, 4	@ 0x40000007
    7808:	5f657475 	svcpl	0x00657475
    780c:	6128205f 			@ <UNDEFINED> instruction: 0x6128205f
    7810:	73727474 	cmnvc	r2, #116, 8	@ 0x74000000
    7814:	5f5f0029 	svcpl	0x005f0029
    7818:	52545441 	subspl	r5, r4, #1090519040	@ 0x41000000
    781c:	54554249 	ldrbpl	r4, [r5], #-585	@ 0xfffffdb7
    7820:	4d495f45 	stclmi	15, cr5, [r9, #-276]	@ 0xfffffeec
    7824:	45525550 	ldrbmi	r5, [r2, #-1360]	@ 0xfffffab0
    7828:	5254505f 	subspl	r5, r4, #95	@ 0x5f
    782c:	00205f5f 	eoreq	r5, r0, pc, asr pc
    7830:	6165685f 	cmnvs	r5, pc, asr r8
    7834:	74735f70 	ldrbtvc	r5, [r3], #-3952	@ 0xfffff090
    7838:	00747261 	rsbseq	r7, r4, r1, ror #4
    783c:	5f43535f 	svcpl	0x0043535f
    7840:	57415053 			@ <UNDEFINED> instruction: 0x57415053
    7844:	3537204e 	ldrcc	r2, [r7, #-78]!	@ 0xffffffb2
    7848:	43535f00 	cmpmi	r3, #0, 30
    784c:	504f585f 	subpl	r5, pc, pc, asr r8	@ <UNPREDICTABLE>
    7850:	525f4e45 	subspl	r4, pc, #1104	@ 0x450
    7854:	544c4145 	strbpl	r4, [ip], #-325	@ 0xfffffebb
    7858:	20454d49 	subcs	r4, r5, r9, asr #26
    785c:	5f003939 	svcpl	0x00003939
    7860:	41544552 	cmpmi	r4, r2, asr r5
    7864:	54454752 	strbpl	r4, [r5], #-1874	@ 0xfffff8ae
    7868:	454c4241 	strbmi	r4, [ip, #-577]	@ 0xfffffdbf
    786c:	434f4c5f 	cmpmi	pc, #24320	@ 0x5f00
    7870:	474e494b 	strbmi	r4, [lr, -fp, asr #18]
    7874:	5f003120 	svcpl	0x00003120
    7878:	6e61725f 	mcrvs	2, 3, r7, cr1, cr15, {2}
    787c:	666f6567 	strbtvs	r6, [pc], -r7, ror #10
    7880:	70797428 	rsbsvc	r7, r9, r8, lsr #8
    7884:	74732c65 	ldrbtvc	r2, [r3], #-3173	@ 0xfffff39b
    7888:	2c747261 	ldclcs	2, cr7, [r4], #-388	@ 0xfffffe7c
    788c:	29646e65 	stmdbcs	r4!, {r0, r2, r5, r6, r9, sl, fp, sp, lr}^
    7890:	5f5f2820 	svcpl	0x005f2820
    7894:	7366666f 	cmnvc	r6, #116391936	@ 0x6f00000
    7898:	666f7465 	strbtvs	r7, [pc], -r5, ror #8
    789c:	70797428 	rsbsvc	r7, r9, r8, lsr #8
    78a0:	65202c65 	strvs	r2, [r0, #-3173]!	@ 0xfffff39b
    78a4:	2029646e 	eorcs	r6, r9, lr, ror #8
    78a8:	5f5f202d 	svcpl	0x005f202d
    78ac:	7366666f 	cmnvc	r6, #116391936	@ 0x6f00000
    78b0:	666f7465 	strbtvs	r7, [pc], -r5, ror #8
    78b4:	70797428 	rsbsvc	r7, r9, r8, lsr #8
    78b8:	73202c65 			@ <UNDEFINED> instruction: 0x73202c65
    78bc:	74726174 	ldrbtvc	r6, [r2], #-372	@ 0xfffffe8c
    78c0:	53002929 	tstpl	r0, #671744	@ 0xa4000
    78c4:	5752495f 			@ <UNDEFINED> instruction: 0x5752495f
    78c8:	28204f58 	stmdacs	r0!, {r3, r4, r6, r8, r9, sl, fp, lr}
    78cc:	52495f53 	subpl	r5, r9, #332	@ 0x14c
    78d0:	2048544f 	subcs	r5, r8, pc, asr #8
    78d4:	5f53207c 	svcpl	0x0053207c
    78d8:	544f5749 	strbpl	r5, [pc], #-1865	@ 78e0 <__max_heap_size+0x74e0>
    78dc:	207c2048 	rsbscs	r2, ip, r8, asr #32
    78e0:	58495f53 	stmdapl	r9, {r0, r1, r4, r6, r8, r9, sl, fp, ip, lr}^
    78e4:	2948544f 	stmdbcs	r8, {r0, r1, r2, r3, r6, sl, ip, lr}^
    78e8:	6e5f5f00 	cdpvs	15, 5, cr5, cr15, cr0, {0}
    78ec:	5f646565 	svcpl	0x00646565
    78f0:	64727470 	ldrbtvs	r7, [r2], #-1136	@ 0xfffffb90
    78f4:	5f666669 	svcpl	0x00666669
    78f8:	535f0074 	cmppl	pc, #116	@ 0x74
    78fc:	4f495f43 	svcmi	0x00495f43
    7900:	414d5f56 	cmpmi	sp, r6, asr pc
    7904:	36362058 			@ <UNDEFINED> instruction: 0x36362058
    7908:	554e5f00 	strbpl	r5, [lr, #-3840]	@ 0xfffff100
    790c:	30204c4c 	eorcc	r4, r0, ip, asr #24
    7910:	665f5f00 	ldrbvs	r5, [pc], -r0, lsl #30
    7914:	6178656c 	cmnvs	r8, ip, ror #10
    7918:	5b207272 	blpl	8242e8 <__max_heap_size+0x823ee8>
    791c:	5f005d30 	svcpl	0x00005d30
    7920:	415f4353 	cmpmi	pc, r3, asr r3	@ <UNPREDICTABLE>
    7924:	59485056 	stmdbpl	r8, {r1, r2, r4, r6, ip, lr}^
    7928:	41505f53 	cmpmi	r0, r3, asr pc
    792c:	20534547 	subscs	r4, r3, r7, asr #10
    7930:	5f003231 	svcpl	0x00003231
    7934:	4e454552 	mcrmi	5, 2, r4, cr5, cr2, {2}
    7938:	48435f54 	stmdami	r3, {r2, r4, r6, r8, r9, sl, fp, ip, lr}^
    793c:	5f4b4345 	svcpl	0x004b4345
    7940:	49524556 	ldmdbmi	r2, {r1, r2, r4, r6, r8, sl, lr}^
    7944:	31205946 			@ <UNDEFINED> instruction: 0x31205946
    7948:	72756300 	rsbsvc	r6, r5, #0, 6
    794c:	65685f72 	strbvs	r5, [r8, #-3954]!	@ 0xfffff08e
    7950:	655f7061 	ldrbvs	r7, [pc, #-97]	@ 78f7 <__max_heap_size+0x74f7>
    7954:	7000646e 	andvc	r6, r0, lr, ror #8
    7958:	5f766572 	svcpl	0x00766572
    795c:	70616568 	rsbvc	r6, r1, r8, ror #10
    7960:	646e655f 	strbtvs	r6, [lr], #-1375	@ 0xfffffaa1
    7964:	45525f00 	ldrbmi	r5, [r2, #-3840]	@ 0xfffff100
    7968:	5f544e45 	svcpl	0x00544e45
    796c:	54494e49 	strbpl	r4, [r9], #-3657	@ 0xfffff1b7
    7970:	5345525f 	cmppl	r5, #-268435451	@ 0xf0000005
    7974:	45565245 	ldrbmi	r5, [r6, #-581]	@ 0xfffffdbb
    7978:	20325f44 	eorscs	r5, r2, r4, asr #30
    797c:	45445f00 	strbmi	r5, [r4, #-3840]	@ 0xfffff100
    7980:	5f545f56 	svcpl	0x00545f56
    7984:	4c434544 	stclmi	5, cr4, [r3], {68}	@ 0x44
    7988:	44455241 	strbmi	r5, [r5], #-577	@ 0xfffffdbf
    798c:	535f0020 	cmppl	pc, #32
    7990:	48545f43 	ldmdami	r4, {r0, r1, r6, r8, r9, sl, fp, ip, lr}^
    7994:	44414552 	strbmi	r4, [r1], #-1362	@ 0xfffffaae
    7998:	4952505f 	ldmdbmi	r2, {r0, r1, r2, r3, r4, r6, ip, lr}^
    799c:	5449524f 	strbpl	r5, [r9], #-591	@ 0xfffffdb1
    79a0:	43535f59 	cmpmi	r3, #356	@ 0x164
    79a4:	55444548 	strbpl	r4, [r4, #-1352]	@ 0xfffffab8
    79a8:	474e494c 	strbmi	r4, [lr, -ip, asr #18]
    79ac:	00353420 	eorseq	r3, r5, r0, lsr #8
    79b0:	434f4c5f 	cmpmi	pc, #24320	@ 0x5f00
    79b4:	45525f4b 	ldrbmi	r5, [r2, #-3915]	@ 0xfffff0b5
    79b8:	53525543 	cmppl	r2, #281018368	@ 0x10c00000
    79bc:	5f455649 	svcpl	0x00455649
    79c0:	4c5f2054 	ldclmi	0, cr2, [pc], {84}	@ 0x54
    79c4:	5f4b434f 	svcpl	0x004b434f
    79c8:	535f0054 	cmppl	pc, #84	@ 0x54
    79cc:	48545f43 	ldmdami	r4, {r0, r1, r6, r8, r9, sl, fp, ip, lr}^
    79d0:	44414552 	strbmi	r4, [r1], #-1362	@ 0xfffffaae
    79d4:	4952505f 	ldmdbmi	r2, {r0, r1, r2, r3, r4, r6, ip, lr}^
    79d8:	45435f4f 	strbmi	r5, [r3, #-3919]	@ 0xfffff0b1
    79dc:	4e494c49 	cdpmi	12, 4, cr4, cr9, cr9, {2}
    79e0:	535f2047 	cmppl	pc, #71	@ 0x47
    79e4:	48545f43 	ldmdami	r4, {r0, r1, r6, r8, r9, sl, fp, ip, lr}^
    79e8:	44414552 	strbmi	r4, [r1], #-1362	@ 0xfffffaae
    79ec:	4952505f 	ldmdbmi	r2, {r0, r1, r2, r3, r4, r6, ip, lr}^
    79f0:	52505f4f 	subspl	r5, r0, #316	@ 0x13c
    79f4:	4345544f 	cmpmi	r5, #1325400064	@ 0x4f000000
    79f8:	54530054 	ldrbpl	r0, [r3], #-84	@ 0xffffffac
    79fc:	52524544 	subspl	r4, r2, #68, 10	@ 0x11000000
    7a00:	4c49465f 	stclmi	6, cr4, [r9], {95}	@ 0x5f
    7a04:	204f4e45 	subcs	r4, pc, r5, asr #28
    7a08:	5f5f0032 	svcpl	0x005f0032
    7a0c:	6f727473 	svcvs	0x00727473
    7a10:	725f676e 	subsvc	r6, pc, #28835840	@ 0x1b80000
    7a14:	72656665 	rsbvc	r6, r5, #105906176	@ 0x6500000
    7a18:	65636e65 	strbvs	r6, [r3, #-3685]!	@ 0xfffff19b
    7a1c:	6d797328 	ldclvs	3, cr7, [r9, #-160]!	@ 0xffffff60
    7a20:	696c612c 	stmdbvs	ip!, {r2, r3, r5, r8, sp, lr}^
    7a24:	79737361 	ldmdbvc	r3!, {r0, r5, r6, r8, r9, ip, sp, lr}^
    7a28:	6520296d 	strvs	r2, [r0, #-2413]!	@ 0xfffff693
    7a2c:	72657478 	rsbvc	r7, r5, #120, 8	@ 0x78000000
    7a30:	5f5f206e 	svcpl	0x005f206e
    7a34:	65707974 	ldrbvs	r7, [r0, #-2420]!	@ 0xfffff68c
    7a38:	2820666f 	stmdacs	r0!, {r0, r1, r2, r3, r5, r6, r9, sl, sp, lr}
    7a3c:	296d7973 	stmdbcs	sp!, {r0, r1, r4, r5, r6, r8, fp, ip, sp, lr}^
    7a40:	696c6120 	stmdbvs	ip!, {r5, r8, sp, lr}^
    7a44:	79737361 	ldmdbvc	r3!, {r0, r5, r6, r8, r9, ip, sp, lr}^
    7a48:	5f5f206d 	svcpl	0x005f206d
    7a4c:	72747461 	rsbsvc	r7, r4, #1627389952	@ 0x61000000
    7a50:	74756269 	ldrbtvc	r6, [r5], #-617	@ 0xfffffd97
    7a54:	205f5f65 	subscs	r5, pc, r5, ror #30
    7a58:	5f5f2828 	svcpl	0x005f2828
    7a5c:	61696c61 	cmnvs	r9, r1, ror #24
    7a60:	205f5f73 	subscs	r5, pc, r3, ror pc	@ <UNPREDICTABLE>
    7a64:	79732328 	ldmdbvc	r3!, {r3, r5, r8, r9, sp}^
    7a68:	2929296d 	stmdbcs	r9!, {r0, r2, r3, r5, r6, r8, fp, sp}
    7a6c:	755f5f00 	ldrbvc	r5, [pc, #-3840]	@ 6b74 <__max_heap_size+0x6774>
    7a70:	6165726e 	cmnvs	r5, lr, ror #4
    7a74:	62616863 	rsbvs	r6, r1, #6488064	@ 0x630000
    7a78:	2928656c 	stmdbcs	r8!, {r2, r3, r5, r6, r8, sl, sp, lr}
    7a7c:	625f5f20 	subsvs	r5, pc, #32, 30	@ 0x80
    7a80:	746c6975 	strbtvc	r6, [ip], #-2421	@ 0xfffff68b
    7a84:	755f6e69 	ldrbvc	r6, [pc, #-3689]	@ 6c23 <__max_heap_size+0x6823>
    7a88:	6165726e 	cmnvs	r5, lr, ror #4
    7a8c:	62616863 	rsbvs	r6, r1, #6488064	@ 0x630000
    7a90:	2928656c 	stmdbcs	r8!, {r2, r3, r5, r6, r8, sl, sp, lr}
    7a94:	54415f00 	strbpl	r5, [r1], #-3840	@ 0xfffff100
    7a98:	54495845 	strbpl	r5, [r9], #-2117	@ 0xfffff7bb
    7a9c:	5a49535f 	bpl	125c820 <__max_heap_size+0x125c420>
    7aa0:	32332045 	eorscc	r2, r3, #69	@ 0x45
    7aa4:	5f747300 	svcpl	0x00747300
    7aa8:	6d697463 	stclvs	4, cr7, [r9, #-396]!	@ 0xfffffe74
    7aac:	74732065 	ldrbtvc	r2, [r3], #-101	@ 0xffffff9b
    7ab0:	6974635f 	ldmdbvs	r4!, {r0, r1, r2, r3, r4, r6, r8, r9, sp, lr}^
    7ab4:	76742e6d 	ldrbtvc	r2, [r4], -sp, ror #28
    7ab8:	6365735f 	cmnvs	r5, #2080374785	@ 0x7c000001
    7abc:	53555f00 	cmppl	r5, #0, 30
    7ac0:	4e4f4345 	cdpmi	3, 4, cr4, cr15, cr5, {2}
    7ac4:	545f5344 	ldrbpl	r5, [pc], #-836	@ 7acc <__max_heap_size+0x76cc>
    7ac8:	4345445f 	cmpmi	r5, #1593835520	@ 0x5f000000
    7acc:	4552414c 	ldrbmi	r4, [r2, #-332]	@ 0xfffffeb4
    7ad0:	5f002044 	svcpl	0x00002044
    7ad4:	554e475f 	strbpl	r4, [lr, #-1887]	@ 0xfffff8a1
    7ad8:	4b494c43 	blmi	125abec <__max_heap_size+0x125a7ec>
    7adc:	53415f45 	cmppl	r1, #276	@ 0x114
    7ae0:	0033204d 	eorseq	r2, r3, sp, asr #32
    7ae4:	63735f5f 	cmnvs	r3, #380	@ 0x17c
    7ae8:	6c666e61 	stclvs	14, cr6, [r6], #-388	@ 0xfffffe7c
    7aec:	28656b69 	stmdacs	r5!, {r0, r3, r5, r6, r8, r9, fp, sp, lr}^
    7af0:	61746d66 	cmnvs	r4, r6, ror #26
    7af4:	662c6772 			@ <UNDEFINED> instruction: 0x662c6772
    7af8:	74737269 	ldrbtvc	r7, [r3], #-617	@ 0xfffffd97
    7afc:	61726176 	cmnvs	r2, r6, ror r1
    7b00:	20296772 	eorcs	r6, r9, r2, ror r7
    7b04:	74615f5f 	strbtvc	r5, [r1], #-3935	@ 0xfffff0a1
    7b08:	62697274 	rsbvs	r7, r9, #116, 4	@ 0x40000007
    7b0c:	5f657475 	svcpl	0x00657475
    7b10:	5f28285f 	svcpl	0x0028285f
    7b14:	726f665f 	rsbvc	r6, pc, #99614720	@ 0x5f00000
    7b18:	5f74616d 	svcpl	0x0074616d
    7b1c:	5f28205f 	svcpl	0x0028205f
    7b20:	6163735f 	cmnvs	r3, pc, asr r3
    7b24:	5f5f666e 	svcpl	0x005f666e
    7b28:	6d66202c 	stclvs	0, cr2, [r6, #-176]!	@ 0xffffff50
    7b2c:	67726174 			@ <UNDEFINED> instruction: 0x67726174
    7b30:	6966202c 	stmdbvs	r6!, {r2, r3, r5, sp}^
    7b34:	76747372 			@ <UNDEFINED> instruction: 0x76747372
    7b38:	72617261 	rsbvc	r7, r1, #268435462	@ 0x10000006
    7b3c:	29292967 	stmdbcs	r9!, {r0, r1, r2, r5, r6, r8, fp, sp}
    7b40:	495f5300 	ldmdbmi	pc, {r8, r9, ip, lr}^	@ <UNPREDICTABLE>
    7b44:	4b4e4c46 	blmi	139ac64 <__max_heap_size+0x139a864>
    7b48:	46495f20 	strbmi	r5, [r9], -r0, lsr #30
    7b4c:	004b4e4c 	subeq	r4, fp, ip, asr #28
    7b50:	5359535f 	cmppl	r9, #2080374785	@ 0x7c000001
    7b54:	59545f5f 	ldmdbpl	r4, {r0, r1, r2, r3, r4, r6, r8, r9, sl, fp, ip, lr}^
    7b58:	5f534550 	svcpl	0x00534550
    7b5c:	5f002048 	svcpl	0x00002048
    7b60:	6e695f5f 	mcrvs	15, 3, r5, cr9, cr15, {2}
    7b64:	63775f74 	cmnvs	r7, #116, 30	@ 0x1d0
    7b68:	5f726168 	svcpl	0x00726168
    7b6c:	20685f74 	rsbcs	r5, r8, r4, ror pc
    7b70:	675f5f00 	ldrbvs	r5, [pc, -r0, lsl #30]
    7b74:	745f6469 	ldrbvc	r6, [pc], #-1129	@ 7b7c <__max_heap_size+0x777c>
    7b78:	45525f00 	ldrbmi	r5, [r2, #-3840]	@ 0xfffff100
    7b7c:	5f544e45 	svcpl	0x00544e45
    7b80:	42545643 	subsmi	r5, r4, #70254592	@ 0x4300000
    7b84:	5f284655 	svcpl	0x00284655
    7b88:	29727470 	ldmdbcs	r2!, {r4, r5, r6, sl, ip, sp, lr}^
    7b8c:	5f282820 	svcpl	0x00282820
    7b90:	29727470 	ldmdbcs	r2!, {r4, r5, r6, sl, ip, sp, lr}^
    7b94:	635f3e2d 	cmpvs	pc, #720	@ 0x2d0
    7b98:	75627476 	strbvc	r7, [r2, #-1142]!	@ 0xfffffb8a
    7b9c:	5f002966 	svcpl	0x00002966
    7ba0:	554e475f 	strbpl	r4, [lr, #-1887]	@ 0xfffff8a1
    7ba4:	4b494c43 	blmi	125acb8 <__max_heap_size+0x125a8b8>
    7ba8:	55425f45 	strbpl	r5, [r2, #-3909]	@ 0xfffff0bb
    7bac:	49544c49 	ldmdbmi	r4, {r0, r3, r6, sl, fp, lr}^
    7bb0:	41565f4e 	cmpmi	r6, lr, asr #30
    7bb4:	53494c41 	cmppl	r9, #16640	@ 0x4100
    7bb8:	00312054 	eorseq	r2, r1, r4, asr r0
    7bbc:	494c455f 	stmdbmi	ip, {r0, r1, r2, r3, r4, r6, r8, sl, lr}^
    7bc0:	4c424144 	stclmi	1, cr4, [r2], {68}	@ 0x44
    7bc4:	4e495f45 	cdpmi	15, 4, cr5, cr9, cr5, {2}
    7bc8:	454e494c 	strbmi	r4, [lr, #-2380]	@ 0xfffff6b4
    7bcc:	61747320 	cmnvs	r4, r0, lsr #6
    7bd0:	20636974 	rsbcs	r6, r3, r4, ror r9
    7bd4:	6e695f5f 	mcrvs	15, 3, r5, cr9, cr15, {2}
    7bd8:	656e696c 	strbvs	r6, [lr, #-2412]!	@ 0xfffff694
    7bdc:	73005f5f 	tstvc	r0, #380	@ 0x17c
    7be0:	6f6d5f74 	svcvs	0x006d5f74
    7be4:	5f006564 	svcpl	0x00006564
    7be8:	6469755f 	strbtvs	r7, [r9], #-1375	@ 0xfffffaa1
    7bec:	5300745f 	tstpl	r0, #1593835520	@ 0x5f000000
    7bf0:	5557495f 	ldrbpl	r4, [r7, #-2399]	@ 0xfffff6a1
    7bf4:	30205253 	eorcc	r5, r0, r3, asr r2
    7bf8:	32303030 	eorscc	r3, r0, #48	@ 0x30
    7bfc:	5f003030 	svcpl	0x00003030
    7c00:	6e6f4c5f 	mcrvs	12, 3, r4, cr15, cr15, {2}
    7c04:	6f6c2067 	svcvs	0x006c2067
    7c08:	5f00676e 	svcpl	0x0000676e
    7c0c:	4e5f4353 	mrcmi	3, 2, r4, cr15, cr3, {2}
    7c10:	554f5247 	strbpl	r5, [pc, #-583]	@ 79d1 <__max_heap_size+0x75d1>
    7c14:	4d5f5350 	ldclmi	3, cr5, [pc, #-320]	@ 7adc <__max_heap_size+0x76dc>
    7c18:	33205841 			@ <UNDEFINED> instruction: 0x33205841
    7c1c:	705f5f00 	subsvc	r5, pc, r0, lsl #30
    7c20:	20657275 	rsbcs	r7, r5, r5, ror r2
    7c24:	74615f5f 	strbtvc	r5, [r1], #-3935	@ 0xfffff0a1
    7c28:	62697274 	rsbvs	r7, r9, #116, 4	@ 0x40000007
    7c2c:	5f657475 	svcpl	0x00657475
    7c30:	5f28285f 	svcpl	0x0028285f
    7c34:	7275705f 	rsbsvc	r7, r5, #95	@ 0x5f
    7c38:	295f5f65 	ldmdbcs	pc, {r0, r2, r5, r6, r8, r9, sl, fp, ip, lr}^	@ <UNPREDICTABLE>
    7c3c:	475f0029 	ldrbmi	r0, [pc, -r9, lsr #32]
    7c40:	535f4343 	cmppl	pc, #201326593	@ 0xc000001
    7c44:	5f455a49 	svcpl	0x00455a49
    7c48:	5f002054 	svcpl	0x00002054
    7c4c:	5f43435f 	svcpl	0x0043435f
    7c50:	50505553 	subspl	r5, r0, r3, asr r5
    7c54:	5354524f 	cmppl	r4, #-268435452	@ 0xf0000004
    7c58:	5241575f 	subpl	r5, r1, #24903680	@ 0x17c0000
    7c5c:	474e494e 	strbmi	r4, [lr, -lr, asr #18]
    7c60:	53003120 	tstpl	r0, #32, 2
    7c64:	5653495f 			@ <UNDEFINED> instruction: 0x5653495f
    7c68:	30205854 	eorcc	r5, r0, r4, asr r8
    7c6c:	30313030 	eorscc	r3, r1, r0, lsr r0
    7c70:	5f003030 	svcpl	0x00003030
    7c74:	43575f54 	cmpmi	r7, #84, 30	@ 0x150
    7c78:	5f524148 	svcpl	0x00524148
    7c7c:	525f0020 	subspl	r0, pc, #32
    7c80:	544e4545 	strbpl	r4, [lr], #-1349	@ 0xfffffabb
    7c84:	4548435f 	strbmi	r4, [r8, #-863]	@ 0xfffffca1
    7c88:	525f4b43 	subspl	r4, pc, #68608	@ 0x10c00
    7c8c:	34444e41 	strbcc	r4, [r4], #-3649	@ 0xfffff1bf
    7c90:	74702838 	ldrbtvc	r2, [r0], #-2104	@ 0xfffff7c8
    7c94:	00202972 	eoreq	r2, r0, r2, ror r9
    7c98:	5f43505f 	svcpl	0x0043505f
    7c9c:	59535f32 	ldmdbpl	r3, {r1, r4, r5, r8, r9, sl, fp, ip, lr}^
    7ca0:	4e494c4d 	cdpmi	12, 4, cr4, cr9, cr13, {2}
    7ca4:	3120534b 			@ <UNDEFINED> instruction: 0x3120534b
    7ca8:	425f0033 	subsmi	r0, pc, #51	@ 0x33
    7cac:	575f4453 			@ <UNDEFINED> instruction: 0x575f4453
    7cb0:	52414843 	subpl	r4, r1, #4390912	@ 0x430000
    7cb4:	005f545f 	subseq	r5, pc, pc, asr r4	@ <UNPREDICTABLE>
    7cb8:	65725f5f 	ldrbvs	r5, [r2, #-3935]!	@ 0xfffff0a1
    7cbc:	69727473 	ldmdbvs	r2!, {r0, r1, r4, r5, r6, sl, ip, sp, lr}^
    7cc0:	615f7463 	cmpvs	pc, r3, ror #8
    7cc4:	72207272 	eorvc	r7, r0, #536870919	@ 0x20000007
    7cc8:	72747365 	rsbsvc	r7, r4, #-1811939327	@ 0x94000001
    7ccc:	00746369 	rsbseq	r6, r4, r9, ror #6
    7cd0:	5f43505f 	svcpl	0x0043505f
    7cd4:	5f58414d 	svcpl	0x0058414d
    7cd8:	4f4e4143 	svcmi	0x004e4143
    7cdc:	0031204e 	eorseq	r2, r1, lr, asr #32
    7ce0:	4d49545f 	stclmi	4, cr5, [r9, #-380]	@ 0xfffffe84
    7ce4:	545f5245 	ldrbpl	r5, [pc], #-581	@ 7cec <__max_heap_size+0x78ec>
    7ce8:	4345445f 	cmpmi	r5, #1593835520	@ 0x5f000000
    7cec:	4552414c 	ldrbmi	r4, [r2, #-332]	@ 0xfffffeb4
    7cf0:	53002044 	tstpl	r0, #68	@ 0x44
    7cf4:	4446495f 	strbmi	r4, [r6], #-2399	@ 0xfffff6a1
    7cf8:	5f205249 	svcpl	0x00205249
    7cfc:	49444649 	stmdbmi	r4, {r0, r3, r6, r9, sl, lr}^
    7d00:	5f5f0052 	svcpl	0x005f0052
    7d04:	43554e47 	cmpmi	r5, #1136	@ 0x470
    7d08:	454b494c 	strbmi	r4, [fp, #-2380]	@ 0xfffff6b4
    7d0c:	4955425f 	ldmdbmi	r5, {r0, r1, r2, r3, r4, r6, r9, lr}^
    7d10:	4e49544c 	cdpmi	4, 4, cr5, cr9, cr12, {2}
    7d14:	4d454d5f 	stclmi	13, cr4, [r5, #-380]	@ 0xfffffe84
    7d18:	20595043 	subscs	r5, r9, r3, asr #32
    7d1c:	5f5f0031 	svcpl	0x005f0031
    7d20:	4f564544 	svcmi	0x00564544
    7d24:	4954414c 	ldmdbmi	r4, {r2, r3, r6, r8, lr}^
    7d28:	7428454c 	strtvc	r4, [r8], #-1356	@ 0xfffffab4
    7d2c:	2c657079 	stclcs	0, cr7, [r5], #-484	@ 0xfffffe1c
    7d30:	29726176 	ldmdbcs	r2!, {r1, r2, r4, r5, r6, r8, sp, lr}^
    7d34:	74282820 	strtvc	r2, [r8], #-2080	@ 0xfffff7e0
    7d38:	29657079 	stmdbcs	r5!, {r0, r3, r4, r5, r6, ip, sp, lr}^
    7d3c:	755f5f28 	ldrbvc	r5, [pc, #-3880]	@ 6e1c <__max_heap_size+0x6a1c>
    7d40:	70746e69 	rsbsvc	r6, r4, r9, ror #28
    7d44:	745f7274 	ldrbvc	r7, [pc], #-628	@ 7d4c <__max_heap_size+0x794c>
    7d48:	6f762829 	svcvs	0x00762829
    7d4c:	6974616c 	ldmdbvs	r4!, {r2, r3, r5, r6, r8, sp, lr}^
    7d50:	7620656c 	strtvc	r6, [r0], -ip, ror #10
    7d54:	2064696f 	rsbcs	r6, r4, pc, ror #18
    7d58:	7628292a 	strtvc	r2, [r8], -sl, lsr #18
    7d5c:	29297261 	stmdbcs	r9!, {r0, r5, r6, r9, ip, sp, lr}
    7d60:	43535f00 	cmpmi	r3, #0, 30
    7d64:	4952505f 	ldmdbmi	r2, {r0, r1, r2, r3, r4, r6, ip, lr}^
    7d68:	5449524f 	strbpl	r5, [r9], #-591	@ 0xfffffdb1
    7d6c:	43535f59 	cmpmi	r3, #356	@ 0x164
    7d70:	55444548 	strbpl	r4, [r4, #-1352]	@ 0xfffffab8
    7d74:	474e494c 	strbmi	r4, [lr, -ip, asr #18]
    7d78:	31303120 	teqcc	r0, r0, lsr #2
    7d7c:	43535f00 	cmpmi	r3, #0, 30
    7d80:	5248545f 	subpl	r5, r8, #1593835520	@ 0x5f000000
    7d84:	5f444145 	svcpl	0x00444145
    7d88:	5359454b 	cmppl	r9, #314572800	@ 0x12c00000
    7d8c:	58414d5f 	stmdapl	r1, {r0, r1, r2, r3, r4, r6, r8, sl, fp, lr}^
    7d90:	00383320 	eorseq	r3, r8, r0, lsr #6
    7d94:	656e5f5f 	strbvs	r5, [lr, #-3935]!	@ 0xfffff0a1
    7d98:	775f6465 	ldrbvc	r6, [pc, -r5, ror #8]
    7d9c:	5f746e69 	svcpl	0x00746e69
    7da0:	5f002074 	svcpl	0x00002074
    7da4:	4a5f4353 	bmi	17d8af8 <__max_heap_size+0x17d86f8>
    7da8:	435f424f 	cmpmi	pc, #-268435452	@ 0xf0000004
    7dac:	52544e4f 	subspl	r4, r4, #1264	@ 0x4f0
    7db0:	35204c4f 	strcc	r4, [r0, #-3151]!	@ 0xfffff3b1
    7db4:	43535f00 	cmpmi	r3, #0, 30
    7db8:	5f514d5f 	svcpl	0x00514d5f
    7dbc:	4e45504f 	cdpmi	0, 4, cr5, cr5, cr15, {2}
    7dc0:	58414d5f 	stmdapl	r1, {r0, r1, r2, r3, r4, r6, r8, sl, fp, lr}^
    7dc4:	00333120 	eorseq	r3, r3, r0, lsr #2
    7dc8:	5f43535f 	svcpl	0x0043535f
    7dcc:	414c4544 	cmpmi	ip, r4, asr #10
    7dd0:	4d495459 	stclmi	4, cr5, [r9, #-356]	@ 0xfffffe9c
    7dd4:	4d5f5245 	ldclmi	2, cr5, [pc, #-276]	@ 7cc8 <__max_heap_size+0x78c8>
    7dd8:	33205841 			@ <UNDEFINED> instruction: 0x33205841
    7ddc:	535f0037 	cmppl	pc, #55	@ 0x37
    7de0:	48545f43 	ldmdami	r4, {r0, r1, r6, r8, r9, sl, fp, ip, lr}^
    7de4:	44414552 	strbmi	r4, [r1], #-1362	@ 0xfffffaae
    7de8:	4641535f 			@ <UNDEFINED> instruction: 0x4641535f
    7dec:	55465f45 	strbpl	r5, [r6, #-3909]	@ 0xfffff0bb
    7df0:	4954434e 	ldmdbmi	r4, {r1, r2, r3, r6, r8, r9, lr}^
    7df4:	20534e4f 	subscs	r4, r3, pc, asr #28
    7df8:	6e003934 			@ <UNDEFINED> instruction: 0x6e003934
    7dfc:	64667765 	strbtvs	r7, [r6], #-1893	@ 0xfffff89b
    7e00:	435f5f00 	cmpmi	pc, #0, 30
    7e04:	55535f43 	ldrbpl	r5, [r3, #-3907]	@ 0xfffff0bd
    7e08:	524f5050 	subpl	r5, pc, #80	@ 0x50
    7e0c:	5f5f5354 	svcpl	0x005f5354
    7e10:	4e55465f 	mrcmi	6, 2, r4, cr5, cr15, {2}
    7e14:	205f5f43 	subscs	r5, pc, r3, asr #30
    7e18:	495f0031 	ldmdbmi	pc, {r0, r4, r5}^	@ <UNPREDICTABLE>
    7e1c:	20544d46 	subscs	r4, r4, r6, asr #26
    7e20:	30373130 	eorscc	r3, r7, r0, lsr r1
    7e24:	00303030 	eorseq	r3, r0, r0, lsr r0
    7e28:	6f6c5f5f 	svcvs	0x006c5f5f
    7e2c:	645f676e 	ldrbvs	r6, [pc], #-1902	@ 7e34 <__max_heap_size+0x7a34>
    7e30:	6c62756f 	stclvs	5, cr7, [r2], #-444	@ 0xfffffe44
    7e34:	20745f65 	rsbscs	r5, r4, r5, ror #30
    7e38:	676e6f6c 	strbvs	r6, [lr, -ip, ror #30]!
    7e3c:	756f6420 	strbvc	r6, [pc, #-1056]!	@ 7a24 <__max_heap_size+0x7624>
    7e40:	00656c62 	rsbeq	r6, r5, r2, ror #24
    7e44:	4545525f 	strbmi	r5, [r5, #-607]	@ 0xfffffda1
    7e48:	575f544e 	ldrbpl	r5, [pc, -lr, asr #8]
    7e4c:	4f545243 	svcmi	0x00545243
    7e50:	535f424d 	cmppl	pc, #-805306364	@ 0xd0000004
    7e54:	45544154 	ldrbmi	r4, [r4, #-340]	@ 0xfffffeac
    7e58:	72747028 	rsbsvc	r7, r4, #40	@ 0x28
    7e5c:	28282029 	stmdacs	r8!, {r0, r3, r5, sp}
    7e60:	29727470 	ldmdbcs	r2!, {r4, r5, r6, sl, ip, sp, lr}^
    7e64:	6e5f3e2d 	cdpvs	14, 5, cr3, cr15, cr13, {1}
    7e68:	5f2e7765 	svcpl	0x002e7765
    7e6c:	6e656572 	mcrvs	5, 3, r6, cr5, cr2, {3}
    7e70:	775f2e74 			@ <UNDEFINED> instruction: 0x775f2e74
    7e74:	6f747263 	svcvs	0x00747263
    7e78:	735f626d 	cmpvc	pc, #-805306362	@ 0xd0000006
    7e7c:	65746174 	ldrbvs	r6, [r4, #-372]!	@ 0xfffffe8c
    7e80:	535f0029 	cmppl	pc, #41	@ 0x29
    7e84:	43455355 	cmpmi	r5, #1409286145	@ 0x54000001
    7e88:	53444e4f 	cmppl	r4, #1264	@ 0x4f0
    7e8c:	445f545f 	ldrbmi	r5, [pc], #-1119	@ 7e94 <__max_heap_size+0x7a94>
    7e90:	414c4345 	cmpmi	ip, r5, asr #6
    7e94:	20444552 	subcs	r4, r4, r2, asr r5
    7e98:	43535f00 	cmpmi	r3, #0, 30
    7e9c:	5342585f 	cmppl	r2, #6225920	@ 0x5f0000
    7ea0:	4c495f35 	stclmi	15, cr5, [r9], {53}	@ 0x35
    7ea4:	5f323350 	svcpl	0x00323350
    7ea8:	3346464f 	cmpcc	r6, #82837504	@ 0x4f00000
    7eac:	535f2032 	cmppl	pc, #50	@ 0x32
    7eb0:	37565f43 	ldrbcc	r5, [r6, -r3, asr #30]
    7eb4:	504c495f 	subpl	r4, ip, pc, asr r9
    7eb8:	4f5f3233 	svcmi	0x005f3233
    7ebc:	32334646 	eorscc	r4, r3, #73400320	@ 0x4600000
    7ec0:	665f5f00 	ldrbvs	r5, [pc], -r0, lsl #30
    7ec4:	616d726f 	cmnvs	sp, pc, ror #4
    7ec8:	72615f74 	rsbvc	r5, r1, #116, 30	@ 0x1d0
    7ecc:	6d662867 	stclvs	8, cr2, [r6, #-412]!	@ 0xfffffe64
    7ed0:	67726174 			@ <UNDEFINED> instruction: 0x67726174
    7ed4:	5f5f2029 	svcpl	0x005f2029
    7ed8:	72747461 	rsbsvc	r7, r4, #1627389952	@ 0x61000000
    7edc:	74756269 	ldrbtvc	r6, [r5], #-617	@ 0xfffffd97
    7ee0:	285f5f65 	ldmdacs	pc, {r0, r2, r5, r6, r8, r9, sl, fp, ip, lr}^	@ <UNPREDICTABLE>
    7ee4:	665f5f28 	ldrbvs	r5, [pc], -r8, lsr #30
    7ee8:	616d726f 	cmnvs	sp, pc, ror #4
    7eec:	72615f74 	rsbvc	r5, r1, #116, 30	@ 0x1d0
    7ef0:	205f5f67 	subscs	r5, pc, r7, ror #30
    7ef4:	746d6628 	strbtvc	r6, [sp], #-1576	@ 0xfffff9d8
    7ef8:	29677261 	stmdbcs	r7!, {r0, r5, r6, r9, ip, sp, lr}^
    7efc:	5f002929 	svcpl	0x00002929
    7f00:	6d6f635f 	stclvs	3, cr6, [pc, #-380]!	@ 7d8c <__max_heap_size+0x798c>
    7f04:	656c6970 	strbvs	r6, [ip, #-2416]!	@ 0xfffff690
    7f08:	656d5f72 	strbvs	r5, [sp, #-3954]!	@ 0xfffff08e
    7f0c:	7261626d 	rsbvc	r6, r1, #-805306362	@ 0xd0000006
    7f10:	5f202928 	svcpl	0x00202928
    7f14:	6d73615f 	ldclvs	1, cr6, [r3, #-380]!	@ 0xfffffe84
    7f18:	765f5f20 	ldrbvc	r5, [pc], -r0, lsr #30
    7f1c:	74616c6f 	strbtvc	r6, [r1], #-3183	@ 0xfffff391
    7f20:	28656c69 	stmdacs	r5!, {r0, r3, r5, r6, sl, fp, sp, lr}^
    7f24:	20222022 	eorcs	r2, r2, r2, lsr #32
    7f28:	203a203a 	eorscs	r2, sl, sl, lsr r0
    7f2c:	6d22203a 	stcvs	0, cr2, [r2, #-232]!	@ 0xffffff18
    7f30:	726f6d65 	rsbvc	r6, pc, #6464	@ 0x1940
    7f34:	00292279 	eoreq	r2, r9, r9, ror r2
    7f38:	6f6c5f5f 	svcvs	0x006c5f5f
    7f3c:	635f6b63 	cmpvs	pc, #101376	@ 0x18c00
    7f40:	65736f6c 	ldrbvs	r6, [r3, #-3948]!	@ 0xfffff094
    7f44:	636f6c28 	cmnvs	pc, #40, 24	@ 0x2800
    7f48:	5f20296b 	svcpl	0x0020296b
    7f4c:	7465725f 	strbtvc	r7, [r5], #-607	@ 0xfffffda1
    7f50:	65677261 	strbvs	r7, [r7, #-609]!	@ 0xfffffd9f
    7f54:	6f6c5f74 	svcvs	0x006c5f74
    7f58:	635f6b63 	cmpvs	pc, #101376	@ 0x18c00
    7f5c:	65736f6c 	ldrbvs	r6, [r3, #-3948]!	@ 0xfffff094
    7f60:	636f6c28 	cmnvs	pc, #40, 24	@ 0x2800
    7f64:	5f00296b 	svcpl	0x0000296b
    7f68:	4e454552 	mcrmi	5, 2, r4, cr5, cr2, {2}
    7f6c:	54535f54 	ldrbpl	r5, [r3], #-3924	@ 0xfffff0ac
    7f70:	4b4f5452 	blmi	13dd0c0 <__max_heap_size+0x13dccc0>
    7f74:	53414c5f 	cmppl	r1, #24320	@ 0x5f00
    7f78:	74702854 	ldrbtvc	r2, [r0], #-2132	@ 0xfffff7ac
    7f7c:	28202972 	stmdacs	r0!, {r1, r4, r5, r6, r8, fp, sp}
    7f80:	72747028 	rsbsvc	r7, r4, #40	@ 0x28
    7f84:	5f3e2d29 	svcpl	0x003e2d29
    7f88:	2e77656e 	cdpcs	5, 7, cr6, cr7, cr14, {3}
    7f8c:	6565725f 	strbvs	r7, [r5, #-607]!	@ 0xfffffda1
    7f90:	5f2e746e 	svcpl	0x002e746e
    7f94:	74727473 	ldrbtvc	r7, [r2], #-1139	@ 0xfffffb8d
    7f98:	6c5f6b6f 			@ <UNDEFINED> instruction: 0x6c5f6b6f
    7f9c:	29747361 	ldmdbcs	r4!, {r0, r5, r6, r8, r9, ip, sp, lr}^
    7fa0:	4f5f5700 	svcmi	0x005f5700
    7fa4:	0032204b 	eorseq	r2, r2, fp, asr #32
    7fa8:	4b4f5f52 	blmi	13dfcf8 <__max_heap_size+0x13df8f8>
    7fac:	5f003420 	svcpl	0x00003420
    7fb0:	7461645f 	strbtvc	r6, [r1], #-1119	@ 0xfffffba1
    7fb4:	70797461 	rsbsvc	r7, r9, r1, ror #8
    7fb8:	79745f65 	ldmdbvc	r4!, {r0, r2, r5, r6, r8, r9, sl, fp, ip, lr}^
    7fbc:	745f6570 	ldrbvc	r6, [pc], #-1392	@ 7fc4 <__max_heap_size+0x7bc4>
    7fc0:	6b286761 	blvs	a21d4c <__max_heap_size+0xa2194c>
    7fc4:	2c646e69 	stclcs	14, cr6, [r4], #-420	@ 0xfffffe5c
    7fc8:	65707974 	ldrbvs	r7, [r0, #-2420]!	@ 0xfffff68c
    7fcc:	5f002029 	svcpl	0x00002029
    7fd0:	4e454552 	mcrmi	5, 2, r4, cr5, cr2, {2}
    7fd4:	49535f54 	ldmdbmi	r3, {r2, r4, r6, r8, r9, sl, fp, ip, lr}^
    7fd8:	4c414e47 	stclmi	14, cr4, [r1], {71}	@ 0x47
    7fdc:	4655425f 			@ <UNDEFINED> instruction: 0x4655425f
    7fe0:	72747028 	rsbsvc	r7, r4, #40	@ 0x28
    7fe4:	28282029 	stmdacs	r8!, {r0, r3, r5, sp}
    7fe8:	29727470 	ldmdbcs	r2!, {r4, r5, r6, sl, ip, sp, lr}^
    7fec:	6e5f3e2d 	cdpvs	14, 5, cr3, cr15, cr13, {1}
    7ff0:	5f2e7765 	svcpl	0x002e7765
    7ff4:	6e656572 	mcrvs	5, 3, r6, cr5, cr2, {3}
    7ff8:	735f2e74 	cmpvc	pc, #116, 28	@ 0x740
    7ffc:	616e6769 	cmnvs	lr, r9, ror #14
    8000:	75625f6c 	strbvc	r5, [r2, #-3948]!	@ 0xfffff094
    8004:	5f002966 	svcpl	0x00002966
    8008:	50505553 	subspl	r5, r0, r3, asr r5
    800c:	5354524f 	cmppl	r4, #-268435452	@ 0xf0000004
    8010:	5252455f 	subspl	r4, r2, #398458880	@ 0x17c00000
    8014:	45435845 	strbmi	r5, [r3, #-2117]	@ 0xfffff7bb
    8018:	00205450 	eoreq	r5, r0, r0, asr r4
    801c:	65736c5f 	ldrbvs	r6, [r3, #-3167]!	@ 0xfffff3a1
    8020:	5f006b65 	svcpl	0x00006b65
    8024:	545f4353 	ldrbpl	r4, [pc], #-851	@ 802c <__max_heap_size+0x7c2c>
    8028:	41455248 	cmpmi	r5, r8, asr #4
    802c:	54415f44 	strbpl	r5, [r1], #-3908	@ 0xfffff0bc
    8030:	535f5254 	cmppl	pc, #84, 4	@ 0x40000005
    8034:	4b434154 	blmi	10d858c <__max_heap_size+0x10d818c>
    8038:	52444441 	subpl	r4, r4, #1090519040	@ 0x41000000
    803c:	00333420 	eorseq	r3, r3, r0, lsr #8
    8040:	45445f5f 	strbmi	r5, [r4, #-3935]	@ 0xfffff0a1
    8044:	454e4946 	strbmi	r4, [lr, #-2374]	@ 0xfffff6ba
    8048:	74705f44 	ldrbtvc	r5, [r0], #-3908	@ 0xfffff0bc
    804c:	66696472 			@ <UNDEFINED> instruction: 0x66696472
    8050:	20745f66 	rsbscs	r5, r4, r6, ror #30
    8054:	66666f00 	strbtvs	r6, [r6], -r0, lsl #30
    8058:	6f746573 	svcvs	0x00746573
    805c:	5f530066 	svcpl	0x00530066
    8060:	45525349 	ldrbmi	r5, [r2, #-841]	@ 0xfffffcb7
    8064:	296d2847 	stmdbcs	sp!, {r0, r1, r2, r6, fp, sp}^
    8068:	28282820 	stmdacs	r8!, {r5, fp, sp}
    806c:	5f26296d 	svcpl	0x0026296d
    8070:	544d4649 	strbpl	r4, [sp], #-1609	@ 0xfffff9b7
    8074:	3d3d2029 	ldccc	0, cr2, [sp, #-164]!	@ 0xffffff5c
    8078:	46495f20 	strbmi	r5, [r9], -r0, lsr #30
    807c:	29474552 	stmdbcs	r7, {r1, r4, r6, r8, sl, lr}^
    8080:	6e5f5f00 	cdpvs	15, 5, cr5, cr15, cr0, {0}
    8084:	5f646565 	svcpl	0x00646565
    8088:	74746e69 	ldrbtvc	r6, [r4], #-3689	@ 0xfffff197
    808c:	73657079 	cmnvc	r5, #121	@ 0x79
    8090:	6e5f5f00 	cdpvs	15, 5, cr5, cr15, cr0, {0}
    8094:	756e6e6f 	strbvc	r6, [lr, #-3695]!	@ 0xfffff191
    8098:	78286c6c 	stmdavc	r8!, {r2, r3, r5, r6, sl, fp, sp, lr}
    809c:	5f5f2029 	svcpl	0x005f2029
    80a0:	72747461 	rsbsvc	r7, r4, #1627389952	@ 0x61000000
    80a4:	74756269 	ldrbtvc	r6, [r5], #-617	@ 0xfffffd97
    80a8:	285f5f65 	ldmdacs	pc, {r0, r2, r5, r6, r8, r9, sl, fp, ip, lr}^	@ <UNPREDICTABLE>
    80ac:	6e5f5f28 	cdpvs	15, 5, cr5, cr15, cr8, {1}
    80b0:	756e6e6f 	strbvc	r6, [lr, #-3695]!	@ 0xfffff191
    80b4:	5f5f6c6c 	svcpl	0x005f6c6c
    80b8:	29297820 	stmdbcs	r9!, {r5, fp, ip, sp, lr}
    80bc:	41525f00 	cmpmi	r2, r0, lsl #30
    80c0:	3834444e 	ldmdacc	r4!, {r1, r2, r3, r6, sl, lr}
    80c4:	4444415f 	strbmi	r4, [r4], #-351	@ 0xfffffea1
    80c8:	78302820 	ldmdavc	r0!, {r5, fp, sp}
    80cc:	62303030 	eorsvs	r3, r0, #48	@ 0x30
    80d0:	535f0029 	cmppl	pc, #41	@ 0x29
    80d4:	454c5f43 	strbmi	r5, [ip, #-3907]	@ 0xfffff0bd
    80d8:	324c4556 	subcc	r4, ip, #360710144	@ 0x15800000
    80dc:	4341435f 	cmpmi	r1, #2080374785	@ 0x7c000001
    80e0:	535f4548 	cmppl	pc, #72, 10	@ 0x12000000
    80e4:	20455a49 	subcs	r5, r5, r9, asr #20
    80e8:	00313331 	eorseq	r3, r1, r1, lsr r3
    80ec:	4f4c435f 	svcmi	0x004c435f
    80f0:	44494b43 	strbmi	r4, [r9], #-2883	@ 0xfffff4bd
    80f4:	445f545f 	ldrbmi	r5, [pc], #-1119	@ 80fc <__max_heap_size+0x7cfc>
    80f8:	414c4345 	cmpmi	ip, r5, asr #6
    80fc:	20444552 	subcs	r4, r4, r2, asr r5
    8100:	43505f00 	cmpmi	r0, #0, 30
    8104:	4f48435f 	svcmi	0x0048435f
    8108:	525f4e57 	subspl	r4, pc, #1392	@ 0x570
    810c:	52545345 	subspl	r5, r4, #335544321	@ 0x14000001
    8110:	45544349 	ldrbmi	r4, [r4, #-841]	@ 0xfffffcb7
    8114:	00362044 	eorseq	r2, r6, r4, asr #32
    8118:	695f7473 	ldmdbvs	pc, {r0, r1, r4, r5, r6, sl, ip, sp, lr}^	@ <UNPREDICTABLE>
    811c:	5f006f6e 	svcpl	0x00006f6e
    8120:	535f4350 	cmppl	pc, #80, 6	@ 0x40000001
    8124:	5f434e59 	svcpl	0x00434e59
    8128:	31204f49 			@ <UNDEFINED> instruction: 0x31204f49
    812c:	535f0031 	cmppl	pc, #49	@ 0x31
    8130:	454c5f43 	strbmi	r5, [ip, #-3907]	@ 0xfffff0bd
    8134:	314c4556 	cmpcc	ip, r6, asr r5
    8138:	4143445f 	cmpmi	r3, pc, asr r4
    813c:	5f454843 	svcpl	0x00454843
    8140:	4f535341 	svcmi	0x00535341
    8144:	32312043 	eorscc	r2, r1, #67	@ 0x43
    8148:	535f0039 	cmppl	pc, #57	@ 0x39
    814c:	45535f43 	ldrbmi	r5, [r3, #-3907]	@ 0xfffff0bd
    8150:	41565f4d 	cmpmi	r6, sp, asr #30
    8154:	5f45554c 	svcpl	0x0045554c
    8158:	2058414d 	subscs	r4, r8, sp, asr #2
    815c:	5f003731 	svcpl	0x00003731
    8160:	696c6e5f 	stmdbvs	ip!, {r0, r1, r2, r3, r4, r6, r9, sl, fp, sp, lr}^
    8164:	745f6b6e 	ldrbvc	r6, [pc], #-2926	@ 816c <__max_heap_size+0x7d6c>
    8168:	43535f00 	cmpmi	r3, #0, 30
    816c:	5f37565f 	svcpl	0x0037565f
    8170:	4942504c 	stmdbmi	r2, {r2, r3, r6, ip, lr}^
    8174:	464f5f47 	strbmi	r5, [pc], -r7, asr #30
    8178:	47494246 	strbmi	r4, [r9, -r6, asr #4]
    817c:	00353920 	eorseq	r3, r5, r0, lsr #18
    8180:	4554415f 	ldrbmi	r4, [r4, #-351]	@ 0xfffffea1
    8184:	5f544958 	svcpl	0x00544958
    8188:	54494e49 	strbpl	r4, [r9], #-3657	@ 0xfffff1b7
    818c:	4e5f7b20 	vnmlsmi.f64	d23, d15, d16
    8190:	2c4c4c55 	stclcs	12, cr4, [ip], {85}	@ 0x55
    8194:	202c3020 	eorcs	r3, ip, r0, lsr #32
    8198:	554e5f7b 	strbpl	r5, [lr, #-3963]	@ 0xfffff085
    819c:	2c7d4c4c 	ldclcs	12, cr4, [sp], #-304	@ 0xfffffed0
    81a0:	5f7b7b20 	svcpl	0x007b7b20
    81a4:	4c4c554e 	stclmi	5, cr5, [ip], {78}	@ 0x4e
    81a8:	7b202c7d 	blvc	8133a4 <__max_heap_size+0x812fa4>
    81ac:	4c554e5f 	ldclmi	14, cr4, [r5], {95}	@ 0x5f
    81b0:	202c7d4c 	eorcs	r7, ip, ip, asr #26
    81b4:	30202c30 	eorcc	r2, r0, r0, lsr ip
    81b8:	5f007d7d 	svcpl	0x00007d7d
    81bc:	5145445f 	cmppl	r5, pc, asr r4
    81c0:	494c4155 	stmdbmi	ip, {r0, r2, r4, r6, r8, lr}^
    81c4:	74285946 	strtvc	r5, [r8], #-2374	@ 0xfffff6ba
    81c8:	2c657079 	stclcs	0, cr7, [r5], #-484	@ 0xfffffe1c
    81cc:	29726176 	ldmdbcs	r2!, {r1, r2, r4, r5, r6, r8, sp, lr}^
    81d0:	74282820 	strtvc	r2, [r8], #-2080	@ 0xfffff7e0
    81d4:	29657079 	stmdbcs	r5!, {r0, r3, r4, r5, r6, ip, sp, lr}^
    81d8:	755f5f28 	ldrbvc	r5, [pc, #-3880]	@ 72b8 <__max_heap_size+0x6eb8>
    81dc:	70746e69 	rsbsvc	r6, r4, r9, ror #28
    81e0:	745f7274 	ldrbvc	r7, [pc], #-628	@ 81e8 <__max_heap_size+0x7de8>
    81e4:	6f632829 	svcvs	0x00632829
    81e8:	2074736e 	rsbscs	r7, r4, lr, ror #6
    81ec:	616c6f76 	cmnvs	ip, r6, ror pc
    81f0:	656c6974 	strbvs	r6, [ip, #-2420]!	@ 0xfffff68c
    81f4:	696f7620 	stmdbvs	pc!, {r5, r9, sl, ip, sp, lr}^	@ <UNPREDICTABLE>
    81f8:	292a2064 	stmdbcs	sl!, {r2, r5, r6, sp}
    81fc:	72617628 	rsbvc	r7, r1, #40, 12	@ 0x2800000
    8200:	5f002929 	svcpl	0x00002929
    8204:	4c5f4353 	ldclmi	3, cr4, [pc], {83}	@ 0x53
    8208:	4c455645 	stclmi	6, cr5, [r5], {69}	@ 0x45
    820c:	41435f33 	cmpmi	r3, r3, lsr pc
    8210:	5f454843 	svcpl	0x00454843
    8214:	455a4953 	ldrbmi	r4, [sl, #-2387]	@ 0xfffff6ad
    8218:	34333120 	ldrtcc	r3, [r3], #-288	@ 0xfffffee0
    821c:	6c5f5f00 	ldclvs	15, cr5, [pc], {-0}
    8220:	5f6b636f 	svcpl	0x006b636f
    8224:	74696e69 	strbtvc	r6, [r9], #-3689	@ 0xfffff197
    8228:	6365725f 	cmnvs	r5, #-268435451	@ 0xf0000005
    822c:	69737275 	ldmdbvs	r3!, {r0, r2, r4, r5, r6, r9, ip, sp, lr}^
    8230:	6c286576 	stcvs	5, cr6, [r8], #-472	@ 0xfffffe28
    8234:	296b636f 	stmdbcs	fp!, {r0, r1, r2, r3, r5, r6, r8, r9, sp, lr}^
    8238:	725f5f20 	subsvc	r5, pc, #32, 30	@ 0x80
    823c:	72617465 	rsbvc	r7, r1, #1694498816	@ 0x65000000
    8240:	5f746567 	svcpl	0x00746567
    8244:	6b636f6c 	blvs	18e3ffc <__max_heap_size+0x18e3bfc>
    8248:	696e695f 	stmdbvs	lr!, {r0, r1, r2, r3, r4, r6, r8, fp, sp, lr}^
    824c:	65725f74 	ldrbvs	r5, [r2, #-3956]!	@ 0xfffff08c
    8250:	73727563 	cmnvc	r2, #415236096	@ 0x18c00000
    8254:	28657669 	stmdacs	r5!, {r0, r3, r5, r6, r9, sl, ip, sp, lr}^
    8258:	636f6c26 	cmnvs	pc, #9728	@ 0x2600
    825c:	5f00296b 	svcpl	0x0000296b
    8260:	6361705f 	cmnvs	r1, #95	@ 0x5f
    8264:	2064656b 	rsbcs	r6, r4, fp, ror #10
    8268:	74615f5f 	strbtvc	r5, [r1], #-3935	@ 0xfffff0a1
    826c:	62697274 	rsbvs	r7, r9, #116, 4	@ 0x40000007
    8270:	5f657475 	svcpl	0x00657475
    8274:	5f28285f 	svcpl	0x0028285f
    8278:	6361705f 	cmnvs	r1, #95	@ 0x5f
    827c:	5f64656b 	svcpl	0x0064656b
    8280:	0029295f 	eoreq	r2, r9, pc, asr r9
    8284:	4843575f 	stmdami	r3, {r0, r1, r2, r3, r4, r6, r8, r9, sl, ip, lr}^
    8288:	545f5241 	ldrbpl	r5, [pc], #-577	@ 8290 <__max_heap_size+0x7e90>
    828c:	4645445f 			@ <UNDEFINED> instruction: 0x4645445f
    8290:	44454e49 	strbmi	r4, [r5], #-3657	@ 0xfffff1b7
    8294:	5f00205f 	svcpl	0x0000205f
    8298:	535f4353 	cmppl	pc, #1275068417	@ 0x4c000001
    829c:	48434e59 	stmdami	r3, {r0, r3, r4, r6, r9, sl, fp, lr}^
    82a0:	494e4f52 	stmdbmi	lr, {r1, r4, r6, r8, r9, sl, fp, lr}^
    82a4:	5f44455a 	svcpl	0x0044455a
    82a8:	33204f49 			@ <UNDEFINED> instruction: 0x33204f49
    82ac:	505f0032 	subspl	r0, pc, r2, lsr r0	@ <UNPREDICTABLE>
    82b0:	45525f43 	ldrbmi	r5, [r2, #-3907]	@ 0xfffff0bd
    82b4:	414d5f43 	cmpmi	sp, r3, asr #30
    82b8:	46585f58 			@ <UNDEFINED> instruction: 0x46585f58
    82bc:	535f5245 	cmppl	pc, #1342177284	@ 0x50000004
    82c0:	20455a49 	subcs	r5, r5, r9, asr #20
    82c4:	5f003731 	svcpl	0x00003731
    82c8:	7373615f 	cmnvc	r3, #-1073741801	@ 0xc0000017
    82cc:	73747265 	cmnvc	r4, #1342177286	@ 0x50000006
    82d0:	6168735f 	cmnvs	r8, pc, asr r3
    82d4:	28646572 	stmdacs	r4!, {r1, r4, r5, r6, r8, sl, sp, lr}^
    82d8:	292e2e2e 	stmdbcs	lr!, {r1, r2, r3, r5, r9, sl, fp, sp}
    82dc:	6c5f5f20 	ldclvs	15, cr5, [pc], {32}
    82e0:	5f6b636f 	svcpl	0x006b636f
    82e4:	6f6e6e61 	svcvs	0x006e6e61
    82e8:	65746174 	ldrbvs	r6, [r4, #-372]!	@ 0xfffffe8c
    82ec:	73736128 	cmnvc	r3, #40, 2
    82f0:	5f747265 	svcpl	0x00747265
    82f4:	72616873 	rsbvc	r6, r1, #7536640	@ 0x730000
    82f8:	6c5f6465 	ldclvs	4, cr6, [pc], {101}	@ 0x65
    82fc:	286b636f 	stmdacs	fp!, {r0, r1, r2, r3, r5, r6, r8, r9, sp, lr}^
    8300:	41565f5f 	cmpmi	r6, pc, asr pc
    8304:	4752415f 			@ <UNDEFINED> instruction: 0x4752415f
    8308:	295f5f53 	ldmdbcs	pc, {r0, r1, r4, r6, r8, r9, sl, fp, ip, lr}^	@ <UNPREDICTABLE>
    830c:	5f5f0029 	svcpl	0x005f0029
    8310:	76727470 			@ <UNDEFINED> instruction: 0x76727470
    8314:	65756c61 	ldrbvs	r6, [r5, #-3169]!	@ 0xfffff39f
    8318:	5f5f0020 	svcpl	0x005f0020
    831c:	5f535953 	svcpl	0x00535953
    8320:	4b434f4c 	blmi	10dc058 <__max_heap_size+0x10dbc58>
    8324:	5f5f485f 	svcpl	0x005f485f
    8328:	525f0020 	subspl	r0, pc, #32
    832c:	544e4545 	strbpl	r4, [lr], #-1349	@ 0xfffffabb
    8330:	4353415f 	cmpmi	r3, #-1073741801	@ 0xc0000017
    8334:	454d4954 	strbmi	r4, [sp, #-2388]	@ 0xfffff6ac
    8338:	5a49535f 	bpl	125d0bc <__max_heap_size+0x125ccbc>
    833c:	36322045 	ldrtcc	r2, [r2], -r5, asr #32
    8340:	43505f00 	cmpmi	r0, #0, 30
    8344:	4d49545f 	stclmi	4, cr5, [r9, #-380]	@ 0xfffffe84
    8348:	41545345 	cmpmi	r4, r5, asr #6
    834c:	525f504d 	subspl	r5, pc, #77	@ 0x4d
    8350:	4c4f5345 	stclmi	3, cr5, [pc], {69}	@ 0x45
    8354:	4f495455 	svcmi	0x00495455
    8358:	3032204e 	eorscc	r2, r2, lr, asr #32
    835c:	444c5f00 	strbmi	r5, [ip], #-3840	@ 0xfffff100
    8360:	455f4c42 	ldrbmi	r4, [pc, #-3138]	@ 7726 <__max_heap_size+0x7326>
    8364:	42445f51 	submi	r5, r4, #324	@ 0x144
    8368:	0031204c 	eorseq	r2, r1, ip, asr #32
    836c:	4545525f 	strbmi	r5, [r5, #-607]	@ 0xfffffda1
    8370:	545f544e 	ldrbpl	r5, [pc], #-1102	@ 8378 <__max_heap_size+0x7f78>
    8374:	7470284d 	ldrbtvc	r2, [r0], #-2125	@ 0xfffff7b3
    8378:	28202972 	stmdacs	r0!, {r1, r4, r5, r6, r8, fp, sp}
    837c:	74702826 	ldrbtvc	r2, [r0], #-2086	@ 0xfffff7da
    8380:	3e2d2972 			@ <UNDEFINED> instruction: 0x3e2d2972
    8384:	77656e5f 			@ <UNDEFINED> instruction: 0x77656e5f
    8388:	65725f2e 	ldrbvs	r5, [r2, #-3886]!	@ 0xfffff0d2
    838c:	2e746e65 	cdpcs	14, 7, cr6, cr4, cr5, {3}
    8390:	636f6c5f 	cmnvs	pc, #24320	@ 0x5f00
    8394:	69746c61 	ldmdbvs	r4!, {r0, r5, r6, sl, fp, sp, lr}^
    8398:	625f656d 	subsvs	r6, pc, #457179136	@ 0x1b400000
    839c:	00296675 	eoreq	r6, r9, r5, ror r6
    83a0:	5f43535f 	svcpl	0x0043535f
    83a4:	4f52504e 	svcmi	0x0052504e
    83a8:	53534543 	cmppl	r3, #281018368	@ 0x10c00000
    83ac:	5f53524f 	svcpl	0x0053524f
    83b0:	464e4f43 	strbmi	r4, [lr], -r3, asr #30
    83b4:	58003920 	stmdapl	r0, {r5, r8, fp, ip, sp}
    83b8:	204b4f5f 	subcs	r4, fp, pc, asr pc
    83bc:	535f0031 	cmppl	pc, #49	@ 0x31
    83c0:	535f5359 	cmppl	pc, #1677721601	@ 0x64000001
    83c4:	5f544154 	svcpl	0x00544154
    83c8:	5f002048 	svcpl	0x00002048
    83cc:	736f6e5f 	cmnvc	pc, #1520	@ 0x5f0
    83d0:	74696e61 	strbtvc	r6, [r9], #-3681	@ 0xfffff19f
    83d4:	74657a69 	strbtvc	r7, [r5], #-2665	@ 0xfffff597
    83d8:	61657268 	cmnvs	r5, r8, ror #4
    83dc:	73002064 	tstvc	r0, #100	@ 0x64
    83e0:	74615f74 	strbtvc	r5, [r1], #-3956	@ 0xfffff08c
    83e4:	Address 0x83e4 is out of bounds.


Disassembly of section .debug_frame:

00000000 <.debug_frame>:
   0:	0000000c 	andeq	r0, r0, ip
   4:	ffffffff 			@ <UNDEFINED> instruction: 0xffffffff
   8:	7c020001 	stcvc	0, cr0, [r2], {1}
   c:	000d0c0e 	andeq	r0, sp, lr, lsl #24
  10:	00000018 	andeq	r0, r0, r8, lsl r0
  14:	00000000 	andeq	r0, r0, r0
  18:	080001cc 	stmdaeq	r0, {r2, r3, r6, r7, r8}
  1c:	0000005c 	andeq	r0, r0, ip, asr r0
  20:	87040e41 	strhi	r0, [r4, -r1, asr #28]
  24:	100e4101 	andne	r4, lr, r1, lsl #2
  28:	00070d41 	andeq	r0, r7, r1, asr #26
  2c:	0000000c 	andeq	r0, r0, ip
  30:	ffffffff 			@ <UNDEFINED> instruction: 0xffffffff
  34:	7c020001 	stcvc	0, cr0, [r2], {1}
  38:	000d0c0e 	andeq	r0, sp, lr, lsl #24
  3c:	0000001c 	andeq	r0, r0, ip, lsl r0
  40:	0000002c 	andeq	r0, r0, ip, lsr #32
  44:	08000228 	stmdaeq	r0, {r3, r5, r9}
  48:	00000084 	andeq	r0, r0, r4, lsl #1
  4c:	87080e41 	strhi	r0, [r8, -r1, asr #28]
  50:	41018e02 	tstmi	r1, r2, lsl #28
  54:	0d41200e 	stcleq	0, cr2, [r1, #-56]	@ 0xffffffc8
  58:	00000007 	andeq	r0, r0, r7
  5c:	00000014 	andeq	r0, r0, r4, lsl r0
  60:	0000002c 	andeq	r0, r0, ip, lsr #32
  64:	080002ac 	stmdaeq	r0, {r2, r3, r5, r7, r9}
  68:	00000008 	andeq	r0, r0, r8
  6c:	87040e41 	strhi	r0, [r4, -r1, asr #28]
  70:	070d4101 	streq	r4, [sp, -r1, lsl #2]
  74:	0000000c 	andeq	r0, r0, ip
  78:	ffffffff 			@ <UNDEFINED> instruction: 0xffffffff
  7c:	7c020001 	stcvc	0, cr0, [r2], {1}
  80:	000d0c0e 	andeq	r0, sp, lr, lsl #24
  84:	00000024 	andeq	r0, r0, r4, lsr #32
  88:	00000074 	andeq	r0, r0, r4, ror r0
  8c:	080002b4 	stmdaeq	r0, {r2, r4, r5, r7, r9}
  90:	00000048 	andeq	r0, r0, r8, asr #32
  94:	87040e41 	strhi	r0, [r4, -r1, asr #28]
  98:	180e4101 	stmdane	lr, {r0, r8, lr}
  9c:	59070d41 	stmdbpl	r7, {r0, r6, r8, sl, fp}
  a0:	0d41040e 	stcleq	4, cr0, [r1, #-56]	@ 0xffffffc8
  a4:	0ec7420d 	cdpeq	2, 12, cr4, cr7, cr13, {0}
  a8:	00000000 	andeq	r0, r0, r0
  ac:	00000018 	andeq	r0, r0, r8, lsl r0
  b0:	00000074 	andeq	r0, r0, r4, ror r0
  b4:	080002fc 	stmdaeq	r0, {r2, r3, r4, r5, r6, r7, r9}
  b8:	0000000c 	andeq	r0, r0, ip
  bc:	87040e41 	strhi	r0, [r4, -r1, asr #28]
  c0:	100e4101 	andne	r4, lr, r1, lsl #2
  c4:	00070d41 	andeq	r0, r7, r1, asr #26
  c8:	00000024 	andeq	r0, r0, r4, lsr #32
  cc:	00000074 	andeq	r0, r0, r4, ror r0
  d0:	08000308 	stmdaeq	r0, {r3, r8, r9}
  d4:	0000001a 	andeq	r0, r0, sl, lsl r0
  d8:	87040e41 	strhi	r0, [r4, -r1, asr #28]
  dc:	180e4101 	stmdane	lr, {r0, r8, lr}
  e0:	46070d41 	strmi	r0, [r7], -r1, asr #26
  e4:	0d41040e 	stcleq	4, cr0, [r1, #-56]	@ 0xffffffc8
  e8:	0ec7420d 	cdpeq	2, 12, cr4, cr7, cr13, {0}
  ec:	00000000 	andeq	r0, r0, r0
  f0:	00000024 	andeq	r0, r0, r4, lsr #32
  f4:	00000074 	andeq	r0, r0, r4, ror r0
  f8:	08000322 	stmdaeq	r0, {r1, r5, r8, r9}
  fc:	0000001a 	andeq	r0, r0, sl, lsl r0
 100:	87040e41 	strhi	r0, [r4, -r1, asr #28]
 104:	180e4101 	stmdane	lr, {r0, r8, lr}
 108:	46070d41 	strmi	r0, [r7], -r1, asr #26
 10c:	0d41040e 	stcleq	4, cr0, [r1, #-56]	@ 0xffffffc8
 110:	0ec7420d 	cdpeq	2, 12, cr4, cr7, cr13, {0}
 114:	00000000 	andeq	r0, r0, r0
 118:	00000024 	andeq	r0, r0, r4, lsr #32
 11c:	00000074 	andeq	r0, r0, r4, ror r0
 120:	0800033c 	stmdaeq	r0, {r2, r3, r4, r5, r8, r9}
 124:	00000016 	andeq	r0, r0, r6, lsl r0
 128:	87040e41 	strhi	r0, [r4, -r1, asr #28]
 12c:	100e4101 	andne	r4, lr, r1, lsl #2
 130:	44070d41 	strmi	r0, [r7], #-3393	@ 0xfffff2bf
 134:	0d41040e 	stcleq	4, cr0, [r1, #-56]	@ 0xffffffc8
 138:	0ec7420d 	cdpeq	2, 12, cr4, cr7, cr13, {0}
 13c:	00000000 	andeq	r0, r0, r0
 140:	00000024 	andeq	r0, r0, r4, lsr #32
 144:	00000074 	andeq	r0, r0, r4, ror r0
 148:	08000352 	stmdaeq	r0, {r1, r4, r6, r8, r9}
 14c:	0000001a 	andeq	r0, r0, sl, lsl r0
 150:	87040e41 	strhi	r0, [r4, -r1, asr #28]
 154:	180e4101 	stmdane	lr, {r0, r8, lr}
 158:	46070d41 	strmi	r0, [r7], -r1, asr #26
 15c:	0d41040e 	stcleq	4, cr0, [r1, #-56]	@ 0xffffffc8
 160:	0ec7420d 	cdpeq	2, 12, cr4, cr7, cr13, {0}
 164:	00000000 	andeq	r0, r0, r0
 168:	00000024 	andeq	r0, r0, r4, lsr #32
 16c:	00000074 	andeq	r0, r0, r4, ror r0
 170:	0800036c 	stmdaeq	r0, {r2, r3, r5, r6, r8, r9}
 174:	00000018 	andeq	r0, r0, r8, lsl r0
 178:	87040e41 	strhi	r0, [r4, -r1, asr #28]
 17c:	100e4101 	andne	r4, lr, r1, lsl #2
 180:	45070d41 	strmi	r0, [r7, #-3393]	@ 0xfffff2bf
 184:	0d41040e 	stcleq	4, cr0, [r1, #-56]	@ 0xffffffc8
 188:	0ec7420d 	cdpeq	2, 12, cr4, cr7, cr13, {0}
 18c:	00000000 	andeq	r0, r0, r0
 190:	00000024 	andeq	r0, r0, r4, lsr #32
 194:	00000074 	andeq	r0, r0, r4, ror r0
 198:	08000384 	stmdaeq	r0, {r2, r7, r8, r9}
 19c:	00000016 	andeq	r0, r0, r6, lsl r0
 1a0:	87040e41 	strhi	r0, [r4, -r1, asr #28]
 1a4:	100e4101 	andne	r4, lr, r1, lsl #2
 1a8:	44070d41 	strmi	r0, [r7], #-3393	@ 0xfffff2bf
 1ac:	0d41040e 	stcleq	4, cr0, [r1, #-56]	@ 0xffffffc8
 1b0:	0ec7420d 	cdpeq	2, 12, cr4, cr7, cr13, {0}
 1b4:	00000000 	andeq	r0, r0, r0
 1b8:	00000024 	andeq	r0, r0, r4, lsr #32
 1bc:	00000074 	andeq	r0, r0, r4, ror r0
 1c0:	0800039a 	stmdaeq	r0, {r1, r3, r4, r7, r8, r9}
 1c4:	0000001a 	andeq	r0, r0, sl, lsl r0
 1c8:	87040e41 	strhi	r0, [r4, -r1, asr #28]
 1cc:	100e4101 	andne	r4, lr, r1, lsl #2
 1d0:	46070d41 	strmi	r0, [r7], -r1, asr #26
 1d4:	0d41040e 	stcleq	4, cr0, [r1, #-56]	@ 0xffffffc8
 1d8:	0ec7420d 	cdpeq	2, 12, cr4, cr7, cr13, {0}
 1dc:	00000000 	andeq	r0, r0, r0
 1e0:	00000030 	andeq	r0, r0, r0, lsr r0
 1e4:	00000074 	andeq	r0, r0, r4, ror r0
 1e8:	080003b4 	stmdaeq	r0, {r2, r4, r5, r7, r8, r9}
 1ec:	0000001c 	andeq	r0, r0, ip, lsl r0
 1f0:	810c0e41 	tsthi	ip, r1, asr #28
 1f4:	83028203 	tsthi	r2, #805306368	@ 0x30000000
 1f8:	100e4101 	andne	r4, lr, r1, lsl #2
 1fc:	0e410487 	cdpeq	4, 4, cr0, cr1, cr7, {4}
 200:	070d4118 			@ <UNDEFINED> instruction: 0x070d4118
 204:	41100e45 	tstmi	r0, r5, asr #28
 208:	c7420d0d 	strbgt	r0, [r2, -sp, lsl #26]
 20c:	c3410c0e 	cmpgt	r1, #3584	@ 0xe00
 210:	000ec1c2 	andeq	ip, lr, r2, asr #3
 214:	00000024 	andeq	r0, r0, r4, lsr #32
 218:	00000074 	andeq	r0, r0, r4, ror r0
 21c:	080003d0 	stmdaeq	r0, {r4, r6, r7, r8, r9}
 220:	00000018 	andeq	r0, r0, r8, lsl r0
 224:	87040e41 	strhi	r0, [r4, -r1, asr #28]
 228:	100e4101 	andne	r4, lr, r1, lsl #2
 22c:	45070d41 	strmi	r0, [r7, #-3393]	@ 0xfffff2bf
 230:	0d41040e 	stcleq	4, cr0, [r1, #-56]	@ 0xffffffc8
 234:	0ec7420d 	cdpeq	2, 12, cr4, cr7, cr13, {0}
 238:	00000000 	andeq	r0, r0, r0
 23c:	00000024 	andeq	r0, r0, r4, lsr #32
 240:	00000074 	andeq	r0, r0, r4, ror r0
 244:	080003e8 	stmdaeq	r0, {r3, r5, r6, r7, r8, r9}
 248:	0000001a 	andeq	r0, r0, sl, lsl r0
 24c:	87040e41 	strhi	r0, [r4, -r1, asr #28]
 250:	100e4101 	andne	r4, lr, r1, lsl #2
 254:	46070d41 	strmi	r0, [r7], -r1, asr #26
 258:	0d41040e 	stcleq	4, cr0, [r1, #-56]	@ 0xffffffc8
 25c:	0ec7420d 	cdpeq	2, 12, cr4, cr7, cr13, {0}
 260:	00000000 	andeq	r0, r0, r0
 264:	0000000c 	andeq	r0, r0, ip
 268:	ffffffff 			@ <UNDEFINED> instruction: 0xffffffff
 26c:	7c020001 	stcvc	0, cr0, [r2], {1}
 270:	000d0c0e 	andeq	r0, sp, lr, lsl #24
 274:	00000014 	andeq	r0, r0, r4, lsl r0
 278:	00000264 	andeq	r0, r0, r4, ror #4
 27c:	08000490 	stmdaeq	r0, {r4, r7, sl}
 280:	00000024 	andeq	r0, r0, r4, lsr #32
 284:	83080e41 	tsthi	r8, #1040	@ 0x410
 288:	00018e02 	andeq	r8, r1, r2, lsl #28
 28c:	0000000c 	andeq	r0, r0, ip
 290:	ffffffff 			@ <UNDEFINED> instruction: 0xffffffff
 294:	7c020001 	stcvc	0, cr0, [r2], {1}
 298:	000d0c0e 	andeq	r0, sp, lr, lsl #24
 29c:	0000001c 	andeq	r0, r0, ip, lsl r0
 2a0:	0000028c 	andeq	r0, r0, ip, lsl #5
 2a4:	080004b4 	stmdaeq	r0, {r2, r4, r5, r7, sl}
 2a8:	0000006c 	andeq	r0, r0, ip, rrx
 2ac:	84080e42 	strhi	r0, [r8], #-3650	@ 0xfffff1be
 2b0:	66018e02 	strvs	r8, [r1], -r2, lsl #28
 2b4:	0ec4ce0a 	cdpeq	14, 12, cr12, cr4, cr10, {0}
 2b8:	000b4200 	andeq	r4, fp, r0, lsl #4
 2bc:	0000000c 	andeq	r0, r0, ip
 2c0:	0000028c 	andeq	r0, r0, ip, lsl #5
 2c4:	08000520 	stmdaeq	r0, {r5, r8, sl}
 2c8:	00000018 	andeq	r0, r0, r8, lsl r0
 2cc:	0000001c 	andeq	r0, r0, ip, lsl r0
 2d0:	0000028c 	andeq	r0, r0, ip, lsl #5
 2d4:	08000538 	stmdaeq	r0, {r3, r4, r5, r8, sl}
 2d8:	00000040 	andeq	r0, r0, r0, asr #32
 2dc:	84080e44 	strhi	r0, [r8], #-3652	@ 0xfffff1bc
 2e0:	52018e02 	andpl	r8, r1, #2, 28
 2e4:	0ec4ce0a 	cdpeq	14, 12, cr12, cr4, cr10, {0}
 2e8:	000b4200 	andeq	r4, fp, r0, lsl #4
 2ec:	00000014 	andeq	r0, r0, r4, lsl r0
 2f0:	0000028c 	andeq	r0, r0, ip, lsl #5
 2f4:	08000578 	stmdaeq	r0, {r3, r4, r5, r6, r8, sl}
 2f8:	00000018 	andeq	r0, r0, r8, lsl r0
 2fc:	83080e41 	tsthi	r8, #1040	@ 0x410
 300:	00018e02 	andeq	r8, r1, r2, lsl #28
 304:	00000014 	andeq	r0, r0, r4, lsl r0
 308:	0000028c 	andeq	r0, r0, ip, lsl #5
 30c:	08000590 	stmdaeq	r0, {r4, r7, r8, sl}
 310:	00000018 	andeq	r0, r0, r8, lsl r0
 314:	83080e41 	tsthi	r8, #1040	@ 0x410
 318:	00018e02 	andeq	r8, r1, r2, lsl #28
 31c:	00000018 	andeq	r0, r0, r8, lsl r0
 320:	0000028c 	andeq	r0, r0, ip, lsl #5
 324:	080005a8 	stmdaeq	r0, {r3, r5, r7, r8, sl}
 328:	00000040 	andeq	r0, r0, r0, asr #32
 32c:	84080e44 	strhi	r0, [r8], #-3652	@ 0xfffff1bc
 330:	52018e02 	andpl	r8, r1, #2, 28
 334:	000ec4ce 	andeq	ip, lr, lr, asr #9
 338:	0000000c 	andeq	r0, r0, ip
 33c:	0000028c 	andeq	r0, r0, ip, lsl #5
 340:	080005e8 	stmdaeq	r0, {r3, r5, r6, r7, r8, sl}
 344:	0000000c 	andeq	r0, r0, ip
 348:	0000000c 	andeq	r0, r0, ip
 34c:	0000028c 	andeq	r0, r0, ip, lsl #5
 350:	080005f4 	stmdaeq	r0, {r2, r4, r5, r6, r7, r8, sl}
 354:	0000000c 	andeq	r0, r0, ip
 358:	0000001c 	andeq	r0, r0, ip, lsl r0
 35c:	0000028c 	andeq	r0, r0, ip, lsl #5
 360:	08000600 	stmdaeq	r0, {r9, sl}
 364:	000000a4 	andeq	r0, r0, r4, lsr #1
 368:	83180e41 	tsthi	r8, #1040	@ 0x410
 36c:	85058406 	strhi	r8, [r5, #-1030]	@ 0xfffffbfa
 370:	87038604 	strhi	r8, [r3, -r4, lsl #12]
 374:	00018e02 	andeq	r8, r1, r2, lsl #28
 378:	0000001c 	andeq	r0, r0, ip, lsl r0
 37c:	0000028c 	andeq	r0, r0, ip, lsl #5
 380:	080006a4 	stmdaeq	r0, {r2, r5, r7, r9, sl}
 384:	00000030 	andeq	r0, r0, r0, lsr r0
 388:	84080e41 	strhi	r0, [r8], #-3649	@ 0xfffff1bf
 38c:	47018e02 	strmi	r8, [r1, -r2, lsl #28]
 390:	0ec4ce0a 	cdpeq	14, 12, cr12, cr4, cr10, {0}
 394:	000b4200 	andeq	r4, fp, r0, lsl #4
 398:	00000018 	andeq	r0, r0, r8, lsl r0
 39c:	0000028c 	andeq	r0, r0, ip, lsl #5
 3a0:	080006d4 	stmdaeq	r0, {r2, r4, r6, r7, r9, sl}
 3a4:	0000001c 	andeq	r0, r0, ip, lsl r0
 3a8:	83080e41 	tsthi	r8, #1040	@ 0x410
 3ac:	44018e02 	strmi	r8, [r1], #-3586	@ 0xfffff1fe
 3b0:	000ec3ce 	andeq	ip, lr, lr, asr #7
 3b4:	00000018 	andeq	r0, r0, r8, lsl r0
 3b8:	0000028c 	andeq	r0, r0, ip, lsl #5
 3bc:	080006f0 	stmdaeq	r0, {r4, r5, r6, r7, r9, sl}
 3c0:	0000001c 	andeq	r0, r0, ip, lsl r0
 3c4:	83080e41 	tsthi	r8, #1040	@ 0x410
 3c8:	47018e02 	strmi	r8, [r1, -r2, lsl #28]
 3cc:	000ec3ce 	andeq	ip, lr, lr, asr #7
 3d0:	0000000c 	andeq	r0, r0, ip
 3d4:	ffffffff 			@ <UNDEFINED> instruction: 0xffffffff
 3d8:	7c020001 	stcvc	0, cr0, [r2], {1}
 3dc:	000d0c0e 	andeq	r0, sp, lr, lsl #24
 3e0:	00000020 	andeq	r0, r0, r0, lsr #32
 3e4:	000003d0 			@ <UNDEFINED> instruction: 0x000003d0
 3e8:	0800070c 	stmdaeq	r0, {r2, r3, r8, r9, sl}
 3ec:	0000003c 	andeq	r0, r0, ip, lsr r0
 3f0:	83200e42 			@ <UNDEFINED> instruction: 0x83200e42
 3f4:	85078408 	strhi	r8, [r7, #-1032]	@ 0xfffffbf8
 3f8:	87058606 	strhi	r8, [r5, -r6, lsl #12]
 3fc:	89038804 	stmdbhi	r3, {r2, fp, pc}
 400:	00018e02 	andeq	r8, r1, r2, lsl #28
 404:	0000000c 	andeq	r0, r0, ip
 408:	ffffffff 			@ <UNDEFINED> instruction: 0xffffffff
 40c:	7c020001 	stcvc	0, cr0, [r2], {1}
 410:	000d0c0e 	andeq	r0, sp, lr, lsl #24
 414:	00000014 	andeq	r0, r0, r4, lsl r0
 418:	00000404 	andeq	r0, r0, r4, lsl #8
 41c:	08000748 	stmdaeq	r0, {r3, r6, r8, r9, sl}
 420:	00000022 	andeq	r0, r0, r2, lsr #32
 424:	84080e41 	strhi	r0, [r8], #-3649	@ 0xfffff1bf
 428:	00018e02 	andeq	r8, r1, r2, lsl #28
 42c:	0000000c 	andeq	r0, r0, ip
 430:	00000404 	andeq	r0, r0, r4, lsl #8
 434:	0800076a 	stmdaeq	r0, {r1, r3, r5, r6, r8, r9, sl}
 438:	00000004 	andeq	r0, r0, r4
 43c:	00000024 	andeq	r0, r0, r4, lsr #32
 440:	00000404 	andeq	r0, r0, r4, lsl #8
 444:	0800076e 	stmdaeq	r0, {r1, r2, r3, r5, r6, r8, r9, sl}
 448:	00000038 	andeq	r0, r0, r8, lsr r0
 44c:	84180e42 	ldrhi	r0, [r8], #-3650	@ 0xfffff1be
 450:	86058506 	strhi	r8, [r5], -r6, lsl #10
 454:	88038704 	stmdahi	r3, {r2, r8, r9, sl, pc}
 458:	58018e02 	stmdapl	r1, {r1, r9, sl, fp, pc}
 45c:	c6c7c8ce 	strbgt	ip, [r7], lr, asr #17
 460:	000ec4c5 	andeq	ip, lr, r5, asr #9
 464:	00000014 	andeq	r0, r0, r4, lsl r0
 468:	00000404 	andeq	r0, r0, r4, lsl #8
 46c:	080007a6 	stmdaeq	r0, {r1, r2, r5, r7, r8, r9, sl}
 470:	00000026 	andeq	r0, r0, r6, lsr #32
 474:	84080e41 	strhi	r0, [r8], #-3649	@ 0xfffff1bf
 478:	00018e02 	andeq	r8, r1, r2, lsl #28
 47c:	0000000c 	andeq	r0, r0, ip
 480:	00000404 	andeq	r0, r0, r4, lsl #8
 484:	080007cc 	stmdaeq	r0, {r2, r3, r6, r7, r8, r9, sl}
 488:	00000008 	andeq	r0, r0, r8
 48c:	0000000c 	andeq	r0, r0, ip
 490:	ffffffff 			@ <UNDEFINED> instruction: 0xffffffff
 494:	7c020001 	stcvc	0, cr0, [r2], {1}
 498:	000d0c0e 	andeq	r0, sp, lr, lsl #24
 49c:	0000000c 	andeq	r0, r0, ip
 4a0:	0000048c 	andeq	r0, r0, ip, lsl #9
 4a4:	080007d4 	stmdaeq	r0, {r2, r4, r6, r7, r8, r9, sl}
 4a8:	00000010 	andeq	r0, r0, r0, lsl r0
 4ac:	0000000c 	andeq	r0, r0, ip
 4b0:	ffffffff 			@ <UNDEFINED> instruction: 0xffffffff
 4b4:	7c020001 	stcvc	0, cr0, [r2], {1}
 4b8:	000d0c0e 	andeq	r0, sp, lr, lsl #24
 4bc:	00000018 	andeq	r0, r0, r8, lsl r0
 4c0:	000004ac 	andeq	r0, r0, ip, lsr #9
 4c4:	080007e4 	stmdaeq	r0, {r2, r5, r6, r7, r8, r9, sl}
 4c8:	00000020 	andeq	r0, r0, r0, lsr #32
 4cc:	83100e41 	tsthi	r0, #1040	@ 0x410
 4d0:	85038404 	strhi	r8, [r3, #-1028]	@ 0xfffffbfc
 4d4:	00018e02 	andeq	r8, r1, r2, lsl #28
 4d8:	0000000c 	andeq	r0, r0, ip
 4dc:	ffffffff 			@ <UNDEFINED> instruction: 0xffffffff
 4e0:	7c020001 	stcvc	0, cr0, [r2], {1}
 4e4:	000d0c0e 	andeq	r0, sp, lr, lsl #24
 4e8:	00000024 	andeq	r0, r0, r4, lsr #32
 4ec:	000004d8 			@ <UNDEFINED> instruction: 0x000004d8
 4f0:	08000804 	stmdaeq	r0, {r2, fp}
 4f4:	000000bc 	strheq	r0, [r0], -ip
 4f8:	84100e44 	ldrhi	r0, [r0], #-3652	@ 0xfffff1bc
 4fc:	86038504 	strhi	r8, [r3], -r4, lsl #10
 500:	02018e02 	andeq	r8, r1, #2, 28
 504:	c6ce0a55 			@ <UNDEFINED> instruction: 0xc6ce0a55
 508:	000ec4c5 	andeq	ip, lr, r5, asr #9
 50c:	00000b41 	andeq	r0, r0, r1, asr #22
 510:	0000000c 	andeq	r0, r0, ip
 514:	ffffffff 			@ <UNDEFINED> instruction: 0xffffffff
 518:	7c020001 	stcvc	0, cr0, [r2], {1}
 51c:	000d0c0e 	andeq	r0, sp, lr, lsl #24
 520:	00000018 	andeq	r0, r0, r8, lsl r0
 524:	00000510 	andeq	r0, r0, r0, lsl r5
 528:	080008c0 	stmdaeq	r0, {r6, r7, fp}
 52c:	00000024 	andeq	r0, r0, r4, lsr #32
 530:	83100e41 	tsthi	r0, #1040	@ 0x410
 534:	85038404 	strhi	r8, [r3, #-1028]	@ 0xfffffbfc
 538:	00018e02 	andeq	r8, r1, r2, lsl #28
 53c:	0000000c 	andeq	r0, r0, ip
 540:	ffffffff 			@ <UNDEFINED> instruction: 0xffffffff
 544:	7c020001 	stcvc	0, cr0, [r2], {1}
 548:	000d0c0e 	andeq	r0, sp, lr, lsl #24
 54c:	00000018 	andeq	r0, r0, r8, lsl r0
 550:	0000053c 	andeq	r0, r0, ip, lsr r5
 554:	080008e4 	stmdaeq	r0, {r2, r5, r6, r7, fp}
 558:	00000024 	andeq	r0, r0, r4, lsr #32
 55c:	83100e41 	tsthi	r0, #1040	@ 0x410
 560:	85038404 	strhi	r8, [r3, #-1028]	@ 0xfffffbfc
 564:	00018e02 	andeq	r8, r1, r2, lsl #28
 568:	0000000c 	andeq	r0, r0, ip
 56c:	ffffffff 			@ <UNDEFINED> instruction: 0xffffffff
 570:	7c020001 	stcvc	0, cr0, [r2], {1}
 574:	000d0c0e 	andeq	r0, sp, lr, lsl #24
 578:	00000018 	andeq	r0, r0, r8, lsl r0
 57c:	00000568 	andeq	r0, r0, r8, ror #10
 580:	08000908 	stmdaeq	r0, {r3, r8, fp}
 584:	00000024 	andeq	r0, r0, r4, lsr #32
 588:	83100e41 	tsthi	r0, #1040	@ 0x410
 58c:	85038404 	strhi	r8, [r3, #-1028]	@ 0xfffffbfc
 590:	00018e02 	andeq	r8, r1, r2, lsl #28
 594:	0000000c 	andeq	r0, r0, ip
 598:	ffffffff 			@ <UNDEFINED> instruction: 0xffffffff
 59c:	7c020001 	stcvc	0, cr0, [r2], {1}
 5a0:	000d0c0e 	andeq	r0, sp, lr, lsl #24
 5a4:	00000018 	andeq	r0, r0, r8, lsl r0
 5a8:	00000594 	muleq	r0, r4, r5
 5ac:	0800092c 	stmdaeq	r0, {r2, r3, r5, r8, fp}
 5b0:	00000048 	andeq	r0, r0, r8, asr #32
 5b4:	84100e41 	ldrhi	r0, [r0], #-3649	@ 0xfffff1bf
 5b8:	86038504 	strhi	r8, [r3], -r4, lsl #10
 5bc:	00018e02 	andeq	r8, r1, r2, lsl #28
 5c0:	0000000c 	andeq	r0, r0, ip
 5c4:	ffffffff 			@ <UNDEFINED> instruction: 0xffffffff
 5c8:	7c020001 	stcvc	0, cr0, [r2], {1}
 5cc:	000d0c0e 	andeq	r0, sp, lr, lsl #24
 5d0:	0000000c 	andeq	r0, r0, ip
 5d4:	000005c0 	andeq	r0, r0, r0, asr #11
 5d8:	08000974 	stmdaeq	r0, {r2, r4, r5, r6, r8, fp}
 5dc:	00000002 	andeq	r0, r0, r2
 5e0:	0000000c 	andeq	r0, r0, ip
 5e4:	000005c0 	andeq	r0, r0, r0, asr #11
 5e8:	08000976 	stmdaeq	r0, {r1, r2, r4, r5, r6, r8, fp}
 5ec:	00000002 	andeq	r0, r0, r2
 5f0:	0000000c 	andeq	r0, r0, ip
 5f4:	000005c0 	andeq	r0, r0, r0, asr #11
 5f8:	08000978 	stmdaeq	r0, {r3, r4, r5, r6, r8, fp}
 5fc:	00000002 	andeq	r0, r0, r2
 600:	0000000c 	andeq	r0, r0, ip
 604:	000005c0 	andeq	r0, r0, r0, asr #11
 608:	0800097a 	stmdaeq	r0, {r1, r3, r4, r5, r6, r8, fp}
 60c:	00000002 	andeq	r0, r0, r2
 610:	0000000c 	andeq	r0, r0, ip
 614:	000005c0 	andeq	r0, r0, r0, asr #11
 618:	0800097c 	stmdaeq	r0, {r2, r3, r4, r5, r6, r8, fp}
 61c:	00000002 	andeq	r0, r0, r2
 620:	0000000c 	andeq	r0, r0, ip
 624:	000005c0 	andeq	r0, r0, r0, asr #11
 628:	0800097e 	stmdaeq	r0, {r1, r2, r3, r4, r5, r6, r8, fp}
 62c:	00000002 	andeq	r0, r0, r2
 630:	0000000c 	andeq	r0, r0, ip
 634:	000005c0 	andeq	r0, r0, r0, asr #11
 638:	08000980 	stmdaeq	r0, {r7, r8, fp}
 63c:	00000004 	andeq	r0, r0, r4
 640:	0000000c 	andeq	r0, r0, ip
 644:	000005c0 	andeq	r0, r0, r0, asr #11
 648:	08000984 	stmdaeq	r0, {r2, r7, r8, fp}
 64c:	00000004 	andeq	r0, r0, r4
 650:	0000000c 	andeq	r0, r0, ip
 654:	000005c0 	andeq	r0, r0, r0, asr #11
 658:	08000988 	stmdaeq	r0, {r3, r7, r8, fp}
 65c:	00000002 	andeq	r0, r0, r2
 660:	0000000c 	andeq	r0, r0, ip
 664:	000005c0 	andeq	r0, r0, r0, asr #11
 668:	0800098a 	stmdaeq	r0, {r1, r3, r7, r8, fp}
 66c:	00000002 	andeq	r0, r0, r2
 670:	0000000c 	andeq	r0, r0, ip
 674:	ffffffff 			@ <UNDEFINED> instruction: 0xffffffff
 678:	7c020001 	stcvc	0, cr0, [r2], {1}
 67c:	000d0c0e 	andeq	r0, sp, lr, lsl #24
 680:	00000024 	andeq	r0, r0, r4, lsr #32
 684:	00000670 	andeq	r0, r0, r0, ror r6
 688:	0800098c 	stmdaeq	r0, {r2, r3, r7, r8, fp}
 68c:	00000094 	muleq	r0, r4, r0
 690:	83100e41 	tsthi	r0, #1040	@ 0x410
 694:	85038404 	strhi	r8, [r3, #-1028]	@ 0xfffffbfc
 698:	53018e02 	tstpl	r1, #2, 28
 69c:	c4c5ce0a 	strbgt	ip, [r5], #3594	@ 0xe0a
 6a0:	42000ec3 	andmi	r0, r0, #3120	@ 0xc30
 6a4:	0000000b 	andeq	r0, r0, fp
 6a8:	0000000c 	andeq	r0, r0, ip
 6ac:	ffffffff 			@ <UNDEFINED> instruction: 0xffffffff
 6b0:	7c020001 	stcvc	0, cr0, [r2], {1}
 6b4:	000d0c0e 	andeq	r0, sp, lr, lsl #24
 6b8:	00000018 	andeq	r0, r0, r8, lsl r0
 6bc:	000006a8 	andeq	r0, r0, r8, lsr #13
 6c0:	08000a20 	stmdaeq	r0, {r5, r9, fp}
 6c4:	00000044 	andeq	r0, r0, r4, asr #32
 6c8:	84100e41 	ldrhi	r0, [r0], #-3649	@ 0xfffff1bf
 6cc:	86038504 	strhi	r8, [r3], -r4, lsl #10
 6d0:	00018e02 	andeq	r8, r1, r2, lsl #28
 6d4:	00000020 	andeq	r0, r0, r0, lsr #32
 6d8:	000006a8 	andeq	r0, r0, r8, lsr #13
 6dc:	08000a64 	stmdaeq	r0, {r2, r5, r6, r9, fp}
 6e0:	00000100 	andeq	r0, r0, r0, lsl #2
 6e4:	83200e42 			@ <UNDEFINED> instruction: 0x83200e42
 6e8:	85078408 	strhi	r8, [r7, #-1032]	@ 0xfffffbf8
 6ec:	87058606 	strhi	r8, [r5, -r6, lsl #12]
 6f0:	89038804 	stmdbhi	r3, {r2, fp, pc}
 6f4:	00018e02 	andeq	r8, r1, r2, lsl #28
 6f8:	0000000c 	andeq	r0, r0, ip
 6fc:	ffffffff 			@ <UNDEFINED> instruction: 0xffffffff
 700:	7c020001 	stcvc	0, cr0, [r2], {1}
 704:	000d0c0e 	andeq	r0, sp, lr, lsl #24
 708:	0000000c 	andeq	r0, r0, ip
 70c:	000006f8 			@ <UNDEFINED> instruction: 0x000006f8
 710:	08000b64 	stmdaeq	r0, {r2, r5, r6, r8, r9, fp}
 714:	0000000c 	andeq	r0, r0, ip
 718:	0000000c 	andeq	r0, r0, ip
 71c:	000006f8 			@ <UNDEFINED> instruction: 0x000006f8
 720:	08000b70 	stmdaeq	r0, {r4, r5, r6, r8, r9, fp}
 724:	0000000c 	andeq	r0, r0, ip
 728:	0000000c 	andeq	r0, r0, ip
 72c:	ffffffff 			@ <UNDEFINED> instruction: 0xffffffff
 730:	7c020001 	stcvc	0, cr0, [r2], {1}
 734:	000d0c0e 	andeq	r0, sp, lr, lsl #24
 738:	0000001c 	andeq	r0, r0, ip, lsl r0
 73c:	00000728 	andeq	r0, r0, r8, lsr #14
 740:	08000b7c 	stmdaeq	r0, {r2, r3, r4, r5, r6, r8, r9, fp}
 744:	00000104 	andeq	r0, r0, r4, lsl #2
 748:	84180e44 	ldrhi	r0, [r8], #-3652	@ 0xfffff1bc
 74c:	86058506 	strhi	r8, [r5], -r6, lsl #10
 750:	88038704 	stmdahi	r3, {r2, r8, r9, sl, pc}
 754:	00018e02 	andeq	r8, r1, r2, lsl #28
 758:	00000018 	andeq	r0, r0, r8, lsl r0
 75c:	00000728 	andeq	r0, r0, r8, lsr #14
 760:	08000c80 	stmdaeq	r0, {r7, sl, fp}
 764:	00000050 	andeq	r0, r0, r0, asr r0
 768:	83100e41 	tsthi	r0, #1040	@ 0x410
 76c:	85038404 	strhi	r8, [r3, #-1028]	@ 0xfffffbfc
 770:	00018e02 	andeq	r8, r1, r2, lsl #28
 774:	0000000c 	andeq	r0, r0, ip
 778:	00000728 	andeq	r0, r0, r8, lsr #14
 77c:	08000cd0 	stmdaeq	r0, {r4, r6, r7, sl, fp}
 780:	00000028 	andeq	r0, r0, r8, lsr #32
 784:	0000000c 	andeq	r0, r0, ip
 788:	ffffffff 			@ <UNDEFINED> instruction: 0xffffffff
 78c:	7c020001 	stcvc	0, cr0, [r2], {1}
 790:	000d0c0e 	andeq	r0, sp, lr, lsl #24
 794:	00000018 	andeq	r0, r0, r8, lsl r0
 798:	00000784 	andeq	r0, r0, r4, lsl #15
 79c:	08000cf8 	stmdaeq	r0, {r3, r4, r5, r6, r7, sl, fp}
 7a0:	00000020 	andeq	r0, r0, r0, lsr #32
 7a4:	83100e41 	tsthi	r0, #1040	@ 0x410
 7a8:	85038404 	strhi	r8, [r3, #-1028]	@ 0xfffffbfc
 7ac:	00018e02 	andeq	r8, r1, r2, lsl #28
