
binaries/output.elf:     file format elf32-littlearm


Disassembly of section .isr_vector:

08000000 <vectors>:
 8000000:	20018000 	andcs	r8, r1, r0
 8000004:	08000229 	stmdaeq	r0, {r0, r3, r5, r9}
 8000008:	080002ad 	stmdaeq	r0, {r0, r2, r3, r5, r7, r9}
 800000c:	080002ad 	stmdaeq	r0, {r0, r2, r3, r5, r7, r9}
 8000010:	080002ad 	stmdaeq	r0, {r0, r2, r3, r5, r7, r9}
 8000014:	080002ad 	stmdaeq	r0, {r0, r2, r3, r5, r7, r9}
 8000018:	080002ad 	stmdaeq	r0, {r0, r2, r3, r5, r7, r9}
	...
 800002c:	080002ad 	stmdaeq	r0, {r0, r2, r3, r5, r7, r9}
 8000030:	080002ad 	stmdaeq	r0, {r0, r2, r3, r5, r7, r9}
 8000034:	00000000 	andeq	r0, r0, r0
 8000038:	080002ad 	stmdaeq	r0, {r0, r2, r3, r5, r7, r9}
 800003c:	080002ad 	stmdaeq	r0, {r0, r2, r3, r5, r7, r9}
 8000040:	080002ad 	stmdaeq	r0, {r0, r2, r3, r5, r7, r9}
 8000044:	080002ad 	stmdaeq	r0, {r0, r2, r3, r5, r7, r9}
 8000048:	080002ad 	stmdaeq	r0, {r0, r2, r3, r5, r7, r9}
 800004c:	080002ad 	stmdaeq	r0, {r0, r2, r3, r5, r7, r9}
 8000050:	080002ad 	stmdaeq	r0, {r0, r2, r3, r5, r7, r9}
 8000054:	080002ad 	stmdaeq	r0, {r0, r2, r3, r5, r7, r9}
 8000058:	080002ad 	stmdaeq	r0, {r0, r2, r3, r5, r7, r9}
 800005c:	080002ad 	stmdaeq	r0, {r0, r2, r3, r5, r7, r9}
 8000060:	080002ad 	stmdaeq	r0, {r0, r2, r3, r5, r7, r9}
 8000064:	080002ad 	stmdaeq	r0, {r0, r2, r3, r5, r7, r9}
 8000068:	080002ad 	stmdaeq	r0, {r0, r2, r3, r5, r7, r9}
 800006c:	080002ad 	stmdaeq	r0, {r0, r2, r3, r5, r7, r9}
 8000070:	080002ad 	stmdaeq	r0, {r0, r2, r3, r5, r7, r9}
 8000074:	080002ad 	stmdaeq	r0, {r0, r2, r3, r5, r7, r9}
 8000078:	080002ad 	stmdaeq	r0, {r0, r2, r3, r5, r7, r9}
 800007c:	080002ad 	stmdaeq	r0, {r0, r2, r3, r5, r7, r9}
 8000080:	080002ad 	stmdaeq	r0, {r0, r2, r3, r5, r7, r9}
 8000084:	080002ad 	stmdaeq	r0, {r0, r2, r3, r5, r7, r9}
 8000088:	080002ad 	stmdaeq	r0, {r0, r2, r3, r5, r7, r9}
 800008c:	080002ad 	stmdaeq	r0, {r0, r2, r3, r5, r7, r9}
 8000090:	080002ad 	stmdaeq	r0, {r0, r2, r3, r5, r7, r9}
 8000094:	080002ad 	stmdaeq	r0, {r0, r2, r3, r5, r7, r9}
 8000098:	080002ad 	stmdaeq	r0, {r0, r2, r3, r5, r7, r9}
 800009c:	080002ad 	stmdaeq	r0, {r0, r2, r3, r5, r7, r9}
 80000a0:	080002ad 	stmdaeq	r0, {r0, r2, r3, r5, r7, r9}
 80000a4:	080002ad 	stmdaeq	r0, {r0, r2, r3, r5, r7, r9}
 80000a8:	080002ad 	stmdaeq	r0, {r0, r2, r3, r5, r7, r9}
 80000ac:	080002ad 	stmdaeq	r0, {r0, r2, r3, r5, r7, r9}
 80000b0:	080002ad 	stmdaeq	r0, {r0, r2, r3, r5, r7, r9}
 80000b4:	080002ad 	stmdaeq	r0, {r0, r2, r3, r5, r7, r9}
 80000b8:	080002ad 	stmdaeq	r0, {r0, r2, r3, r5, r7, r9}
 80000bc:	080002ad 	stmdaeq	r0, {r0, r2, r3, r5, r7, r9}
 80000c0:	080002ad 	stmdaeq	r0, {r0, r2, r3, r5, r7, r9}
 80000c4:	080002ad 	stmdaeq	r0, {r0, r2, r3, r5, r7, r9}
 80000c8:	080002ad 	stmdaeq	r0, {r0, r2, r3, r5, r7, r9}
 80000cc:	080002ad 	stmdaeq	r0, {r0, r2, r3, r5, r7, r9}
 80000d0:	080002ad 	stmdaeq	r0, {r0, r2, r3, r5, r7, r9}
 80000d4:	080002ad 	stmdaeq	r0, {r0, r2, r3, r5, r7, r9}
 80000d8:	080002ad 	stmdaeq	r0, {r0, r2, r3, r5, r7, r9}
 80000dc:	080002ad 	stmdaeq	r0, {r0, r2, r3, r5, r7, r9}
 80000e0:	080002ad 	stmdaeq	r0, {r0, r2, r3, r5, r7, r9}
 80000e4:	080002ad 	stmdaeq	r0, {r0, r2, r3, r5, r7, r9}
 80000e8:	080002ad 	stmdaeq	r0, {r0, r2, r3, r5, r7, r9}
 80000ec:	080002ad 	stmdaeq	r0, {r0, r2, r3, r5, r7, r9}
 80000f0:	080002ad 	stmdaeq	r0, {r0, r2, r3, r5, r7, r9}
 80000f4:	080002ad 	stmdaeq	r0, {r0, r2, r3, r5, r7, r9}
 80000f8:	080002ad 	stmdaeq	r0, {r0, r2, r3, r5, r7, r9}
 80000fc:	080002ad 	stmdaeq	r0, {r0, r2, r3, r5, r7, r9}
 8000100:	080002ad 	stmdaeq	r0, {r0, r2, r3, r5, r7, r9}
 8000104:	080002ad 	stmdaeq	r0, {r0, r2, r3, r5, r7, r9}
 8000108:	080002ad 	stmdaeq	r0, {r0, r2, r3, r5, r7, r9}
 800010c:	080002ad 	stmdaeq	r0, {r0, r2, r3, r5, r7, r9}
 8000110:	080002ad 	stmdaeq	r0, {r0, r2, r3, r5, r7, r9}
 8000114:	080002ad 	stmdaeq	r0, {r0, r2, r3, r5, r7, r9}
 8000118:	080002ad 	stmdaeq	r0, {r0, r2, r3, r5, r7, r9}
 800011c:	080002ad 	stmdaeq	r0, {r0, r2, r3, r5, r7, r9}
	...

Disassembly of section .text:

08000150 <_stack_init>:
 8000150:	f5a3 3a80 	sub.w	sl, r3, #65536	@ 0x10000
 8000154:	4770      	bx	lr
 8000156:	bf00      	nop

08000158 <_mainCRTStartup>:
 8000158:	4b17      	ldr	r3, [pc, #92]	@ (80001b8 <_mainCRTStartup+0x60>)
 800015a:	2b00      	cmp	r3, #0
 800015c:	bf08      	it	eq
 800015e:	4b13      	ldreq	r3, [pc, #76]	@ (80001ac <_mainCRTStartup+0x54>)
 8000160:	469d      	mov	sp, r3
 8000162:	f7ff fff5 	bl	8000150 <_stack_init>
 8000166:	2100      	movs	r1, #0
 8000168:	468b      	mov	fp, r1
 800016a:	460f      	mov	r7, r1
 800016c:	4813      	ldr	r0, [pc, #76]	@ (80001bc <_mainCRTStartup+0x64>)
 800016e:	4a14      	ldr	r2, [pc, #80]	@ (80001c0 <_mainCRTStartup+0x68>)
 8000170:	1a12      	subs	r2, r2, r0
 8000172:	f000 fb2f 	bl	80007d4 <memset>
 8000176:	4b0e      	ldr	r3, [pc, #56]	@ (80001b0 <_mainCRTStartup+0x58>)
 8000178:	2b00      	cmp	r3, #0
 800017a:	d000      	beq.n	800017e <_mainCRTStartup+0x26>
 800017c:	4798      	blx	r3
 800017e:	4b0d      	ldr	r3, [pc, #52]	@ (80001b4 <_mainCRTStartup+0x5c>)
 8000180:	2b00      	cmp	r3, #0
 8000182:	d000      	beq.n	8000186 <_mainCRTStartup+0x2e>
 8000184:	4798      	blx	r3
 8000186:	2000      	movs	r0, #0
 8000188:	2100      	movs	r1, #0
 800018a:	0004      	movs	r4, r0
 800018c:	000d      	movs	r5, r1
 800018e:	480d      	ldr	r0, [pc, #52]	@ (80001c4 <_mainCRTStartup+0x6c>)
 8000190:	2800      	cmp	r0, #0
 8000192:	d002      	beq.n	800019a <_mainCRTStartup+0x42>
 8000194:	480c      	ldr	r0, [pc, #48]	@ (80001c8 <_mainCRTStartup+0x70>)
 8000196:	f3af 8000 	nop.w
 800019a:	f000 fbc7 	bl	800092c <__libc_init_array>
 800019e:	0020      	movs	r0, r4
 80001a0:	0029      	movs	r1, r5
 80001a2:	f000 f813 	bl	80001cc <main>
 80001a6:	f000 f973 	bl	8000490 <exit>
 80001aa:	bf00      	nop
 80001ac:	00080000 	andeq	r0, r8, r0
	...
 80001bc:	2000006c 	andcs	r0, r0, ip, rrx
 80001c0:	200001d8 			@ <UNDEFINED> instruction: 0x200001d8
	...

080001cc <main>:
 80001cc:	b480      	push	{r7}
 80001ce:	b083      	sub	sp, #12
 80001d0:	af00      	add	r7, sp, #0
 80001d2:	4b11      	ldr	r3, [pc, #68]	@ (8000218 <main+0x4c>)
 80001d4:	681b      	ldr	r3, [r3, #0]
 80001d6:	4a10      	ldr	r2, [pc, #64]	@ (8000218 <main+0x4c>)
 80001d8:	f043 0301 	orr.w	r3, r3, #1
 80001dc:	6013      	str	r3, [r2, #0]
 80001de:	4b0f      	ldr	r3, [pc, #60]	@ (800021c <main+0x50>)
 80001e0:	681b      	ldr	r3, [r3, #0]
 80001e2:	4a0e      	ldr	r2, [pc, #56]	@ (800021c <main+0x50>)
 80001e4:	f443 6380 	orr.w	r3, r3, #1024	@ 0x400
 80001e8:	6013      	str	r3, [r2, #0]
 80001ea:	4b0c      	ldr	r3, [pc, #48]	@ (800021c <main+0x50>)
 80001ec:	681b      	ldr	r3, [r3, #0]
 80001ee:	4a0b      	ldr	r2, [pc, #44]	@ (800021c <main+0x50>)
 80001f0:	f423 6300 	bic.w	r3, r3, #2048	@ 0x800
 80001f4:	6013      	str	r3, [r2, #0]
 80001f6:	4b0a      	ldr	r3, [pc, #40]	@ (8000220 <main+0x54>)
 80001f8:	681b      	ldr	r3, [r3, #0]
 80001fa:	4a09      	ldr	r2, [pc, #36]	@ (8000220 <main+0x54>)
 80001fc:	f083 0320 	eor.w	r3, r3, #32
 8000200:	6013      	str	r3, [r2, #0]
 8000202:	2300      	movs	r3, #0
 8000204:	607b      	str	r3, [r7, #4]
 8000206:	e002      	b.n	800020e <main+0x42>
 8000208:	687b      	ldr	r3, [r7, #4]
 800020a:	3301      	adds	r3, #1
 800020c:	607b      	str	r3, [r7, #4]
 800020e:	687b      	ldr	r3, [r7, #4]
 8000210:	4a04      	ldr	r2, [pc, #16]	@ (8000224 <main+0x58>)
 8000212:	4293      	cmp	r3, r2
 8000214:	ddf8      	ble.n	8000208 <main+0x3c>
 8000216:	e7ee      	b.n	80001f6 <main+0x2a>
 8000218:	40023830 	andmi	r3, r2, r0, lsr r8
 800021c:	40020000 	andmi	r0, r2, r0
 8000220:	40020014 	andmi	r0, r2, r4, lsl r0
 8000224:	0001869f 	muleq	r1, pc, r6	@ <UNPREDICTABLE>

08000228 <reset_handler>:
 8000228:	b580      	push	{r7, lr}
 800022a:	b086      	sub	sp, #24
 800022c:	af00      	add	r7, sp, #0
 800022e:	4a1a      	ldr	r2, [pc, #104]	@ (8000298 <reset_handler+0x70>)
 8000230:	4b1a      	ldr	r3, [pc, #104]	@ (800029c <reset_handler+0x74>)
 8000232:	1ad3      	subs	r3, r2, r3
 8000234:	607b      	str	r3, [r7, #4]
 8000236:	4b19      	ldr	r3, [pc, #100]	@ (800029c <reset_handler+0x74>)
 8000238:	617b      	str	r3, [r7, #20]
 800023a:	4b19      	ldr	r3, [pc, #100]	@ (80002a0 <reset_handler+0x78>)
 800023c:	613b      	str	r3, [r7, #16]
 800023e:	2300      	movs	r3, #0
 8000240:	60fb      	str	r3, [r7, #12]
 8000242:	e00a      	b.n	800025a <reset_handler+0x32>
 8000244:	693a      	ldr	r2, [r7, #16]
 8000246:	1c53      	adds	r3, r2, #1
 8000248:	613b      	str	r3, [r7, #16]
 800024a:	697b      	ldr	r3, [r7, #20]
 800024c:	1c59      	adds	r1, r3, #1
 800024e:	6179      	str	r1, [r7, #20]
 8000250:	7812      	ldrb	r2, [r2, #0]
 8000252:	701a      	strb	r2, [r3, #0]
 8000254:	68fb      	ldr	r3, [r7, #12]
 8000256:	3301      	adds	r3, #1
 8000258:	60fb      	str	r3, [r7, #12]
 800025a:	68fa      	ldr	r2, [r7, #12]
 800025c:	687b      	ldr	r3, [r7, #4]
 800025e:	429a      	cmp	r2, r3
 8000260:	d3f0      	bcc.n	8000244 <reset_handler+0x1c>
 8000262:	4a10      	ldr	r2, [pc, #64]	@ (80002a4 <reset_handler+0x7c>)
 8000264:	4b10      	ldr	r3, [pc, #64]	@ (80002a8 <reset_handler+0x80>)
 8000266:	1ad3      	subs	r3, r2, r3
 8000268:	607b      	str	r3, [r7, #4]
 800026a:	4b0f      	ldr	r3, [pc, #60]	@ (80002a8 <reset_handler+0x80>)
 800026c:	617b      	str	r3, [r7, #20]
 800026e:	2300      	movs	r3, #0
 8000270:	60bb      	str	r3, [r7, #8]
 8000272:	e007      	b.n	8000284 <reset_handler+0x5c>
 8000274:	697b      	ldr	r3, [r7, #20]
 8000276:	1c5a      	adds	r2, r3, #1
 8000278:	617a      	str	r2, [r7, #20]
 800027a:	2200      	movs	r2, #0
 800027c:	701a      	strb	r2, [r3, #0]
 800027e:	68bb      	ldr	r3, [r7, #8]
 8000280:	3301      	adds	r3, #1
 8000282:	60bb      	str	r3, [r7, #8]
 8000284:	68ba      	ldr	r2, [r7, #8]
 8000286:	687b      	ldr	r3, [r7, #4]
 8000288:	429a      	cmp	r2, r3
 800028a:	d3f3      	bcc.n	8000274 <reset_handler+0x4c>
 800028c:	f000 fb4e 	bl	800092c <__libc_init_array>
 8000290:	f7ff ff9c 	bl	80001cc <main>
 8000294:	bf00      	nop
 8000296:	e7fd      	b.n	8000294 <reset_handler+0x6c>
 8000298:	20000064 	andcs	r0, r0, r4, rrx
 800029c:	20000000 	andcs	r0, r0, r0
 80002a0:	08000d84 	stmdaeq	r0, {r2, r7, r8, sl, fp}
 80002a4:	200001d8 			@ <UNDEFINED> instruction: 0x200001d8
 80002a8:	2000006c 	andcs	r0, r0, ip, rrx

080002ac <default_handler>:
 80002ac:	b480      	push	{r7}
 80002ae:	af00      	add	r7, sp, #0
 80002b0:	bf00      	nop
 80002b2:	e7fd      	b.n	80002b0 <default_handler+0x4>

080002b4 <_sbrk>:
 80002b4:	b480      	push	{r7}
 80002b6:	b085      	sub	sp, #20
 80002b8:	af00      	add	r7, sp, #0
 80002ba:	6078      	str	r0, [r7, #4]
 80002bc:	4b0d      	ldr	r3, [pc, #52]	@ (80002f4 <_sbrk+0x40>)
 80002be:	60fb      	str	r3, [r7, #12]
 80002c0:	4b0d      	ldr	r3, [pc, #52]	@ (80002f8 <_sbrk+0x44>)
 80002c2:	681a      	ldr	r2, [r3, #0]
 80002c4:	687b      	ldr	r3, [r7, #4]
 80002c6:	4413      	add	r3, r2
 80002c8:	68fa      	ldr	r2, [r7, #12]
 80002ca:	429a      	cmp	r2, r3
 80002cc:	d202      	bcs.n	80002d4 <_sbrk+0x20>
 80002ce:	f04f 33ff 	mov.w	r3, #4294967295	@ 0xffffffff
 80002d2:	e009      	b.n	80002e8 <_sbrk+0x34>
 80002d4:	4b08      	ldr	r3, [pc, #32]	@ (80002f8 <_sbrk+0x44>)
 80002d6:	681b      	ldr	r3, [r3, #0]
 80002d8:	60bb      	str	r3, [r7, #8]
 80002da:	4b07      	ldr	r3, [pc, #28]	@ (80002f8 <_sbrk+0x44>)
 80002dc:	681a      	ldr	r2, [r3, #0]
 80002de:	687b      	ldr	r3, [r7, #4]
 80002e0:	4413      	add	r3, r2
 80002e2:	4a05      	ldr	r2, [pc, #20]	@ (80002f8 <_sbrk+0x44>)
 80002e4:	6013      	str	r3, [r2, #0]
 80002e6:	68bb      	ldr	r3, [r7, #8]
 80002e8:	4618      	mov	r0, r3
 80002ea:	3714      	adds	r7, #20
 80002ec:	46bd      	mov	sp, r7
 80002ee:	f85d 7b04 	ldr.w	r7, [sp], #4
 80002f2:	4770      	bx	lr
 80002f4:	200007d8 			@ <UNDEFINED> instruction: 0x200007d8
 80002f8:	20000000 	andcs	r0, r0, r0

080002fc <_exit>:
 80002fc:	b480      	push	{r7}
 80002fe:	b083      	sub	sp, #12
 8000300:	af00      	add	r7, sp, #0
 8000302:	6078      	str	r0, [r7, #4]
 8000304:	bf00      	nop
 8000306:	e7fd      	b.n	8000304 <_exit+0x8>

08000308 <_read>:
 8000308:	b480      	push	{r7}
 800030a:	b085      	sub	sp, #20
 800030c:	af00      	add	r7, sp, #0
 800030e:	60f8      	str	r0, [r7, #12]
 8000310:	60b9      	str	r1, [r7, #8]
 8000312:	607a      	str	r2, [r7, #4]
 8000314:	2300      	movs	r3, #0
 8000316:	4618      	mov	r0, r3
 8000318:	3714      	adds	r7, #20
 800031a:	46bd      	mov	sp, r7
 800031c:	f85d 7b04 	ldr.w	r7, [sp], #4
 8000320:	4770      	bx	lr

08000322 <_write>:
 8000322:	b480      	push	{r7}
 8000324:	b085      	sub	sp, #20
 8000326:	af00      	add	r7, sp, #0
 8000328:	60f8      	str	r0, [r7, #12]
 800032a:	60b9      	str	r1, [r7, #8]
 800032c:	607a      	str	r2, [r7, #4]
 800032e:	687b      	ldr	r3, [r7, #4]
 8000330:	4618      	mov	r0, r3
 8000332:	3714      	adds	r7, #20
 8000334:	46bd      	mov	sp, r7
 8000336:	f85d 7b04 	ldr.w	r7, [sp], #4
 800033a:	4770      	bx	lr

0800033c <_close>:
 800033c:	b480      	push	{r7}
 800033e:	b083      	sub	sp, #12
 8000340:	af00      	add	r7, sp, #0
 8000342:	6078      	str	r0, [r7, #4]
 8000344:	2300      	movs	r3, #0
 8000346:	4618      	mov	r0, r3
 8000348:	370c      	adds	r7, #12
 800034a:	46bd      	mov	sp, r7
 800034c:	f85d 7b04 	ldr.w	r7, [sp], #4
 8000350:	4770      	bx	lr

08000352 <_lseek>:
 8000352:	b480      	push	{r7}
 8000354:	b085      	sub	sp, #20
 8000356:	af00      	add	r7, sp, #0
 8000358:	60f8      	str	r0, [r7, #12]
 800035a:	60b9      	str	r1, [r7, #8]
 800035c:	607a      	str	r2, [r7, #4]
 800035e:	2300      	movs	r3, #0
 8000360:	4618      	mov	r0, r3
 8000362:	3714      	adds	r7, #20
 8000364:	46bd      	mov	sp, r7
 8000366:	f85d 7b04 	ldr.w	r7, [sp], #4
 800036a:	4770      	bx	lr

0800036c <_fstat>:
 800036c:	b480      	push	{r7}
 800036e:	b083      	sub	sp, #12
 8000370:	af00      	add	r7, sp, #0
 8000372:	6078      	str	r0, [r7, #4]
 8000374:	6039      	str	r1, [r7, #0]
 8000376:	2300      	movs	r3, #0
 8000378:	4618      	mov	r0, r3
 800037a:	370c      	adds	r7, #12
 800037c:	46bd      	mov	sp, r7
 800037e:	f85d 7b04 	ldr.w	r7, [sp], #4
 8000382:	4770      	bx	lr

08000384 <_isatty>:
 8000384:	b480      	push	{r7}
 8000386:	b083      	sub	sp, #12
 8000388:	af00      	add	r7, sp, #0
 800038a:	6078      	str	r0, [r7, #4]
 800038c:	2300      	movs	r3, #0
 800038e:	4618      	mov	r0, r3
 8000390:	370c      	adds	r7, #12
 8000392:	46bd      	mov	sp, r7
 8000394:	f85d 7b04 	ldr.w	r7, [sp], #4
 8000398:	4770      	bx	lr

0800039a <_kill>:
 800039a:	b480      	push	{r7}
 800039c:	b083      	sub	sp, #12
 800039e:	af00      	add	r7, sp, #0
 80003a0:	6078      	str	r0, [r7, #4]
 80003a2:	6039      	str	r1, [r7, #0]
 80003a4:	f04f 33ff 	mov.w	r3, #4294967295	@ 0xffffffff
 80003a8:	4618      	mov	r0, r3
 80003aa:	370c      	adds	r7, #12
 80003ac:	46bd      	mov	sp, r7
 80003ae:	f85d 7b04 	ldr.w	r7, [sp], #4
 80003b2:	4770      	bx	lr

080003b4 <_fcntl>:
 80003b4:	b40e      	push	{r1, r2, r3}
 80003b6:	b480      	push	{r7}
 80003b8:	b082      	sub	sp, #8
 80003ba:	af00      	add	r7, sp, #0
 80003bc:	6078      	str	r0, [r7, #4]
 80003be:	f04f 33ff 	mov.w	r3, #4294967295	@ 0xffffffff
 80003c2:	4618      	mov	r0, r3
 80003c4:	3708      	adds	r7, #8
 80003c6:	46bd      	mov	sp, r7
 80003c8:	f85d 7b04 	ldr.w	r7, [sp], #4
 80003cc:	b003      	add	sp, #12
 80003ce:	4770      	bx	lr

080003d0 <_dup>:
 80003d0:	b480      	push	{r7}
 80003d2:	b083      	sub	sp, #12
 80003d4:	af00      	add	r7, sp, #0
 80003d6:	6078      	str	r0, [r7, #4]
 80003d8:	f04f 33ff 	mov.w	r3, #4294967295	@ 0xffffffff
 80003dc:	4618      	mov	r0, r3
 80003de:	370c      	adds	r7, #12
 80003e0:	46bd      	mov	sp, r7
 80003e2:	f85d 7b04 	ldr.w	r7, [sp], #4
 80003e6:	4770      	bx	lr

080003e8 <_dup2>:
 80003e8:	b480      	push	{r7}
 80003ea:	b083      	sub	sp, #12
 80003ec:	af00      	add	r7, sp, #0
 80003ee:	6078      	str	r0, [r7, #4]
 80003f0:	6039      	str	r1, [r7, #0]
 80003f2:	f04f 33ff 	mov.w	r3, #4294967295	@ 0xffffffff
 80003f6:	4618      	mov	r0, r3
 80003f8:	370c      	adds	r7, #12
 80003fa:	46bd      	mov	sp, r7
 80003fc:	f85d 7b04 	ldr.w	r7, [sp], #4
 8000400:	4770      	bx	lr
 8000402:	bf00      	nop

08000404 <deregister_tm_clones>:
 8000404:	4803      	ldr	r0, [pc, #12]	@ (8000414 <deregister_tm_clones+0x10>)
 8000406:	4b04      	ldr	r3, [pc, #16]	@ (8000418 <deregister_tm_clones+0x14>)
 8000408:	4283      	cmp	r3, r0
 800040a:	d002      	beq.n	8000412 <deregister_tm_clones+0xe>
 800040c:	4b03      	ldr	r3, [pc, #12]	@ (800041c <deregister_tm_clones+0x18>)
 800040e:	b103      	cbz	r3, 8000412 <deregister_tm_clones+0xe>
 8000410:	4718      	bx	r3
 8000412:	4770      	bx	lr
 8000414:	2000006c 	andcs	r0, r0, ip, rrx
 8000418:	2000006c 	andcs	r0, r0, ip, rrx
 800041c:	00000000 	andeq	r0, r0, r0

08000420 <register_tm_clones>:
 8000420:	4805      	ldr	r0, [pc, #20]	@ (8000438 <register_tm_clones+0x18>)
 8000422:	4b06      	ldr	r3, [pc, #24]	@ (800043c <register_tm_clones+0x1c>)
 8000424:	1a1b      	subs	r3, r3, r0
 8000426:	0fd9      	lsrs	r1, r3, #31
 8000428:	eb01 01a3 	add.w	r1, r1, r3, asr #2
 800042c:	1049      	asrs	r1, r1, #1
 800042e:	d002      	beq.n	8000436 <register_tm_clones+0x16>
 8000430:	4b03      	ldr	r3, [pc, #12]	@ (8000440 <register_tm_clones+0x20>)
 8000432:	b103      	cbz	r3, 8000436 <register_tm_clones+0x16>
 8000434:	4718      	bx	r3
 8000436:	4770      	bx	lr
 8000438:	2000006c 	andcs	r0, r0, ip, rrx
 800043c:	2000006c 	andcs	r0, r0, ip, rrx
 8000440:	00000000 	andeq	r0, r0, r0

08000444 <__do_global_dtors_aux>:
 8000444:	b510      	push	{r4, lr}
 8000446:	4c06      	ldr	r4, [pc, #24]	@ (8000460 <__do_global_dtors_aux+0x1c>)
 8000448:	7823      	ldrb	r3, [r4, #0]
 800044a:	b943      	cbnz	r3, 800045e <__do_global_dtors_aux+0x1a>
 800044c:	f7ff ffda 	bl	8000404 <deregister_tm_clones>
 8000450:	4b04      	ldr	r3, [pc, #16]	@ (8000464 <__do_global_dtors_aux+0x20>)
 8000452:	b113      	cbz	r3, 800045a <__do_global_dtors_aux+0x16>
 8000454:	4804      	ldr	r0, [pc, #16]	@ (8000468 <__do_global_dtors_aux+0x24>)
 8000456:	f3af 8000 	nop.w
 800045a:	2301      	movs	r3, #1
 800045c:	7023      	strb	r3, [r4, #0]
 800045e:	bd10      	pop	{r4, pc}
 8000460:	2000006c 	andcs	r0, r0, ip, rrx
 8000464:	00000000 	andeq	r0, r0, r0
 8000468:	08000d78 	stmdaeq	r0, {r3, r4, r5, r6, r8, sl, fp}

0800046c <frame_dummy>:
 800046c:	b508      	push	{r3, lr}
 800046e:	4b05      	ldr	r3, [pc, #20]	@ (8000484 <frame_dummy+0x18>)
 8000470:	b11b      	cbz	r3, 800047a <frame_dummy+0xe>
 8000472:	4905      	ldr	r1, [pc, #20]	@ (8000488 <frame_dummy+0x1c>)
 8000474:	4805      	ldr	r0, [pc, #20]	@ (800048c <frame_dummy+0x20>)
 8000476:	f3af 8000 	nop.w
 800047a:	e8bd 4008 	ldmia.w	sp!, {r3, lr}
 800047e:	f7ff bfcf 	b.w	8000420 <register_tm_clones>
 8000482:	bf00      	nop
 8000484:	00000000 	andeq	r0, r0, r0
 8000488:	20000070 	andcs	r0, r0, r0, ror r0
 800048c:	08000d78 	stmdaeq	r0, {r3, r4, r5, r6, r8, sl, fp}

08000490 <exit>:
 8000490:	b508      	push	{r3, lr}
 8000492:	4b06      	ldr	r3, [pc, #24]	@ (80004ac <exit+0x1c>)
 8000494:	4604      	mov	r4, r0
 8000496:	b113      	cbz	r3, 800049e <exit+0xe>
 8000498:	2100      	movs	r1, #0
 800049a:	f3af 8000 	nop.w
 800049e:	4b04      	ldr	r3, [pc, #16]	@ (80004b0 <exit+0x20>)
 80004a0:	681b      	ldr	r3, [r3, #0]
 80004a2:	b103      	cbz	r3, 80004a6 <exit+0x16>
 80004a4:	4798      	blx	r3
 80004a6:	4620      	mov	r0, r4
 80004a8:	f7ff ff28 	bl	80002fc <_exit>
 80004ac:	00000000 	andeq	r0, r0, r0
 80004b0:	200001c0 	andcs	r0, r0, r0, asr #3

080004b4 <std>:
 80004b4:	2300      	movs	r3, #0
 80004b6:	b510      	push	{r4, lr}
 80004b8:	4604      	mov	r4, r0
 80004ba:	e9c0 3300 	strd	r3, r3, [r0]
 80004be:	e9c0 3304 	strd	r3, r3, [r0, #16]
 80004c2:	6083      	str	r3, [r0, #8]
 80004c4:	8181      	strh	r1, [r0, #12]
 80004c6:	6643      	str	r3, [r0, #100]	@ 0x64
 80004c8:	81c2      	strh	r2, [r0, #14]
 80004ca:	6183      	str	r3, [r0, #24]
 80004cc:	4619      	mov	r1, r3
 80004ce:	2208      	movs	r2, #8
 80004d0:	305c      	adds	r0, #92	@ 0x5c
 80004d2:	f000 f97f 	bl	80007d4 <memset>
 80004d6:	4b0d      	ldr	r3, [pc, #52]	@ (800050c <std+0x58>)
 80004d8:	6263      	str	r3, [r4, #36]	@ 0x24
 80004da:	4b0d      	ldr	r3, [pc, #52]	@ (8000510 <std+0x5c>)
 80004dc:	62a3      	str	r3, [r4, #40]	@ 0x28
 80004de:	4b0d      	ldr	r3, [pc, #52]	@ (8000514 <std+0x60>)
 80004e0:	62e3      	str	r3, [r4, #44]	@ 0x2c
 80004e2:	4b0d      	ldr	r3, [pc, #52]	@ (8000518 <std+0x64>)
 80004e4:	6323      	str	r3, [r4, #48]	@ 0x30
 80004e6:	4b0d      	ldr	r3, [pc, #52]	@ (800051c <std+0x68>)
 80004e8:	6224      	str	r4, [r4, #32]
 80004ea:	429c      	cmp	r4, r3
 80004ec:	d006      	beq.n	80004fc <std+0x48>
 80004ee:	f103 0268 	add.w	r2, r3, #104	@ 0x68
 80004f2:	4294      	cmp	r4, r2
 80004f4:	d002      	beq.n	80004fc <std+0x48>
 80004f6:	33d0      	adds	r3, #208	@ 0xd0
 80004f8:	429c      	cmp	r4, r3
 80004fa:	d105      	bne.n	8000508 <std+0x54>
 80004fc:	f104 0058 	add.w	r0, r4, #88	@ 0x58
 8000500:	e8bd 4010 	ldmia.w	sp!, {r4, lr}
 8000504:	f000 ba37 	b.w	8000976 <__retarget_lock_init_recursive>
 8000508:	bd10      	pop	{r4, pc}
 800050a:	bf00      	nop
 800050c:	08000749 	stmdaeq	r0, {r0, r3, r6, r8, r9, sl}
 8000510:	0800076f 	stmdaeq	r0, {r0, r1, r2, r3, r5, r6, r8, r9, sl}
 8000514:	080007a7 	stmdaeq	r0, {r0, r1, r2, r5, r7, r8, r9, sl}
 8000518:	080007cd 	stmdaeq	r0, {r0, r2, r3, r6, r7, r8, r9, sl}
 800051c:	20000088 	andcs	r0, r0, r8, lsl #1

08000520 <stdio_exit_handler>:
 8000520:	4a02      	ldr	r2, [pc, #8]	@ (800052c <stdio_exit_handler+0xc>)
 8000522:	4903      	ldr	r1, [pc, #12]	@ (8000530 <stdio_exit_handler+0x10>)
 8000524:	4803      	ldr	r0, [pc, #12]	@ (8000534 <stdio_exit_handler+0x14>)
 8000526:	f000 b8f1 	b.w	800070c <_fwalk_sglue>
 800052a:	bf00      	nop
 800052c:	20000008 	andcs	r0, r0, r8
 8000530:	08000c81 	stmdaeq	r0, {r0, r7, sl, fp}
 8000534:	20000018 	andcs	r0, r0, r8, lsl r0

08000538 <cleanup_stdio>:
 8000538:	6841      	ldr	r1, [r0, #4]
 800053a:	4b0c      	ldr	r3, [pc, #48]	@ (800056c <cleanup_stdio+0x34>)
 800053c:	4299      	cmp	r1, r3
 800053e:	b510      	push	{r4, lr}
 8000540:	4604      	mov	r4, r0
 8000542:	d001      	beq.n	8000548 <cleanup_stdio+0x10>
 8000544:	f000 fb9c 	bl	8000c80 <_fflush_r>
 8000548:	68a1      	ldr	r1, [r4, #8]
 800054a:	4b09      	ldr	r3, [pc, #36]	@ (8000570 <cleanup_stdio+0x38>)
 800054c:	4299      	cmp	r1, r3
 800054e:	d002      	beq.n	8000556 <cleanup_stdio+0x1e>
 8000550:	4620      	mov	r0, r4
 8000552:	f000 fb95 	bl	8000c80 <_fflush_r>
 8000556:	68e1      	ldr	r1, [r4, #12]
 8000558:	4b06      	ldr	r3, [pc, #24]	@ (8000574 <cleanup_stdio+0x3c>)
 800055a:	4299      	cmp	r1, r3
 800055c:	d004      	beq.n	8000568 <cleanup_stdio+0x30>
 800055e:	4620      	mov	r0, r4
 8000560:	e8bd 4010 	ldmia.w	sp!, {r4, lr}
 8000564:	f000 bb8c 	b.w	8000c80 <_fflush_r>
 8000568:	bd10      	pop	{r4, pc}
 800056a:	bf00      	nop
 800056c:	20000088 	andcs	r0, r0, r8, lsl #1
 8000570:	200000f0 			@ <UNDEFINED> instruction: 0x200000f0
 8000574:	20000158 	andcs	r0, r0, r8, asr r1

08000578 <__fp_lock>:
 8000578:	b508      	push	{r3, lr}
 800057a:	6e4b      	ldr	r3, [r1, #100]	@ 0x64
 800057c:	07da      	lsls	r2, r3, #31
 800057e:	d405      	bmi.n	800058c <__fp_lock+0x14>
 8000580:	898b      	ldrh	r3, [r1, #12]
 8000582:	059b      	lsls	r3, r3, #22
 8000584:	d402      	bmi.n	800058c <__fp_lock+0x14>
 8000586:	6d88      	ldr	r0, [r1, #88]	@ 0x58
 8000588:	f000 f9f9 	bl	800097e <__retarget_lock_acquire_recursive>
 800058c:	2000      	movs	r0, #0
 800058e:	bd08      	pop	{r3, pc}

08000590 <__fp_unlock>:
 8000590:	b508      	push	{r3, lr}
 8000592:	6e4b      	ldr	r3, [r1, #100]	@ 0x64
 8000594:	07da      	lsls	r2, r3, #31
 8000596:	d405      	bmi.n	80005a4 <__fp_unlock+0x14>
 8000598:	898b      	ldrh	r3, [r1, #12]
 800059a:	059b      	lsls	r3, r3, #22
 800059c:	d402      	bmi.n	80005a4 <__fp_unlock+0x14>
 800059e:	6d88      	ldr	r0, [r1, #88]	@ 0x58
 80005a0:	f000 f9f3 	bl	800098a <__retarget_lock_release_recursive>
 80005a4:	2000      	movs	r0, #0
 80005a6:	bd08      	pop	{r3, pc}

080005a8 <global_stdio_init.part.0>:
 80005a8:	4b0c      	ldr	r3, [pc, #48]	@ (80005dc <global_stdio_init.part.0+0x34>)
 80005aa:	4a0d      	ldr	r2, [pc, #52]	@ (80005e0 <global_stdio_init.part.0+0x38>)
 80005ac:	480d      	ldr	r0, [pc, #52]	@ (80005e4 <global_stdio_init.part.0+0x3c>)
 80005ae:	b510      	push	{r4, lr}
 80005b0:	2104      	movs	r1, #4
 80005b2:	601a      	str	r2, [r3, #0]
 80005b4:	2200      	movs	r2, #0
 80005b6:	f7ff ff7d 	bl	80004b4 <std>
 80005ba:	4b0a      	ldr	r3, [pc, #40]	@ (80005e4 <global_stdio_init.part.0+0x3c>)
 80005bc:	2201      	movs	r2, #1
 80005be:	461c      	mov	r4, r3
 80005c0:	2109      	movs	r1, #9
 80005c2:	f103 0068 	add.w	r0, r3, #104	@ 0x68
 80005c6:	f7ff ff75 	bl	80004b4 <std>
 80005ca:	f104 00d0 	add.w	r0, r4, #208	@ 0xd0
 80005ce:	2202      	movs	r2, #2
 80005d0:	e8bd 4010 	ldmia.w	sp!, {r4, lr}
 80005d4:	2112      	movs	r1, #18
 80005d6:	f7ff bf6d 	b.w	80004b4 <std>
 80005da:	bf00      	nop
 80005dc:	200001c0 	andcs	r0, r0, r0, asr #3
 80005e0:	08000521 	stmdaeq	r0, {r0, r5, r8, sl}
 80005e4:	20000088 	andcs	r0, r0, r8, lsl #1

080005e8 <__sfp_lock_acquire>:
 80005e8:	4801      	ldr	r0, [pc, #4]	@ (80005f0 <__sfp_lock_acquire+0x8>)
 80005ea:	f000 b9c8 	b.w	800097e <__retarget_lock_acquire_recursive>
 80005ee:	bf00      	nop
 80005f0:	200001cf 	andcs	r0, r0, pc, asr #3

080005f4 <__sfp_lock_release>:
 80005f4:	4801      	ldr	r0, [pc, #4]	@ (80005fc <__sfp_lock_release+0x8>)
 80005f6:	f000 b9c8 	b.w	800098a <__retarget_lock_release_recursive>
 80005fa:	bf00      	nop
 80005fc:	200001cf 	andcs	r0, r0, pc, asr #3

08000600 <__sfp>:
 8000600:	b5f8      	push	{r3, r4, r5, r6, r7, lr}
 8000602:	4607      	mov	r7, r0
 8000604:	f7ff fff0 	bl	80005e8 <__sfp_lock_acquire>
 8000608:	4b23      	ldr	r3, [pc, #140]	@ (8000698 <__sfp+0x98>)
 800060a:	681b      	ldr	r3, [r3, #0]
 800060c:	b90b      	cbnz	r3, 8000612 <__sfp+0x12>
 800060e:	f7ff ffcb 	bl	80005a8 <global_stdio_init.part.0>
 8000612:	4e22      	ldr	r6, [pc, #136]	@ (800069c <__sfp+0x9c>)
 8000614:	e9d6 3401 	ldrd	r3, r4, [r6, #4]
 8000618:	3b01      	subs	r3, #1
 800061a:	d50f      	bpl.n	800063c <__sfp+0x3c>
 800061c:	6835      	ldr	r5, [r6, #0]
 800061e:	2d00      	cmp	r5, #0
 8000620:	d138      	bne.n	8000694 <__sfp+0x94>
 8000622:	f44f 71d6 	mov.w	r1, #428	@ 0x1ac
 8000626:	4638      	mov	r0, r7
 8000628:	f000 fa1c 	bl	8000a64 <_malloc_r>
 800062c:	4604      	mov	r4, r0
 800062e:	bb28      	cbnz	r0, 800067c <__sfp+0x7c>
 8000630:	6030      	str	r0, [r6, #0]
 8000632:	f7ff ffdf 	bl	80005f4 <__sfp_lock_release>
 8000636:	230c      	movs	r3, #12
 8000638:	603b      	str	r3, [r7, #0]
 800063a:	e01b      	b.n	8000674 <__sfp+0x74>
 800063c:	f9b4 500c 	ldrsh.w	r5, [r4, #12]
 8000640:	b9d5      	cbnz	r5, 8000678 <__sfp+0x78>
 8000642:	4b17      	ldr	r3, [pc, #92]	@ (80006a0 <__sfp+0xa0>)
 8000644:	60e3      	str	r3, [r4, #12]
 8000646:	f104 0058 	add.w	r0, r4, #88	@ 0x58
 800064a:	6665      	str	r5, [r4, #100]	@ 0x64
 800064c:	f000 f993 	bl	8000976 <__retarget_lock_init_recursive>
 8000650:	f7ff ffd0 	bl	80005f4 <__sfp_lock_release>
 8000654:	e9c4 5501 	strd	r5, r5, [r4, #4]
 8000658:	e9c4 5504 	strd	r5, r5, [r4, #16]
 800065c:	6025      	str	r5, [r4, #0]
 800065e:	61a5      	str	r5, [r4, #24]
 8000660:	2208      	movs	r2, #8
 8000662:	4629      	mov	r1, r5
 8000664:	f104 005c 	add.w	r0, r4, #92	@ 0x5c
 8000668:	f000 f8b4 	bl	80007d4 <memset>
 800066c:	e9c4 550d 	strd	r5, r5, [r4, #52]	@ 0x34
 8000670:	e9c4 5512 	strd	r5, r5, [r4, #72]	@ 0x48
 8000674:	4620      	mov	r0, r4
 8000676:	bdf8      	pop	{r3, r4, r5, r6, r7, pc}
 8000678:	3468      	adds	r4, #104	@ 0x68
 800067a:	e7cd      	b.n	8000618 <__sfp+0x18>
 800067c:	2304      	movs	r3, #4
 800067e:	6005      	str	r5, [r0, #0]
 8000680:	6043      	str	r3, [r0, #4]
 8000682:	300c      	adds	r0, #12
 8000684:	4629      	mov	r1, r5
 8000686:	60a0      	str	r0, [r4, #8]
 8000688:	f44f 72d0 	mov.w	r2, #416	@ 0x1a0
 800068c:	f000 f8a2 	bl	80007d4 <memset>
 8000690:	4625      	mov	r5, r4
 8000692:	6034      	str	r4, [r6, #0]
 8000694:	462e      	mov	r6, r5
 8000696:	e7bd      	b.n	8000614 <__sfp+0x14>
 8000698:	200001c0 	andcs	r0, r0, r0, asr #3
 800069c:	20000008 	andcs	r0, r0, r8
 80006a0:	ffff0001 			@ <UNDEFINED> instruction: 0xffff0001

080006a4 <__sinit>:
 80006a4:	b510      	push	{r4, lr}
 80006a6:	4604      	mov	r4, r0
 80006a8:	f7ff ff9e 	bl	80005e8 <__sfp_lock_acquire>
 80006ac:	6a23      	ldr	r3, [r4, #32]
 80006ae:	b11b      	cbz	r3, 80006b8 <__sinit+0x14>
 80006b0:	e8bd 4010 	ldmia.w	sp!, {r4, lr}
 80006b4:	f7ff bf9e 	b.w	80005f4 <__sfp_lock_release>
 80006b8:	4b04      	ldr	r3, [pc, #16]	@ (80006cc <__sinit+0x28>)
 80006ba:	6223      	str	r3, [r4, #32]
 80006bc:	4b04      	ldr	r3, [pc, #16]	@ (80006d0 <__sinit+0x2c>)
 80006be:	681b      	ldr	r3, [r3, #0]
 80006c0:	2b00      	cmp	r3, #0
 80006c2:	d1f5      	bne.n	80006b0 <__sinit+0xc>
 80006c4:	f7ff ff70 	bl	80005a8 <global_stdio_init.part.0>
 80006c8:	e7f2      	b.n	80006b0 <__sinit+0xc>
 80006ca:	bf00      	nop
 80006cc:	08000539 	stmdaeq	r0, {r0, r3, r4, r5, r8, sl}
 80006d0:	200001c0 	andcs	r0, r0, r0, asr #3

080006d4 <__fp_lock_all>:
 80006d4:	b508      	push	{r3, lr}
 80006d6:	f7ff ff87 	bl	80005e8 <__sfp_lock_acquire>
 80006da:	e8bd 4008 	ldmia.w	sp!, {r3, lr}
 80006de:	4a02      	ldr	r2, [pc, #8]	@ (80006e8 <__fp_lock_all+0x14>)
 80006e0:	4902      	ldr	r1, [pc, #8]	@ (80006ec <__fp_lock_all+0x18>)
 80006e2:	2000      	movs	r0, #0
 80006e4:	f000 b812 	b.w	800070c <_fwalk_sglue>
 80006e8:	20000008 	andcs	r0, r0, r8
 80006ec:	08000579 	stmdaeq	r0, {r0, r3, r4, r5, r6, r8, sl}

080006f0 <__fp_unlock_all>:
 80006f0:	b508      	push	{r3, lr}
 80006f2:	4a04      	ldr	r2, [pc, #16]	@ (8000704 <__fp_unlock_all+0x14>)
 80006f4:	4904      	ldr	r1, [pc, #16]	@ (8000708 <__fp_unlock_all+0x18>)
 80006f6:	2000      	movs	r0, #0
 80006f8:	f000 f808 	bl	800070c <_fwalk_sglue>
 80006fc:	e8bd 4008 	ldmia.w	sp!, {r3, lr}
 8000700:	f7ff bf78 	b.w	80005f4 <__sfp_lock_release>
 8000704:	20000008 	andcs	r0, r0, r8
 8000708:	08000591 	stmdaeq	r0, {r0, r4, r7, r8, sl}

0800070c <_fwalk_sglue>:
 800070c:	e92d 43f8 	stmdb	sp!, {r3, r4, r5, r6, r7, r8, r9, lr}
 8000710:	4607      	mov	r7, r0
 8000712:	4688      	mov	r8, r1
 8000714:	4614      	mov	r4, r2
 8000716:	2600      	movs	r6, #0
 8000718:	e9d4 9501 	ldrd	r9, r5, [r4, #4]
 800071c:	f1b9 0901 	subs.w	r9, r9, #1
 8000720:	d505      	bpl.n	800072e <_fwalk_sglue+0x22>
 8000722:	6824      	ldr	r4, [r4, #0]
 8000724:	2c00      	cmp	r4, #0
 8000726:	d1f7      	bne.n	8000718 <_fwalk_sglue+0xc>
 8000728:	4630      	mov	r0, r6
 800072a:	e8bd 83f8 	ldmia.w	sp!, {r3, r4, r5, r6, r7, r8, r9, pc}
 800072e:	89ab      	ldrh	r3, [r5, #12]
 8000730:	2b01      	cmp	r3, #1
 8000732:	d907      	bls.n	8000744 <_fwalk_sglue+0x38>
 8000734:	f9b5 300e 	ldrsh.w	r3, [r5, #14]
 8000738:	3301      	adds	r3, #1
 800073a:	d003      	beq.n	8000744 <_fwalk_sglue+0x38>
 800073c:	4629      	mov	r1, r5
 800073e:	4638      	mov	r0, r7
 8000740:	47c0      	blx	r8
 8000742:	4306      	orrs	r6, r0
 8000744:	3568      	adds	r5, #104	@ 0x68
 8000746:	e7e9      	b.n	800071c <_fwalk_sglue+0x10>

08000748 <__sread>:
 8000748:	b510      	push	{r4, lr}
 800074a:	460c      	mov	r4, r1
 800074c:	f9b1 100e 	ldrsh.w	r1, [r1, #14]
 8000750:	f000 f8c8 	bl	80008e4 <_read_r>
 8000754:	2800      	cmp	r0, #0
 8000756:	bfab      	itete	ge
 8000758:	6d63      	ldrge	r3, [r4, #84]	@ 0x54
 800075a:	89a3      	ldrhlt	r3, [r4, #12]
 800075c:	181b      	addge	r3, r3, r0
 800075e:	f423 5380 	biclt.w	r3, r3, #4096	@ 0x1000
 8000762:	bfac      	ite	ge
 8000764:	6563      	strge	r3, [r4, #84]	@ 0x54
 8000766:	81a3      	strhlt	r3, [r4, #12]
 8000768:	bd10      	pop	{r4, pc}

0800076a <__seofread>:
 800076a:	2000      	movs	r0, #0
 800076c:	4770      	bx	lr

0800076e <__swrite>:
 800076e:	e92d 41f0 	stmdb	sp!, {r4, r5, r6, r7, r8, lr}
 8000772:	461f      	mov	r7, r3
 8000774:	898b      	ldrh	r3, [r1, #12]
 8000776:	05db      	lsls	r3, r3, #23
 8000778:	4605      	mov	r5, r0
 800077a:	460c      	mov	r4, r1
 800077c:	4616      	mov	r6, r2
 800077e:	d505      	bpl.n	800078c <__swrite+0x1e>
 8000780:	f9b1 100e 	ldrsh.w	r1, [r1, #14]
 8000784:	2302      	movs	r3, #2
 8000786:	2200      	movs	r2, #0
 8000788:	f000 f89a 	bl	80008c0 <_lseek_r>
 800078c:	89a3      	ldrh	r3, [r4, #12]
 800078e:	f9b4 100e 	ldrsh.w	r1, [r4, #14]
 8000792:	f423 5380 	bic.w	r3, r3, #4096	@ 0x1000
 8000796:	81a3      	strh	r3, [r4, #12]
 8000798:	4632      	mov	r2, r6
 800079a:	463b      	mov	r3, r7
 800079c:	4628      	mov	r0, r5
 800079e:	e8bd 41f0 	ldmia.w	sp!, {r4, r5, r6, r7, r8, lr}
 80007a2:	f000 b8b1 	b.w	8000908 <_write_r>

080007a6 <__sseek>:
 80007a6:	b510      	push	{r4, lr}
 80007a8:	460c      	mov	r4, r1
 80007aa:	f9b1 100e 	ldrsh.w	r1, [r1, #14]
 80007ae:	f000 f887 	bl	80008c0 <_lseek_r>
 80007b2:	f9b4 300c 	ldrsh.w	r3, [r4, #12]
 80007b6:	1c42      	adds	r2, r0, #1
 80007b8:	bf0b      	itete	eq
 80007ba:	f423 5380 	biceq.w	r3, r3, #4096	@ 0x1000
 80007be:	f443 5380 	orrne.w	r3, r3, #4096	@ 0x1000
 80007c2:	81a3      	strheq	r3, [r4, #12]
 80007c4:	81a3      	strhne	r3, [r4, #12]
 80007c6:	bf18      	it	ne
 80007c8:	6560      	strne	r0, [r4, #84]	@ 0x54
 80007ca:	bd10      	pop	{r4, pc}

080007cc <__sclose>:
 80007cc:	f9b1 100e 	ldrsh.w	r1, [r1, #14]
 80007d0:	f000 b808 	b.w	80007e4 <_close_r>

080007d4 <memset>:
 80007d4:	4402      	add	r2, r0
 80007d6:	4603      	mov	r3, r0
 80007d8:	4293      	cmp	r3, r2
 80007da:	d100      	bne.n	80007de <memset+0xa>
 80007dc:	4770      	bx	lr
 80007de:	f803 1b01 	strb.w	r1, [r3], #1
 80007e2:	e7f9      	b.n	80007d8 <memset+0x4>

080007e4 <_close_r>:
 80007e4:	b538      	push	{r3, r4, r5, lr}
 80007e6:	4d06      	ldr	r5, [pc, #24]	@ (8000800 <_close_r+0x1c>)
 80007e8:	2300      	movs	r3, #0
 80007ea:	4604      	mov	r4, r0
 80007ec:	4608      	mov	r0, r1
 80007ee:	602b      	str	r3, [r5, #0]
 80007f0:	f7ff fda4 	bl	800033c <_close>
 80007f4:	1c43      	adds	r3, r0, #1
 80007f6:	d102      	bne.n	80007fe <_close_r+0x1a>
 80007f8:	682b      	ldr	r3, [r5, #0]
 80007fa:	b103      	cbz	r3, 80007fe <_close_r+0x1a>
 80007fc:	6023      	str	r3, [r4, #0]
 80007fe:	bd38      	pop	{r3, r4, r5, pc}
 8000800:	200001c4 	andcs	r0, r0, r4, asr #3

08000804 <_reclaim_reent>:
 8000804:	4b2d      	ldr	r3, [pc, #180]	@ (80008bc <_reclaim_reent+0xb8>)
 8000806:	681b      	ldr	r3, [r3, #0]
 8000808:	4283      	cmp	r3, r0
 800080a:	b570      	push	{r4, r5, r6, lr}
 800080c:	4604      	mov	r4, r0
 800080e:	d053      	beq.n	80008b8 <_reclaim_reent+0xb4>
 8000810:	69c3      	ldr	r3, [r0, #28]
 8000812:	b31b      	cbz	r3, 800085c <_reclaim_reent+0x58>
 8000814:	68db      	ldr	r3, [r3, #12]
 8000816:	b163      	cbz	r3, 8000832 <_reclaim_reent+0x2e>
 8000818:	2500      	movs	r5, #0
 800081a:	69e3      	ldr	r3, [r4, #28]
 800081c:	68db      	ldr	r3, [r3, #12]
 800081e:	5959      	ldr	r1, [r3, r5]
 8000820:	b9b1      	cbnz	r1, 8000850 <_reclaim_reent+0x4c>
 8000822:	3504      	adds	r5, #4
 8000824:	2d80      	cmp	r5, #128	@ 0x80
 8000826:	d1f8      	bne.n	800081a <_reclaim_reent+0x16>
 8000828:	69e3      	ldr	r3, [r4, #28]
 800082a:	4620      	mov	r0, r4
 800082c:	68d9      	ldr	r1, [r3, #12]
 800082e:	f000 f8ad 	bl	800098c <_free_r>
 8000832:	69e3      	ldr	r3, [r4, #28]
 8000834:	6819      	ldr	r1, [r3, #0]
 8000836:	b111      	cbz	r1, 800083e <_reclaim_reent+0x3a>
 8000838:	4620      	mov	r0, r4
 800083a:	f000 f8a7 	bl	800098c <_free_r>
 800083e:	69e3      	ldr	r3, [r4, #28]
 8000840:	689d      	ldr	r5, [r3, #8]
 8000842:	b15d      	cbz	r5, 800085c <_reclaim_reent+0x58>
 8000844:	4629      	mov	r1, r5
 8000846:	4620      	mov	r0, r4
 8000848:	682d      	ldr	r5, [r5, #0]
 800084a:	f000 f89f 	bl	800098c <_free_r>
 800084e:	e7f8      	b.n	8000842 <_reclaim_reent+0x3e>
 8000850:	680e      	ldr	r6, [r1, #0]
 8000852:	4620      	mov	r0, r4
 8000854:	f000 f89a 	bl	800098c <_free_r>
 8000858:	4631      	mov	r1, r6
 800085a:	e7e1      	b.n	8000820 <_reclaim_reent+0x1c>
 800085c:	6961      	ldr	r1, [r4, #20]
 800085e:	b111      	cbz	r1, 8000866 <_reclaim_reent+0x62>
 8000860:	4620      	mov	r0, r4
 8000862:	f000 f893 	bl	800098c <_free_r>
 8000866:	69e1      	ldr	r1, [r4, #28]
 8000868:	b111      	cbz	r1, 8000870 <_reclaim_reent+0x6c>
 800086a:	4620      	mov	r0, r4
 800086c:	f000 f88e 	bl	800098c <_free_r>
 8000870:	6b21      	ldr	r1, [r4, #48]	@ 0x30
 8000872:	b111      	cbz	r1, 800087a <_reclaim_reent+0x76>
 8000874:	4620      	mov	r0, r4
 8000876:	f000 f889 	bl	800098c <_free_r>
 800087a:	6b61      	ldr	r1, [r4, #52]	@ 0x34
 800087c:	b111      	cbz	r1, 8000884 <_reclaim_reent+0x80>
 800087e:	4620      	mov	r0, r4
 8000880:	f000 f884 	bl	800098c <_free_r>
 8000884:	6ba1      	ldr	r1, [r4, #56]	@ 0x38
 8000886:	b111      	cbz	r1, 800088e <_reclaim_reent+0x8a>
 8000888:	4620      	mov	r0, r4
 800088a:	f000 f87f 	bl	800098c <_free_r>
 800088e:	6ca1      	ldr	r1, [r4, #72]	@ 0x48
 8000890:	b111      	cbz	r1, 8000898 <_reclaim_reent+0x94>
 8000892:	4620      	mov	r0, r4
 8000894:	f000 f87a 	bl	800098c <_free_r>
 8000898:	6c61      	ldr	r1, [r4, #68]	@ 0x44
 800089a:	b111      	cbz	r1, 80008a2 <_reclaim_reent+0x9e>
 800089c:	4620      	mov	r0, r4
 800089e:	f000 f875 	bl	800098c <_free_r>
 80008a2:	6ae1      	ldr	r1, [r4, #44]	@ 0x2c
 80008a4:	b111      	cbz	r1, 80008ac <_reclaim_reent+0xa8>
 80008a6:	4620      	mov	r0, r4
 80008a8:	f000 f870 	bl	800098c <_free_r>
 80008ac:	6a23      	ldr	r3, [r4, #32]
 80008ae:	b11b      	cbz	r3, 80008b8 <_reclaim_reent+0xb4>
 80008b0:	4620      	mov	r0, r4
 80008b2:	e8bd 4070 	ldmia.w	sp!, {r4, r5, r6, lr}
 80008b6:	4718      	bx	r3
 80008b8:	bd70      	pop	{r4, r5, r6, pc}
 80008ba:	bf00      	nop
 80008bc:	20000014 	andcs	r0, r0, r4, lsl r0

080008c0 <_lseek_r>:
 80008c0:	b538      	push	{r3, r4, r5, lr}
 80008c2:	4d07      	ldr	r5, [pc, #28]	@ (80008e0 <_lseek_r+0x20>)
 80008c4:	4604      	mov	r4, r0
 80008c6:	4608      	mov	r0, r1
 80008c8:	4611      	mov	r1, r2
 80008ca:	2200      	movs	r2, #0
 80008cc:	602a      	str	r2, [r5, #0]
 80008ce:	461a      	mov	r2, r3
 80008d0:	f7ff fd3f 	bl	8000352 <_lseek>
 80008d4:	1c43      	adds	r3, r0, #1
 80008d6:	d102      	bne.n	80008de <_lseek_r+0x1e>
 80008d8:	682b      	ldr	r3, [r5, #0]
 80008da:	b103      	cbz	r3, 80008de <_lseek_r+0x1e>
 80008dc:	6023      	str	r3, [r4, #0]
 80008de:	bd38      	pop	{r3, r4, r5, pc}
 80008e0:	200001c4 	andcs	r0, r0, r4, asr #3

080008e4 <_read_r>:
 80008e4:	b538      	push	{r3, r4, r5, lr}
 80008e6:	4d07      	ldr	r5, [pc, #28]	@ (8000904 <_read_r+0x20>)
 80008e8:	4604      	mov	r4, r0
 80008ea:	4608      	mov	r0, r1
 80008ec:	4611      	mov	r1, r2
 80008ee:	2200      	movs	r2, #0
 80008f0:	602a      	str	r2, [r5, #0]
 80008f2:	461a      	mov	r2, r3
 80008f4:	f7ff fd08 	bl	8000308 <_read>
 80008f8:	1c43      	adds	r3, r0, #1
 80008fa:	d102      	bne.n	8000902 <_read_r+0x1e>
 80008fc:	682b      	ldr	r3, [r5, #0]
 80008fe:	b103      	cbz	r3, 8000902 <_read_r+0x1e>
 8000900:	6023      	str	r3, [r4, #0]
 8000902:	bd38      	pop	{r3, r4, r5, pc}
 8000904:	200001c4 	andcs	r0, r0, r4, asr #3

08000908 <_write_r>:
 8000908:	b538      	push	{r3, r4, r5, lr}
 800090a:	4d07      	ldr	r5, [pc, #28]	@ (8000928 <_write_r+0x20>)
 800090c:	4604      	mov	r4, r0
 800090e:	4608      	mov	r0, r1
 8000910:	4611      	mov	r1, r2
 8000912:	2200      	movs	r2, #0
 8000914:	602a      	str	r2, [r5, #0]
 8000916:	461a      	mov	r2, r3
 8000918:	f7ff fd03 	bl	8000322 <_write>
 800091c:	1c43      	adds	r3, r0, #1
 800091e:	d102      	bne.n	8000926 <_write_r+0x1e>
 8000920:	682b      	ldr	r3, [r5, #0]
 8000922:	b103      	cbz	r3, 8000926 <_write_r+0x1e>
 8000924:	6023      	str	r3, [r4, #0]
 8000926:	bd38      	pop	{r3, r4, r5, pc}
 8000928:	200001c4 	andcs	r0, r0, r4, asr #3

0800092c <__libc_init_array>:
 800092c:	b570      	push	{r4, r5, r6, lr}
 800092e:	4b0d      	ldr	r3, [pc, #52]	@ (8000964 <__libc_init_array+0x38>)
 8000930:	4d0d      	ldr	r5, [pc, #52]	@ (8000968 <__libc_init_array+0x3c>)
 8000932:	1b5b      	subs	r3, r3, r5
 8000934:	109c      	asrs	r4, r3, #2
 8000936:	2600      	movs	r6, #0
 8000938:	42a6      	cmp	r6, r4
 800093a:	d109      	bne.n	8000950 <__libc_init_array+0x24>
 800093c:	f000 fa10 	bl	8000d60 <_etext>
 8000940:	4d0a      	ldr	r5, [pc, #40]	@ (800096c <__libc_init_array+0x40>)
 8000942:	4b0b      	ldr	r3, [pc, #44]	@ (8000970 <__libc_init_array+0x44>)
 8000944:	1b5b      	subs	r3, r3, r5
 8000946:	109c      	asrs	r4, r3, #2
 8000948:	2600      	movs	r6, #0
 800094a:	42a6      	cmp	r6, r4
 800094c:	d105      	bne.n	800095a <__libc_init_array+0x2e>
 800094e:	bd70      	pop	{r4, r5, r6, pc}
 8000950:	f855 3b04 	ldr.w	r3, [r5], #4
 8000954:	4798      	blx	r3
 8000956:	3601      	adds	r6, #1
 8000958:	e7ee      	b.n	8000938 <__libc_init_array+0xc>
 800095a:	f855 3b04 	ldr.w	r3, [r5], #4
 800095e:	4798      	blx	r3
 8000960:	3601      	adds	r6, #1
 8000962:	e7f2      	b.n	800094a <__libc_init_array+0x1e>
	...

08000974 <__retarget_lock_init>:
 8000974:	4770      	bx	lr

08000976 <__retarget_lock_init_recursive>:
 8000976:	4770      	bx	lr

08000978 <__retarget_lock_close>:
 8000978:	4770      	bx	lr

0800097a <__retarget_lock_close_recursive>:
 800097a:	4770      	bx	lr

0800097c <__retarget_lock_acquire>:
 800097c:	4770      	bx	lr

0800097e <__retarget_lock_acquire_recursive>:
 800097e:	4770      	bx	lr

08000980 <__retarget_lock_try_acquire>:
 8000980:	2001      	movs	r0, #1
 8000982:	4770      	bx	lr

08000984 <__retarget_lock_try_acquire_recursive>:
 8000984:	2001      	movs	r0, #1
 8000986:	4770      	bx	lr

08000988 <__retarget_lock_release>:
 8000988:	4770      	bx	lr

0800098a <__retarget_lock_release_recursive>:
 800098a:	4770      	bx	lr

0800098c <_free_r>:
 800098c:	b538      	push	{r3, r4, r5, lr}
 800098e:	4605      	mov	r5, r0
 8000990:	2900      	cmp	r1, #0
 8000992:	d041      	beq.n	8000a18 <_free_r+0x8c>
 8000994:	f851 3c04 	ldr.w	r3, [r1, #-4]
 8000998:	1f0c      	subs	r4, r1, #4
 800099a:	2b00      	cmp	r3, #0
 800099c:	bfb8      	it	lt
 800099e:	18e4      	addlt	r4, r4, r3
 80009a0:	f000 f8e0 	bl	8000b64 <__malloc_lock>
 80009a4:	4a1d      	ldr	r2, [pc, #116]	@ (8000a1c <_free_r+0x90>)
 80009a6:	6813      	ldr	r3, [r2, #0]
 80009a8:	b933      	cbnz	r3, 80009b8 <_free_r+0x2c>
 80009aa:	6063      	str	r3, [r4, #4]
 80009ac:	6014      	str	r4, [r2, #0]
 80009ae:	4628      	mov	r0, r5
 80009b0:	e8bd 4038 	ldmia.w	sp!, {r3, r4, r5, lr}
 80009b4:	f000 b8dc 	b.w	8000b70 <__malloc_unlock>
 80009b8:	42a3      	cmp	r3, r4
 80009ba:	d908      	bls.n	80009ce <_free_r+0x42>
 80009bc:	6820      	ldr	r0, [r4, #0]
 80009be:	1821      	adds	r1, r4, r0
 80009c0:	428b      	cmp	r3, r1
 80009c2:	bf01      	itttt	eq
 80009c4:	6819      	ldreq	r1, [r3, #0]
 80009c6:	685b      	ldreq	r3, [r3, #4]
 80009c8:	1809      	addeq	r1, r1, r0
 80009ca:	6021      	streq	r1, [r4, #0]
 80009cc:	e7ed      	b.n	80009aa <_free_r+0x1e>
 80009ce:	461a      	mov	r2, r3
 80009d0:	685b      	ldr	r3, [r3, #4]
 80009d2:	b10b      	cbz	r3, 80009d8 <_free_r+0x4c>
 80009d4:	42a3      	cmp	r3, r4
 80009d6:	d9fa      	bls.n	80009ce <_free_r+0x42>
 80009d8:	6811      	ldr	r1, [r2, #0]
 80009da:	1850      	adds	r0, r2, r1
 80009dc:	42a0      	cmp	r0, r4
 80009de:	d10b      	bne.n	80009f8 <_free_r+0x6c>
 80009e0:	6820      	ldr	r0, [r4, #0]
 80009e2:	4401      	add	r1, r0
 80009e4:	1850      	adds	r0, r2, r1
 80009e6:	4283      	cmp	r3, r0
 80009e8:	6011      	str	r1, [r2, #0]
 80009ea:	d1e0      	bne.n	80009ae <_free_r+0x22>
 80009ec:	6818      	ldr	r0, [r3, #0]
 80009ee:	685b      	ldr	r3, [r3, #4]
 80009f0:	6053      	str	r3, [r2, #4]
 80009f2:	4408      	add	r0, r1
 80009f4:	6010      	str	r0, [r2, #0]
 80009f6:	e7da      	b.n	80009ae <_free_r+0x22>
 80009f8:	d902      	bls.n	8000a00 <_free_r+0x74>
 80009fa:	230c      	movs	r3, #12
 80009fc:	602b      	str	r3, [r5, #0]
 80009fe:	e7d6      	b.n	80009ae <_free_r+0x22>
 8000a00:	6820      	ldr	r0, [r4, #0]
 8000a02:	1821      	adds	r1, r4, r0
 8000a04:	428b      	cmp	r3, r1
 8000a06:	bf04      	itt	eq
 8000a08:	6819      	ldreq	r1, [r3, #0]
 8000a0a:	685b      	ldreq	r3, [r3, #4]
 8000a0c:	6063      	str	r3, [r4, #4]
 8000a0e:	bf04      	itt	eq
 8000a10:	1809      	addeq	r1, r1, r0
 8000a12:	6021      	streq	r1, [r4, #0]
 8000a14:	6054      	str	r4, [r2, #4]
 8000a16:	e7ca      	b.n	80009ae <_free_r+0x22>
 8000a18:	bd38      	pop	{r3, r4, r5, pc}
 8000a1a:	bf00      	nop
 8000a1c:	200001d4 			@ <UNDEFINED> instruction: 0x200001d4

08000a20 <sbrk_aligned>:
 8000a20:	b570      	push	{r4, r5, r6, lr}
 8000a22:	4e0f      	ldr	r6, [pc, #60]	@ (8000a60 <sbrk_aligned+0x40>)
 8000a24:	460c      	mov	r4, r1
 8000a26:	6831      	ldr	r1, [r6, #0]
 8000a28:	4605      	mov	r5, r0
 8000a2a:	b911      	cbnz	r1, 8000a32 <sbrk_aligned+0x12>
 8000a2c:	f000 f964 	bl	8000cf8 <_sbrk_r>
 8000a30:	6030      	str	r0, [r6, #0]
 8000a32:	4621      	mov	r1, r4
 8000a34:	4628      	mov	r0, r5
 8000a36:	f000 f95f 	bl	8000cf8 <_sbrk_r>
 8000a3a:	1c43      	adds	r3, r0, #1
 8000a3c:	d103      	bne.n	8000a46 <sbrk_aligned+0x26>
 8000a3e:	f04f 34ff 	mov.w	r4, #4294967295	@ 0xffffffff
 8000a42:	4620      	mov	r0, r4
 8000a44:	bd70      	pop	{r4, r5, r6, pc}
 8000a46:	1cc4      	adds	r4, r0, #3
 8000a48:	f024 0403 	bic.w	r4, r4, #3
 8000a4c:	42a0      	cmp	r0, r4
 8000a4e:	d0f8      	beq.n	8000a42 <sbrk_aligned+0x22>
 8000a50:	1a21      	subs	r1, r4, r0
 8000a52:	4628      	mov	r0, r5
 8000a54:	f000 f950 	bl	8000cf8 <_sbrk_r>
 8000a58:	3001      	adds	r0, #1
 8000a5a:	d1f2      	bne.n	8000a42 <sbrk_aligned+0x22>
 8000a5c:	e7ef      	b.n	8000a3e <sbrk_aligned+0x1e>
 8000a5e:	bf00      	nop
 8000a60:	200001d0 			@ <UNDEFINED> instruction: 0x200001d0

08000a64 <_malloc_r>:
 8000a64:	e92d 43f8 	stmdb	sp!, {r3, r4, r5, r6, r7, r8, r9, lr}
 8000a68:	1ccd      	adds	r5, r1, #3
 8000a6a:	f025 0503 	bic.w	r5, r5, #3
 8000a6e:	3508      	adds	r5, #8
 8000a70:	2d0c      	cmp	r5, #12
 8000a72:	bf38      	it	cc
 8000a74:	250c      	movcc	r5, #12
 8000a76:	2d00      	cmp	r5, #0
 8000a78:	4606      	mov	r6, r0
 8000a7a:	db01      	blt.n	8000a80 <_malloc_r+0x1c>
 8000a7c:	42a9      	cmp	r1, r5
 8000a7e:	d904      	bls.n	8000a8a <_malloc_r+0x26>
 8000a80:	230c      	movs	r3, #12
 8000a82:	6033      	str	r3, [r6, #0]
 8000a84:	2000      	movs	r0, #0
 8000a86:	e8bd 83f8 	ldmia.w	sp!, {r3, r4, r5, r6, r7, r8, r9, pc}
 8000a8a:	f8df 80d4 	ldr.w	r8, [pc, #212]	@ 8000b60 <_malloc_r+0xfc>
 8000a8e:	f000 f869 	bl	8000b64 <__malloc_lock>
 8000a92:	f8d8 3000 	ldr.w	r3, [r8]
 8000a96:	461c      	mov	r4, r3
 8000a98:	bb44      	cbnz	r4, 8000aec <_malloc_r+0x88>
 8000a9a:	4629      	mov	r1, r5
 8000a9c:	4630      	mov	r0, r6
 8000a9e:	f7ff ffbf 	bl	8000a20 <sbrk_aligned>
 8000aa2:	1c43      	adds	r3, r0, #1
 8000aa4:	4604      	mov	r4, r0
 8000aa6:	d158      	bne.n	8000b5a <_malloc_r+0xf6>
 8000aa8:	f8d8 4000 	ldr.w	r4, [r8]
 8000aac:	4627      	mov	r7, r4
 8000aae:	2f00      	cmp	r7, #0
 8000ab0:	d143      	bne.n	8000b3a <_malloc_r+0xd6>
 8000ab2:	2c00      	cmp	r4, #0
 8000ab4:	d04b      	beq.n	8000b4e <_malloc_r+0xea>
 8000ab6:	6823      	ldr	r3, [r4, #0]
 8000ab8:	4639      	mov	r1, r7
 8000aba:	4630      	mov	r0, r6
 8000abc:	eb04 0903 	add.w	r9, r4, r3
 8000ac0:	f000 f91a 	bl	8000cf8 <_sbrk_r>
 8000ac4:	4581      	cmp	r9, r0
 8000ac6:	d142      	bne.n	8000b4e <_malloc_r+0xea>
 8000ac8:	6821      	ldr	r1, [r4, #0]
 8000aca:	1a6d      	subs	r5, r5, r1
 8000acc:	4629      	mov	r1, r5
 8000ace:	4630      	mov	r0, r6
 8000ad0:	f7ff ffa6 	bl	8000a20 <sbrk_aligned>
 8000ad4:	3001      	adds	r0, #1
 8000ad6:	d03a      	beq.n	8000b4e <_malloc_r+0xea>
 8000ad8:	6823      	ldr	r3, [r4, #0]
 8000ada:	442b      	add	r3, r5
 8000adc:	6023      	str	r3, [r4, #0]
 8000ade:	f8d8 3000 	ldr.w	r3, [r8]
 8000ae2:	685a      	ldr	r2, [r3, #4]
 8000ae4:	bb62      	cbnz	r2, 8000b40 <_malloc_r+0xdc>
 8000ae6:	f8c8 7000 	str.w	r7, [r8]
 8000aea:	e00f      	b.n	8000b0c <_malloc_r+0xa8>
 8000aec:	6822      	ldr	r2, [r4, #0]
 8000aee:	1b52      	subs	r2, r2, r5
 8000af0:	d420      	bmi.n	8000b34 <_malloc_r+0xd0>
 8000af2:	2a0b      	cmp	r2, #11
 8000af4:	d917      	bls.n	8000b26 <_malloc_r+0xc2>
 8000af6:	1961      	adds	r1, r4, r5
 8000af8:	42a3      	cmp	r3, r4
 8000afa:	6025      	str	r5, [r4, #0]
 8000afc:	bf18      	it	ne
 8000afe:	6059      	strne	r1, [r3, #4]
 8000b00:	6863      	ldr	r3, [r4, #4]
 8000b02:	bf08      	it	eq
 8000b04:	f8c8 1000 	streq.w	r1, [r8]
 8000b08:	5162      	str	r2, [r4, r5]
 8000b0a:	604b      	str	r3, [r1, #4]
 8000b0c:	4630      	mov	r0, r6
 8000b0e:	f000 f82f 	bl	8000b70 <__malloc_unlock>
 8000b12:	f104 000b 	add.w	r0, r4, #11
 8000b16:	1d23      	adds	r3, r4, #4
 8000b18:	f020 0007 	bic.w	r0, r0, #7
 8000b1c:	1ac2      	subs	r2, r0, r3
 8000b1e:	bf1c      	itt	ne
 8000b20:	1a1b      	subne	r3, r3, r0
 8000b22:	50a3      	strne	r3, [r4, r2]
 8000b24:	e7af      	b.n	8000a86 <_malloc_r+0x22>
 8000b26:	6862      	ldr	r2, [r4, #4]
 8000b28:	42a3      	cmp	r3, r4
 8000b2a:	bf0c      	ite	eq
 8000b2c:	f8c8 2000 	streq.w	r2, [r8]
 8000b30:	605a      	strne	r2, [r3, #4]
 8000b32:	e7eb      	b.n	8000b0c <_malloc_r+0xa8>
 8000b34:	4623      	mov	r3, r4
 8000b36:	6864      	ldr	r4, [r4, #4]
 8000b38:	e7ae      	b.n	8000a98 <_malloc_r+0x34>
 8000b3a:	463c      	mov	r4, r7
 8000b3c:	687f      	ldr	r7, [r7, #4]
 8000b3e:	e7b6      	b.n	8000aae <_malloc_r+0x4a>
 8000b40:	461a      	mov	r2, r3
 8000b42:	685b      	ldr	r3, [r3, #4]
 8000b44:	42a3      	cmp	r3, r4
 8000b46:	d1fb      	bne.n	8000b40 <_malloc_r+0xdc>
 8000b48:	2300      	movs	r3, #0
 8000b4a:	6053      	str	r3, [r2, #4]
 8000b4c:	e7de      	b.n	8000b0c <_malloc_r+0xa8>
 8000b4e:	230c      	movs	r3, #12
 8000b50:	6033      	str	r3, [r6, #0]
 8000b52:	4630      	mov	r0, r6
 8000b54:	f000 f80c 	bl	8000b70 <__malloc_unlock>
 8000b58:	e794      	b.n	8000a84 <_malloc_r+0x20>
 8000b5a:	6005      	str	r5, [r0, #0]
 8000b5c:	e7d6      	b.n	8000b0c <_malloc_r+0xa8>
 8000b5e:	bf00      	nop
 8000b60:	200001d4 			@ <UNDEFINED> instruction: 0x200001d4

08000b64 <__malloc_lock>:
 8000b64:	4801      	ldr	r0, [pc, #4]	@ (8000b6c <__malloc_lock+0x8>)
 8000b66:	f7ff bf0a 	b.w	800097e <__retarget_lock_acquire_recursive>
 8000b6a:	bf00      	nop
 8000b6c:	200001cc 	andcs	r0, r0, ip, asr #3

08000b70 <__malloc_unlock>:
 8000b70:	4801      	ldr	r0, [pc, #4]	@ (8000b78 <__malloc_unlock+0x8>)
 8000b72:	f7ff bf0a 	b.w	800098a <__retarget_lock_release_recursive>
 8000b76:	bf00      	nop
 8000b78:	200001cc 	andcs	r0, r0, ip, asr #3

08000b7c <__sflush_r>:
 8000b7c:	f9b1 200c 	ldrsh.w	r2, [r1, #12]
 8000b80:	e92d 41f0 	stmdb	sp!, {r4, r5, r6, r7, r8, lr}
 8000b84:	0716      	lsls	r6, r2, #28
 8000b86:	4605      	mov	r5, r0
 8000b88:	460c      	mov	r4, r1
 8000b8a:	d451      	bmi.n	8000c30 <__sflush_r+0xb4>
 8000b8c:	684b      	ldr	r3, [r1, #4]
 8000b8e:	2b00      	cmp	r3, #0
 8000b90:	dc02      	bgt.n	8000b98 <__sflush_r+0x1c>
 8000b92:	6c0b      	ldr	r3, [r1, #64]	@ 0x40
 8000b94:	2b00      	cmp	r3, #0
 8000b96:	dd49      	ble.n	8000c2c <__sflush_r+0xb0>
 8000b98:	6ae6      	ldr	r6, [r4, #44]	@ 0x2c
 8000b9a:	2e00      	cmp	r6, #0
 8000b9c:	d046      	beq.n	8000c2c <__sflush_r+0xb0>
 8000b9e:	2300      	movs	r3, #0
 8000ba0:	f412 5280 	ands.w	r2, r2, #4096	@ 0x1000
 8000ba4:	682f      	ldr	r7, [r5, #0]
 8000ba6:	602b      	str	r3, [r5, #0]
 8000ba8:	d031      	beq.n	8000c0e <__sflush_r+0x92>
 8000baa:	6d62      	ldr	r2, [r4, #84]	@ 0x54
 8000bac:	89a3      	ldrh	r3, [r4, #12]
 8000bae:	0759      	lsls	r1, r3, #29
 8000bb0:	d505      	bpl.n	8000bbe <__sflush_r+0x42>
 8000bb2:	6863      	ldr	r3, [r4, #4]
 8000bb4:	1ad2      	subs	r2, r2, r3
 8000bb6:	6b63      	ldr	r3, [r4, #52]	@ 0x34
 8000bb8:	b10b      	cbz	r3, 8000bbe <__sflush_r+0x42>
 8000bba:	6c23      	ldr	r3, [r4, #64]	@ 0x40
 8000bbc:	1ad2      	subs	r2, r2, r3
 8000bbe:	2300      	movs	r3, #0
 8000bc0:	6ae6      	ldr	r6, [r4, #44]	@ 0x2c
 8000bc2:	6a21      	ldr	r1, [r4, #32]
 8000bc4:	4628      	mov	r0, r5
 8000bc6:	47b0      	blx	r6
 8000bc8:	1c42      	adds	r2, r0, #1
 8000bca:	f9b4 300c 	ldrsh.w	r3, [r4, #12]
 8000bce:	d106      	bne.n	8000bde <__sflush_r+0x62>
 8000bd0:	6829      	ldr	r1, [r5, #0]
 8000bd2:	291d      	cmp	r1, #29
 8000bd4:	d846      	bhi.n	8000c64 <__sflush_r+0xe8>
 8000bd6:	4a29      	ldr	r2, [pc, #164]	@ (8000c7c <__sflush_r+0x100>)
 8000bd8:	40ca      	lsrs	r2, r1
 8000bda:	07d6      	lsls	r6, r2, #31
 8000bdc:	d542      	bpl.n	8000c64 <__sflush_r+0xe8>
 8000bde:	2200      	movs	r2, #0
 8000be0:	6062      	str	r2, [r4, #4]
 8000be2:	04d9      	lsls	r1, r3, #19
 8000be4:	6922      	ldr	r2, [r4, #16]
 8000be6:	6022      	str	r2, [r4, #0]
 8000be8:	d504      	bpl.n	8000bf4 <__sflush_r+0x78>
 8000bea:	1c42      	adds	r2, r0, #1
 8000bec:	d101      	bne.n	8000bf2 <__sflush_r+0x76>
 8000bee:	682b      	ldr	r3, [r5, #0]
 8000bf0:	b903      	cbnz	r3, 8000bf4 <__sflush_r+0x78>
 8000bf2:	6560      	str	r0, [r4, #84]	@ 0x54
 8000bf4:	6b61      	ldr	r1, [r4, #52]	@ 0x34
 8000bf6:	602f      	str	r7, [r5, #0]
 8000bf8:	b1c1      	cbz	r1, 8000c2c <__sflush_r+0xb0>
 8000bfa:	f104 0344 	add.w	r3, r4, #68	@ 0x44
 8000bfe:	4299      	cmp	r1, r3
 8000c00:	d002      	beq.n	8000c08 <__sflush_r+0x8c>
 8000c02:	4628      	mov	r0, r5
 8000c04:	f7ff fec2 	bl	800098c <_free_r>
 8000c08:	2300      	movs	r3, #0
 8000c0a:	6363      	str	r3, [r4, #52]	@ 0x34
 8000c0c:	e00e      	b.n	8000c2c <__sflush_r+0xb0>
 8000c0e:	6a21      	ldr	r1, [r4, #32]
 8000c10:	2301      	movs	r3, #1
 8000c12:	4628      	mov	r0, r5
 8000c14:	47b0      	blx	r6
 8000c16:	4602      	mov	r2, r0
 8000c18:	1c50      	adds	r0, r2, #1
 8000c1a:	d1c7      	bne.n	8000bac <__sflush_r+0x30>
 8000c1c:	682b      	ldr	r3, [r5, #0]
 8000c1e:	2b00      	cmp	r3, #0
 8000c20:	d0c4      	beq.n	8000bac <__sflush_r+0x30>
 8000c22:	2b1d      	cmp	r3, #29
 8000c24:	d001      	beq.n	8000c2a <__sflush_r+0xae>
 8000c26:	2b16      	cmp	r3, #22
 8000c28:	d11a      	bne.n	8000c60 <__sflush_r+0xe4>
 8000c2a:	602f      	str	r7, [r5, #0]
 8000c2c:	2000      	movs	r0, #0
 8000c2e:	e01e      	b.n	8000c6e <__sflush_r+0xf2>
 8000c30:	690f      	ldr	r7, [r1, #16]
 8000c32:	2f00      	cmp	r7, #0
 8000c34:	d0fa      	beq.n	8000c2c <__sflush_r+0xb0>
 8000c36:	0793      	lsls	r3, r2, #30
 8000c38:	680e      	ldr	r6, [r1, #0]
 8000c3a:	bf08      	it	eq
 8000c3c:	694b      	ldreq	r3, [r1, #20]
 8000c3e:	600f      	str	r7, [r1, #0]
 8000c40:	bf18      	it	ne
 8000c42:	2300      	movne	r3, #0
 8000c44:	eba6 0807 	sub.w	r8, r6, r7
 8000c48:	608b      	str	r3, [r1, #8]
 8000c4a:	f1b8 0f00 	cmp.w	r8, #0
 8000c4e:	dded      	ble.n	8000c2c <__sflush_r+0xb0>
 8000c50:	6a21      	ldr	r1, [r4, #32]
 8000c52:	6aa6      	ldr	r6, [r4, #40]	@ 0x28
 8000c54:	4643      	mov	r3, r8
 8000c56:	463a      	mov	r2, r7
 8000c58:	4628      	mov	r0, r5
 8000c5a:	47b0      	blx	r6
 8000c5c:	2800      	cmp	r0, #0
 8000c5e:	dc08      	bgt.n	8000c72 <__sflush_r+0xf6>
 8000c60:	f9b4 300c 	ldrsh.w	r3, [r4, #12]
 8000c64:	f043 0340 	orr.w	r3, r3, #64	@ 0x40
 8000c68:	81a3      	strh	r3, [r4, #12]
 8000c6a:	f04f 30ff 	mov.w	r0, #4294967295	@ 0xffffffff
 8000c6e:	e8bd 81f0 	ldmia.w	sp!, {r4, r5, r6, r7, r8, pc}
 8000c72:	4407      	add	r7, r0
 8000c74:	eba8 0800 	sub.w	r8, r8, r0
 8000c78:	e7e7      	b.n	8000c4a <__sflush_r+0xce>
 8000c7a:	bf00      	nop
 8000c7c:	20400001 	subcs	r0, r0, r1

08000c80 <_fflush_r>:
 8000c80:	b538      	push	{r3, r4, r5, lr}
 8000c82:	690b      	ldr	r3, [r1, #16]
 8000c84:	4605      	mov	r5, r0
 8000c86:	460c      	mov	r4, r1
 8000c88:	b913      	cbnz	r3, 8000c90 <_fflush_r+0x10>
 8000c8a:	2500      	movs	r5, #0
 8000c8c:	4628      	mov	r0, r5
 8000c8e:	bd38      	pop	{r3, r4, r5, pc}
 8000c90:	b118      	cbz	r0, 8000c9a <_fflush_r+0x1a>
 8000c92:	6a03      	ldr	r3, [r0, #32]
 8000c94:	b90b      	cbnz	r3, 8000c9a <_fflush_r+0x1a>
 8000c96:	f7ff fd05 	bl	80006a4 <__sinit>
 8000c9a:	f9b4 300c 	ldrsh.w	r3, [r4, #12]
 8000c9e:	2b00      	cmp	r3, #0
 8000ca0:	d0f3      	beq.n	8000c8a <_fflush_r+0xa>
 8000ca2:	6e62      	ldr	r2, [r4, #100]	@ 0x64
 8000ca4:	07d0      	lsls	r0, r2, #31
 8000ca6:	d404      	bmi.n	8000cb2 <_fflush_r+0x32>
 8000ca8:	0599      	lsls	r1, r3, #22
 8000caa:	d402      	bmi.n	8000cb2 <_fflush_r+0x32>
 8000cac:	6da0      	ldr	r0, [r4, #88]	@ 0x58
 8000cae:	f7ff fe66 	bl	800097e <__retarget_lock_acquire_recursive>
 8000cb2:	4628      	mov	r0, r5
 8000cb4:	4621      	mov	r1, r4
 8000cb6:	f7ff ff61 	bl	8000b7c <__sflush_r>
 8000cba:	6e63      	ldr	r3, [r4, #100]	@ 0x64
 8000cbc:	07da      	lsls	r2, r3, #31
 8000cbe:	4605      	mov	r5, r0
 8000cc0:	d4e4      	bmi.n	8000c8c <_fflush_r+0xc>
 8000cc2:	89a3      	ldrh	r3, [r4, #12]
 8000cc4:	059b      	lsls	r3, r3, #22
 8000cc6:	d4e1      	bmi.n	8000c8c <_fflush_r+0xc>
 8000cc8:	6da0      	ldr	r0, [r4, #88]	@ 0x58
 8000cca:	f7ff fe5e 	bl	800098a <__retarget_lock_release_recursive>
 8000cce:	e7dd      	b.n	8000c8c <_fflush_r+0xc>

08000cd0 <fflush>:
 8000cd0:	4601      	mov	r1, r0
 8000cd2:	b920      	cbnz	r0, 8000cde <fflush+0xe>
 8000cd4:	4a04      	ldr	r2, [pc, #16]	@ (8000ce8 <fflush+0x18>)
 8000cd6:	4905      	ldr	r1, [pc, #20]	@ (8000cec <fflush+0x1c>)
 8000cd8:	4805      	ldr	r0, [pc, #20]	@ (8000cf0 <fflush+0x20>)
 8000cda:	f7ff bd17 	b.w	800070c <_fwalk_sglue>
 8000cde:	4b05      	ldr	r3, [pc, #20]	@ (8000cf4 <fflush+0x24>)
 8000ce0:	6818      	ldr	r0, [r3, #0]
 8000ce2:	f7ff bfcd 	b.w	8000c80 <_fflush_r>
 8000ce6:	bf00      	nop
 8000ce8:	20000008 	andcs	r0, r0, r8
 8000cec:	08000c81 	stmdaeq	r0, {r0, r7, sl, fp}
 8000cf0:	20000018 	andcs	r0, r0, r8, lsl r0
 8000cf4:	20000014 	andcs	r0, r0, r4, lsl r0

08000cf8 <_sbrk_r>:
 8000cf8:	b538      	push	{r3, r4, r5, lr}
 8000cfa:	4d06      	ldr	r5, [pc, #24]	@ (8000d14 <_sbrk_r+0x1c>)
 8000cfc:	2300      	movs	r3, #0
 8000cfe:	4604      	mov	r4, r0
 8000d00:	4608      	mov	r0, r1
 8000d02:	602b      	str	r3, [r5, #0]
 8000d04:	f7ff fad6 	bl	80002b4 <_sbrk>
 8000d08:	1c43      	adds	r3, r0, #1
 8000d0a:	d102      	bne.n	8000d12 <_sbrk_r+0x1a>
 8000d0c:	682b      	ldr	r3, [r5, #0]
 8000d0e:	b103      	cbz	r3, 8000d12 <_sbrk_r+0x1a>
 8000d10:	6023      	str	r3, [r4, #0]
 8000d12:	bd38      	pop	{r3, r4, r5, pc}
 8000d14:	200001c4 	andcs	r0, r0, r4, asr #3

08000d18 <all_implied_fbits>:
 8000d18:	410c413e 	tstmi	ip, lr, lsr r1
 8000d1c:	41274111 			@ <UNDEFINED> instruction: 0x41274111
 8000d20:	41034136 	tstmi	r3, r6, lsr r1
 8000d24:	41154106 	tstmi	r5, r6, lsl #2
 8000d28:	410e410f 	tstmi	lr, pc, lsl #2
 8000d2c:	41134126 	tstmi	r3, r6, lsr #2
 8000d30:	41024129 	tstmi	r2, r9, lsr #2
 8000d34:	410a4119 	tstmi	sl, r9, lsl r1
 8000d38:	0000410b 	andeq	r4, r0, fp, lsl #2

08000d3c <all_implied_fbits>:
 8000d3c:	410c413e 	tstmi	ip, lr, lsr r1
 8000d40:	41274111 			@ <UNDEFINED> instruction: 0x41274111
 8000d44:	41034136 	tstmi	r3, r6, lsr r1
 8000d48:	41154106 	tstmi	r5, r6, lsl #2
 8000d4c:	410e410f 	tstmi	lr, pc, lsl #2
 8000d50:	41134126 	tstmi	r3, r6, lsr #2
 8000d54:	41024129 	tstmi	r2, r9, lsr #2
 8000d58:	410a4119 	tstmi	sl, r9, lsl r1
 8000d5c:	0000410b 	andeq	r4, r0, fp, lsl #2

Disassembly of section .init:

08000d60 <_init>:
 8000d60:	b5f8      	push	{r3, r4, r5, r6, r7, lr}
 8000d62:	bf00      	nop
 8000d64:	bcf8      	pop	{r3, r4, r5, r6, r7}
 8000d66:	bc08      	pop	{r3}
 8000d68:	469e      	mov	lr, r3
 8000d6a:	4770      	bx	lr

Disassembly of section .fini:

08000d6c <_fini>:
 8000d6c:	b5f8      	push	{r3, r4, r5, r6, r7, lr}
 8000d6e:	bf00      	nop
 8000d70:	bcf8      	pop	{r3, r4, r5, r6, r7}
 8000d72:	bc08      	pop	{r3}
 8000d74:	469e      	mov	lr, r3
 8000d76:	4770      	bx	lr
